 AIServer

 Timestamp is 5f78e3d5 (Sat Oct 03 22:49:25 2020)

 Preferred load address is 00400000

 Start         Length     Name                   Class
 0001:00000000 00155239H .textbss                DATA
 0002:00000000 002a2966H .text                   CODE
 0002:002a2970 0001e79cH .text$x                 CODE
 0002:002c1110 000077faH .text$yc                CODE
 0002:002c8910 00002cd6H .text$yd                CODE
 0003:00000000 00000104H .CRT$XCA                DATA
 0003:00000104 000001c3H .CRT$XCC                DATA
 0003:000002c8 00000121H .CRT$XCL                DATA
 0003:000003ec 00000688H .CRT$XCU                DATA
 0003:00000a74 00000104H .CRT$XCZ                DATA
 0003:00000b78 00000104H .CRT$XIA                DATA
 0003:00000c7c 00000118H .CRT$XIC                DATA
 0003:00000d94 00000104H .CRT$XIY                DATA
 0003:00000e98 00000104H .CRT$XIZ                DATA
 0003:00000f9c 00000104H .CRT$XPA                DATA
 0003:000010a0 00000104H .CRT$XPB                DATA
 0003:000011a4 00000109H .CRT$XPX                DATA
 0003:000012b0 00000104H .CRT$XPXA               DATA
 0003:000013b4 00000104H .CRT$XPZ                DATA
 0003:000014b8 00000104H .CRT$XTA                DATA
 0003:000015bc 00000104H .CRT$XTZ                DATA
 0003:000016c0 0004d16eH .rdata                  DATA
 0003:0004e830 00000186H .rdata$debug            DATA
 0003:0004e9b8 00005755H .rdata$r                DATA
 0003:00054110 00000104H .rtc$IAA                DATA
 0003:00054214 000001bbH .rtc$IMZ                DATA
 0003:000543d0 00000104H .rtc$IZZ                DATA
 0003:000544d4 00000104H .rtc$TAA                DATA
 0003:000545d8 000001bbH .rtc$TMZ                DATA
 0003:00054794 00000104H .rtc$TZZ                DATA
 0003:00054898 0001e668H .xdata$x                DATA
 0003:00072f00 00000000H .edata                  DATA
 0004:00000000 000054eeH .data                   DATA
 0004:00005500 00007000H .bss                    DATA
 0005:00000000 0000003cH .idata$2                DATA
 0005:0000003c 00000014H .idata$3                DATA
 0005:00000050 000003f8H .idata$4                DATA
 0005:00000448 000003f8H .idata$5                DATA
 0005:00000840 00000e7eH .idata$6                DATA
 0006:00000000 000003fbH .rsrc$01                DATA
 0006:00000400 0001bcecH .rsrc$02                DATA

  Address         Publics by Value              Rva+Base       Lib:Object

 0000:00000000       __except_list              00000000     <absolute>
 0000:00000000       ___safe_se_handler_count   00000000     <absolute>
 0000:00000000       ___safe_se_handler_table   00000000     <absolute>
 0000:00000000       ___ImageBase               00400000     <linker-defined>
 0001:00000000       __enc$textbss$begin        00401000     <linker-defined>
 0001:00155239       __enc$textbss$end          00556239     <linker-defined>
 0002:0001d1a0       ??$_Allocate@E@std@@YAPAEIPAE@Z 005741a0 f i MagicProcess.obj
 0002:0001d220       ??$_Allocate@U_Container_proxy@std@@@std@@YAPAU_Container_proxy@0@IPAU10@@Z 00574220 f i MagicProcess.obj
 0002:0001d2b0       ??$_Debug_lt_pred@U?$less@E@std@@EE@std@@YA_NU?$less@E@0@ABE1PB_WI@Z 005742b0 f i MagicProcess.obj
 0002:0001d350       ??$_Debug_lt_pred@U?$less@I@std@@II@std@@YA_NU?$less@I@0@ABI1PB_WI@Z 00574350 f i MagicProcess.obj
 0002:0001d3f0       ??$_Debug_pointer@E@std@@YAXPAEPB_WI@Z 005743f0 f i MagicProcess.obj
 0002:0001d450       ??$_Debug_range2@PAE@std@@YAXPAE0PB_WIUrandom_access_iterator_tag@0@@Z 00574450 f i MagicProcess.obj
 0002:0001d4f0       ??$_Debug_range@PAE@std@@YAXPAE0PB_WI@Z 005744f0 f i MagicProcess.obj
 0002:0001d570       ??$_Destroy_range@U?$_Wrap_alloc@V?$allocator@E@std@@@std@@@std@@YAXPAE0AAU?$_Wrap_alloc@V?$allocator@E@std@@@0@@Z 00574570 f i MagicProcess.obj
 0002:0001d5f0       ??$_Destroy_range@U?$_Wrap_alloc@V?$allocator@E@std@@@std@@@std@@YAXPAE0AAU?$_Wrap_alloc@V?$allocator@E@std@@@0@U_Scalar_ptr_iterator_tag@0@@Z 005745f0 f i MagicProcess.obj
 0002:0001d620       ??$_Iter_cat@PAE@std@@YA?AUrandom_access_iterator_tag@0@ABQAE@Z 00574620 f i MagicProcess.obj
 0002:0001d6a0       ??$_Kfn@$$CBEU_BUFF_TYPE4_INFO@@@?$_Tmap_traits@EU_BUFF_TYPE4_INFO@@U?$less@E@std@@V?$allocator@U?$pair@$$CBEU_BUFF_TYPE4_INFO@@@std@@@3@$0A@@std@@SAABEABU?$pair@$$CBEU_BUFF_TYPE4_INFO@@@1@@Z 005746a0 f i MagicProcess.obj
 0002:0001d6e0       ??$_Kfn@$$CBIPAU_MAGIC_TABLE@@@?$_Tmap_traits@IPAU_MAGIC_TABLE@@U?$less@I@std@@V?$allocator@U?$pair@$$CBIPAU_MAGIC_TABLE@@@std@@@3@$0A@@std@@SAABIABU?$pair@$$CBIPAU_MAGIC_TABLE@@@1@@Z 005746e0 f i MagicProcess.obj
 0002:0001d720       ??$_Kfn@$$CBIPAU_MAGIC_TYPE4@@@?$_Tmap_traits@IPAU_MAGIC_TYPE4@@U?$less@I@std@@V?$allocator@U?$pair@$$CBIPAU_MAGIC_TYPE4@@@std@@@3@$0A@@std@@SAABIABU?$pair@$$CBIPAU_MAGIC_TYPE4@@@1@@Z 00574720 f i MagicProcess.obj
 0002:0001d760       ??$_Move@AAD@std@@YA$$QADAAD@Z 00574760 f i MagicProcess.obj
 0002:0001d7a0       ??$_Move@PAEPAE@std@@YAPAEPAE00@Z 005747a0 f i MagicProcess.obj
 0002:0001d820       ??$_Move@PAEPAE@std@@YAPAEPAE00U_Scalar_ptr_iterator_tag@0@@Z 00574820 f i MagicProcess.obj
 0002:0001d890       ??$_Ptr_cat@EE@std@@YA?AU_Scalar_ptr_iterator_tag@0@PAE0@Z 00574890 f i MagicProcess.obj
 0002:0001d900       ??$_Umove@PAE@?$vector@EV?$allocator@E@std@@@std@@IAEPAEPAE00@Z 00574900 f i MagicProcess.obj
 0002:0001d9b0       ??$_Uninit_def_fill_n@EIE@std@@YAXPAEIAAU?$_Wrap_alloc@V?$allocator@E@std@@@0@0U_Scalar_ptr_iterator_tag@0@@Z 005749b0 f i MagicProcess.obj
 0002:0001da10       ??$_Uninit_move@EEE@std@@YAPAEPAE00AAU?$_Wrap_alloc@V?$allocator@E@std@@@0@0U_Scalar_ptr_iterator_tag@0@@Z 00574a10 f i MagicProcess.obj
 0002:0001dac0       ??$_Uninitialized_default_fill_n@PAEIU?$_Wrap_alloc@V?$allocator@E@std@@@std@@@std@@YAXPAEIAAU?$_Wrap_alloc@V?$allocator@E@std@@@0@@Z 00574ac0 f i MagicProcess.obj
 0002:0001db50       ??$_Uninitialized_move@PAEPAEU?$_Wrap_alloc@V?$allocator@E@std@@@std@@@std@@YAPAEPAE00AAU?$_Wrap_alloc@V?$allocator@E@std@@@0@@Z 00574b50 f i MagicProcess.obj
 0002:0001dbf0       ??$_Val_type@PAE@std@@YAPAEPAE@Z 00574bf0 f i MagicProcess.obj
 0002:0001dc20       ??$addressof@U?$pair@$$CBEU_BUFF_TYPE4_INFO@@@std@@@std@@YAPAU?$pair@$$CBEU_BUFF_TYPE4_INFO@@@0@AAU10@@Z 00574c20 f i MagicProcess.obj
 0002:0001dc60       ??$addressof@U?$pair@$$CBIPAU_MAGIC_TABLE@@@std@@@std@@YAPAU?$pair@$$CBIPAU_MAGIC_TABLE@@@0@AAU10@@Z 00574c60 f i MagicProcess.obj
 0002:0001dca0       ??$addressof@U?$pair@$$CBIPAU_MAGIC_TYPE4@@@std@@@std@@YAPAU?$pair@$$CBIPAU_MAGIC_TYPE4@@@0@AAU10@@Z 00574ca0 f i MagicProcess.obj
 0002:0001dce0       ??$append@E@ByteBuffer@@QAEXE@Z 00574ce0 f i MagicProcess.obj
 0002:0001dd40       ??$construct@U_Container_proxy@std@@U12@@?$allocator@U_Container_proxy@std@@@std@@QAEXPAU_Container_proxy@1@$$QAU21@@Z 00574d40 f i MagicProcess.obj
 0002:0001de50       ??$destroy@U?$pair@$$CBEU_BUFF_TYPE4_INFO@@@std@@@?$_Wrap_alloc@V?$allocator@U?$_Tree_node@U?$pair@$$CBEU_BUFF_TYPE4_INFO@@@std@@PAX@std@@@std@@@std@@QAEXPAU?$pair@$$CBEU_BUFF_TYPE4_INFO@@@1@@Z 00574e50 f i MagicProcess.obj
 0002:0001deb0       ??$destroy@U?$pair@$$CBEU_BUFF_TYPE4_INFO@@@std@@@?$allocator@U?$_Tree_node@U?$pair@$$CBEU_BUFF_TYPE4_INFO@@@std@@PAX@std@@@std@@QAEXPAU?$pair@$$CBEU_BUFF_TYPE4_INFO@@@1@@Z 00574eb0 f i MagicProcess.obj
 0002:0001def0       ??$destroy@U?$pair@$$CBEU_BUFF_TYPE4_INFO@@@std@@@?$allocator_traits@V?$allocator@U?$_Tree_node@U?$pair@$$CBEU_BUFF_TYPE4_INFO@@@std@@PAX@std@@@std@@@std@@SAXAAV?$allocator@U?$_Tree_node@U?$pair@$$CBEU_BUFF_TYPE4_INFO@@@std@@PAX@std@@@1@PAU?$pair@$$CBEU_BUFF_TYPE4_INFO@@@1@@Z 00574ef0 f i MagicProcess.obj
 0002:0001df40       ??$destroy@U_Container_proxy@std@@@?$allocator@U_Container_proxy@std@@@std@@QAEXPAU_Container_proxy@1@@Z 00574f40 f i MagicProcess.obj
 0002:0001df80       ??$forward@U_Container_proxy@std@@@std@@YA$$QAU_Container_proxy@0@AAU10@@Z 00574f80 f i MagicProcess.obj
 0002:0001dfc0       ??$read@D@ByteBuffer@@QAEDXZ 00574fc0 f i MagicProcess.obj
 0002:0001e040       ??$read@D@ByteBuffer@@QBEDI@Z 00575040 f i MagicProcess.obj
 0002:0001e0c0       ??$read@E@ByteBuffer@@QAEEXZ 005750c0 f i MagicProcess.obj
 0002:0001e140       ??$read@E@ByteBuffer@@QBEEI@Z 00575140 f i MagicProcess.obj
 0002:0001e1c0       ??$read@G@ByteBuffer@@QAEGXZ 005751c0 f i MagicProcess.obj
 0002:0001e240       ??$read@G@ByteBuffer@@QBEGI@Z 00575240 f i MagicProcess.obj
 0002:0001e2c0       ??$read@I@ByteBuffer@@QAEIXZ 005752c0 f i MagicProcess.obj
 0002:0001e340       ??$read@I@ByteBuffer@@QBEII@Z 00575340 f i MagicProcess.obj
 0002:0001e3c0       ??$swap@D@std@@YAXAAD0@Z   005753c0 f i MagicProcess.obj
 0002:0001e480       ??0?$_Iterator012@Ubidirectional_iterator_tag@std@@U?$pair@$$CBEU_BUFF_TYPE4_INFO@@@2@HPBU32@ABU32@U_Iterator_base12@2@@std@@QAE@ABU01@@Z 00575480 f i MagicProcess.obj
 0002:0001e4e0       ??0?$_Iterator012@Ubidirectional_iterator_tag@std@@U?$pair@$$CBEU_BUFF_TYPE4_INFO@@@2@HPBU32@ABU32@U_Iterator_base12@2@@std@@QAE@XZ 005754e0 f i MagicProcess.obj
 0002:0001e540       ??0?$_Iterator012@Ubidirectional_iterator_tag@std@@U?$pair@$$CBIPAU_MAGIC_TABLE@@@2@HPBU32@ABU32@U_Iterator_base12@2@@std@@QAE@ABU01@@Z 00575540 f i MagicProcess.obj
 0002:0001e5a0       ??0?$_Iterator012@Ubidirectional_iterator_tag@std@@U?$pair@$$CBIPAU_MAGIC_TABLE@@@2@HPBU32@ABU32@U_Iterator_base12@2@@std@@QAE@XZ 005755a0 f i MagicProcess.obj
 0002:0001e600       ??0?$_Iterator012@Ubidirectional_iterator_tag@std@@U?$pair@$$CBIPAU_MAGIC_TYPE4@@@2@HPBU32@ABU32@U_Iterator_base12@2@@std@@QAE@ABU01@@Z 00575600 f i MagicProcess.obj
 0002:0001e660       ??0?$_Iterator012@Ubidirectional_iterator_tag@std@@U?$pair@$$CBIPAU_MAGIC_TYPE4@@@2@HPBU32@ABU32@U_Iterator_base12@2@@std@@QAE@XZ 00575660 f i MagicProcess.obj
 0002:0001e6c0       ??0?$_Iterator012@Urandom_access_iterator_tag@std@@EHPBEABEU_Iterator_base12@2@@std@@QAE@ABU01@@Z 005756c0 f i MagicProcess.obj
 0002:0001e720       ??0?$_Iterator012@Urandom_access_iterator_tag@std@@EHPBEABEU_Iterator_base12@2@@std@@QAE@XZ 00575720 f i MagicProcess.obj
 0002:0001e780       ??0?$_Tree_const_iterator@V?$_Tree_val@U?$_Tree_simple_types@U?$pair@$$CBEU_BUFF_TYPE4_INFO@@@std@@@std@@@std@@@std@@QAE@ABV01@@Z 00575780 f i MagicProcess.obj
 0002:0001e7e0       ??0?$_Tree_const_iterator@V?$_Tree_val@U?$_Tree_simple_types@U?$pair@$$CBEU_BUFF_TYPE4_INFO@@@std@@@std@@@std@@@std@@QAE@PAU?$_Tree_node@U?$pair@$$CBEU_BUFF_TYPE4_INFO@@@std@@PAX@1@PBV?$_Tree_val@U?$_Tree_simple_types@U?$pair@$$CBEU_BUFF_TYPE4_INFO@@@std@@@std@@@1@@Z 005757e0 f i MagicProcess.obj
 0002:0001e840       ??0?$_Tree_const_iterator@V?$_Tree_val@U?$_Tree_simple_types@U?$pair@$$CBIPAU_MAGIC_TABLE@@@std@@@std@@@std@@@std@@QAE@ABV01@@Z 00575840 f i MagicProcess.obj
 0002:0001e8a0       ??0?$_Tree_const_iterator@V?$_Tree_val@U?$_Tree_simple_types@U?$pair@$$CBIPAU_MAGIC_TABLE@@@std@@@std@@@std@@@std@@QAE@PAU?$_Tree_node@U?$pair@$$CBIPAU_MAGIC_TABLE@@@std@@PAX@1@PBV?$_Tree_val@U?$_Tree_simple_types@U?$pair@$$CBIPAU_MAGIC_TABLE@@@std@@@std@@@1@@Z 005758a0 f i MagicProcess.obj
 0002:0001e900       ??0?$_Tree_const_iterator@V?$_Tree_val@U?$_Tree_simple_types@U?$pair@$$CBIPAU_MAGIC_TYPE4@@@std@@@std@@@std@@@std@@QAE@ABV01@@Z 00575900 f i MagicProcess.obj
 0002:0001e960       ??0?$_Tree_const_iterator@V?$_Tree_val@U?$_Tree_simple_types@U?$pair@$$CBIPAU_MAGIC_TYPE4@@@std@@@std@@@std@@@std@@QAE@PAU?$_Tree_node@U?$pair@$$CBIPAU_MAGIC_TYPE4@@@std@@PAX@1@PBV?$_Tree_val@U?$_Tree_simple_types@U?$pair@$$CBIPAU_MAGIC_TYPE4@@@std@@@std@@@1@@Z 00575960 f i MagicProcess.obj
 0002:0001e9c0       ??0?$_Tree_iterator@V?$_Tree_val@U?$_Tree_simple_types@U?$pair@$$CBEU_BUFF_TYPE4_INFO@@@std@@@std@@@std@@@std@@QAE@ABV01@@Z 005759c0 f i MagicProcess.obj
 0002:0001ea20       ??0?$_Tree_iterator@V?$_Tree_val@U?$_Tree_simple_types@U?$pair@$$CBEU_BUFF_TYPE4_INFO@@@std@@@std@@@std@@@std@@QAE@PAU?$_Tree_node@U?$pair@$$CBEU_BUFF_TYPE4_INFO@@@std@@PAX@1@PBV?$_Tree_val@U?$_Tree_simple_types@U?$pair@$$CBEU_BUFF_TYPE4_INFO@@@std@@@std@@@1@@Z 00575a20 f i MagicProcess.obj
 0002:0001ea80       ??0?$_Tree_iterator@V?$_Tree_val@U?$_Tree_simple_types@U?$pair@$$CBIPAU_MAGIC_TABLE@@@std@@@std@@@std@@@std@@QAE@ABV01@@Z 00575a80 f i MagicProcess.obj
 0002:0001eae0       ??0?$_Tree_iterator@V?$_Tree_val@U?$_Tree_simple_types@U?$pair@$$CBIPAU_MAGIC_TABLE@@@std@@@std@@@std@@@std@@QAE@PAU?$_Tree_node@U?$pair@$$CBIPAU_MAGIC_TABLE@@@std@@PAX@1@PBV?$_Tree_val@U?$_Tree_simple_types@U?$pair@$$CBIPAU_MAGIC_TABLE@@@std@@@std@@@1@@Z 00575ae0 f i MagicProcess.obj
 0002:0001eb40       ??0?$_Tree_iterator@V?$_Tree_val@U?$_Tree_simple_types@U?$pair@$$CBIPAU_MAGIC_TYPE4@@@std@@@std@@@std@@@std@@QAE@ABV01@@Z 00575b40 f i MagicProcess.obj
 0002:0001eba0       ??0?$_Tree_iterator@V?$_Tree_val@U?$_Tree_simple_types@U?$pair@$$CBIPAU_MAGIC_TYPE4@@@std@@@std@@@std@@@std@@QAE@PAU?$_Tree_node@U?$pair@$$CBIPAU_MAGIC_TYPE4@@@std@@PAX@1@PBV?$_Tree_val@U?$_Tree_simple_types@U?$pair@$$CBIPAU_MAGIC_TYPE4@@@std@@@std@@@1@@Z 00575ba0 f i MagicProcess.obj
 0002:0001ec00       ??0?$_Tree_unchecked_const_iterator@V?$_Tree_val@U?$_Tree_simple_types@U?$pair@$$CBEU_BUFF_TYPE4_INFO@@@std@@@std@@@std@@U_Iterator_base12@2@@std@@QAE@ABV01@@Z 00575c00 f i MagicProcess.obj
 0002:0001ec70       ??0?$_Tree_unchecked_const_iterator@V?$_Tree_val@U?$_Tree_simple_types@U?$pair@$$CBEU_BUFF_TYPE4_INFO@@@std@@@std@@@std@@U_Iterator_base12@2@@std@@QAE@PAU?$_Tree_node@U?$pair@$$CBEU_BUFF_TYPE4_INFO@@@std@@PAX@1@PBV?$_Tree_val@U?$_Tree_simple_types@U?$pair@$$CBEU_BUFF_TYPE4_INFO@@@std@@@std@@@1@@Z 00575c70 f i MagicProcess.obj
 0002:0001ed30       ??0?$_Tree_unchecked_const_iterator@V?$_Tree_val@U?$_Tree_simple_types@U?$pair@$$CBIPAU_MAGIC_TABLE@@@std@@@std@@@std@@U_Iterator_base12@2@@std@@QAE@ABV01@@Z 00575d30 f i MagicProcess.obj
 0002:0001eda0       ??0?$_Tree_unchecked_const_iterator@V?$_Tree_val@U?$_Tree_simple_types@U?$pair@$$CBIPAU_MAGIC_TABLE@@@std@@@std@@@std@@U_Iterator_base12@2@@std@@QAE@PAU?$_Tree_node@U?$pair@$$CBIPAU_MAGIC_TABLE@@@std@@PAX@1@PBV?$_Tree_val@U?$_Tree_simple_types@U?$pair@$$CBIPAU_MAGIC_TABLE@@@std@@@std@@@1@@Z 00575da0 f i MagicProcess.obj
 0002:0001ee60       ??0?$_Tree_unchecked_const_iterator@V?$_Tree_val@U?$_Tree_simple_types@U?$pair@$$CBIPAU_MAGIC_TYPE4@@@std@@@std@@@std@@U_Iterator_base12@2@@std@@QAE@ABV01@@Z 00575e60 f i MagicProcess.obj
 0002:0001eed0       ??0?$_Tree_unchecked_const_iterator@V?$_Tree_val@U?$_Tree_simple_types@U?$pair@$$CBIPAU_MAGIC_TYPE4@@@std@@@std@@@std@@U_Iterator_base12@2@@std@@QAE@PAU?$_Tree_node@U?$pair@$$CBIPAU_MAGIC_TYPE4@@@std@@PAX@1@PBV?$_Tree_val@U?$_Tree_simple_types@U?$pair@$$CBIPAU_MAGIC_TYPE4@@@std@@@std@@@1@@Z 00575ed0 f i MagicProcess.obj
 0002:0001ef90       ??0?$_Vector_alloc@$0A@U?$_Vec_base_types@EV?$allocator@E@std@@@std@@@std@@QAE@ABV?$allocator@E@1@@Z 00575f90 f i MagicProcess.obj
 0002:0001f040       ??0?$_Vector_const_iterator@V?$_Vector_val@U?$_Simple_types@E@std@@@std@@@std@@QAE@ABV01@@Z 00576040 f i MagicProcess.obj
 0002:0001f0b0       ??0?$_Vector_const_iterator@V?$_Vector_val@U?$_Simple_types@E@std@@@std@@@std@@QAE@PAEPBU_Container_base12@1@@Z 005760b0 f i MagicProcess.obj
 0002:0001f170       ??0?$_Vector_iterator@V?$_Vector_val@U?$_Simple_types@E@std@@@std@@@std@@QAE@ABV01@@Z 00576170 f i MagicProcess.obj
 0002:0001f1d0       ??0?$_Vector_iterator@V?$_Vector_val@U?$_Simple_types@E@std@@@std@@@std@@QAE@PAEPBU_Container_base12@1@@Z 005761d0 f i MagicProcess.obj
 0002:0001f230       ??0?$_Vector_val@U?$_Simple_types@E@std@@@std@@QAE@XZ 00576230 f i MagicProcess.obj
 0002:0001f2b0       ??0?$_Wrap_alloc@V?$allocator@E@std@@@std@@QAE@XZ 005762b0 f i MagicProcess.obj
 0002:0001f310       ??0?$_Wrap_alloc@V?$allocator@U?$_Tree_node@U?$pair@$$CBEU_BUFF_TYPE4_INFO@@@std@@PAX@std@@@std@@@std@@QAE@XZ 00576310 f i MagicProcess.obj
 0002:0001f370       ??0?$allocator@E@std@@QAE@XZ 00576370 f i MagicProcess.obj
 0002:0001f3b0       ??0?$allocator@U?$_Tree_node@U?$pair@$$CBEU_BUFF_TYPE4_INFO@@@std@@PAX@std@@@std@@QAE@XZ 005763b0 f i MagicProcess.obj
 0002:0001f3f0       ??0?$allocator@U_Container_proxy@std@@@std@@QAE@XZ 005763f0 f i MagicProcess.obj
 0002:0001f430       ??0?$vector@EV?$allocator@E@std@@@std@@QAE@XZ 00576430 f i MagicProcess.obj
 0002:0001f4a0       ??0ByteBuffer@@QAE@XZ      005764a0 f i MagicProcess.obj
 0002:0001f580       ??0Guard@@QAE@AAVrecursive_mutex@std@@@Z 00576580 f i MagicProcess.obj
 0002:0001f5f0       ??0Packet@@QAE@EE@Z        005765f0 f i MagicProcess.obj
 0002:0001f6c0       ??0_BUFF_TYPE4_INFO@@QAE@XZ 005766c0 f i MagicProcess.obj
 0002:0001f740       ??0_Container_base12@std@@QAE@XZ 00576740 f i MagicProcess.obj
 0002:0001f790       ??0_Container_proxy@std@@QAE@XZ 00576790 f i MagicProcess.obj
 0002:0001f7e0       ??0_Iterator_base12@std@@QAE@ABU01@@Z 005767e0 f i MagicProcess.obj
 0002:0001f860       ??0_Iterator_base12@std@@QAE@XZ 00576860 f i MagicProcess.obj
 0002:0001f8b0       ??1?$_Iterator012@Ubidirectional_iterator_tag@std@@U?$pair@$$CBEU_BUFF_TYPE4_INFO@@@2@HPBU32@ABU32@U_Iterator_base12@2@@std@@QAE@XZ 005768b0 f i MagicProcess.obj
 0002:0001f900       ??1?$_Iterator012@Ubidirectional_iterator_tag@std@@U?$pair@$$CBIPAU_MAGIC_TABLE@@@2@HPBU32@ABU32@U_Iterator_base12@2@@std@@QAE@XZ 00576900 f i MagicProcess.obj
 0002:0001f950       ??1?$_Iterator012@Ubidirectional_iterator_tag@std@@U?$pair@$$CBIPAU_MAGIC_TYPE4@@@2@HPBU32@ABU32@U_Iterator_base12@2@@std@@QAE@XZ 00576950 f i MagicProcess.obj
 0002:0001f9a0       ??1?$_Iterator012@Urandom_access_iterator_tag@std@@EHPBEABEU_Iterator_base12@2@@std@@QAE@XZ 005769a0 f i MagicProcess.obj
 0002:0001f9f0       ??1?$_Tree_const_iterator@V?$_Tree_val@U?$_Tree_simple_types@U?$pair@$$CBEU_BUFF_TYPE4_INFO@@@std@@@std@@@std@@@std@@QAE@XZ 005769f0 f i MagicProcess.obj
 0002:0001fa40       ??1?$_Tree_const_iterator@V?$_Tree_val@U?$_Tree_simple_types@U?$pair@$$CBIPAU_MAGIC_TABLE@@@std@@@std@@@std@@@std@@QAE@XZ 00576a40 f i MagicProcess.obj
 0002:0001fa90       ??1?$_Tree_const_iterator@V?$_Tree_val@U?$_Tree_simple_types@U?$pair@$$CBIPAU_MAGIC_TYPE4@@@std@@@std@@@std@@@std@@QAE@XZ 00576a90 f i MagicProcess.obj
 0002:0001fae0       ??1?$_Tree_iterator@V?$_Tree_val@U?$_Tree_simple_types@U?$pair@$$CBEU_BUFF_TYPE4_INFO@@@std@@@std@@@std@@@std@@QAE@XZ 00576ae0 f i MagicProcess.obj
 0002:0001fb30       ??1?$_Tree_iterator@V?$_Tree_val@U?$_Tree_simple_types@U?$pair@$$CBIPAU_MAGIC_TABLE@@@std@@@std@@@std@@@std@@QAE@XZ 00576b30 f i MagicProcess.obj
 0002:0001fb80       ??1?$_Tree_iterator@V?$_Tree_val@U?$_Tree_simple_types@U?$pair@$$CBIPAU_MAGIC_TYPE4@@@std@@@std@@@std@@@std@@QAE@XZ 00576b80 f i MagicProcess.obj
 0002:0001fbd0       ??1?$_Tree_unchecked_const_iterator@V?$_Tree_val@U?$_Tree_simple_types@U?$pair@$$CBEU_BUFF_TYPE4_INFO@@@std@@@std@@@std@@U_Iterator_base12@2@@std@@QAE@XZ 00576bd0 f i MagicProcess.obj
 0002:0001fc20       ??1?$_Tree_unchecked_const_iterator@V?$_Tree_val@U?$_Tree_simple_types@U?$pair@$$CBIPAU_MAGIC_TABLE@@@std@@@std@@@std@@U_Iterator_base12@2@@std@@QAE@XZ 00576c20 f i MagicProcess.obj
 0002:0001fc70       ??1?$_Tree_unchecked_const_iterator@V?$_Tree_val@U?$_Tree_simple_types@U?$pair@$$CBIPAU_MAGIC_TYPE4@@@std@@@std@@@std@@U_Iterator_base12@2@@std@@QAE@XZ 00576c70 f i MagicProcess.obj
 0002:0001fcc0       ??1?$_Vector_alloc@$0A@U?$_Vec_base_types@EV?$allocator@E@std@@@std@@@std@@QAE@XZ 00576cc0 f i MagicProcess.obj
 0002:0001fd20       ??1?$_Vector_const_iterator@V?$_Vector_val@U?$_Simple_types@E@std@@@std@@@std@@QAE@XZ 00576d20 f i MagicProcess.obj
 0002:0001fd70       ??1?$_Vector_iterator@V?$_Vector_val@U?$_Simple_types@E@std@@@std@@@std@@QAE@XZ 00576d70 f i MagicProcess.obj
 0002:0001fdc0       ??1?$_Vector_val@U?$_Simple_types@E@std@@@std@@QAE@XZ 00576dc0 f i MagicProcess.obj
 0002:0001fe10       ??1?$vector@EV?$allocator@E@std@@@std@@QAE@XZ 00576e10 f i MagicProcess.obj
 0002:0001fe70       ??1ByteBuffer@@UAE@XZ      00576e70 f i MagicProcess.obj
 0002:0001fed0       ??1Guard@@QAE@XZ           00576ed0 f i MagicProcess.obj
 0002:0001ff30       ??1Packet@@UAE@XZ          00576f30 f i MagicProcess.obj
 0002:0001ff80       ??1_Container_base12@std@@QAE@XZ 00576f80 f i MagicProcess.obj
 0002:0001ffd0       ??1_Iterator_base12@std@@QAE@XZ 00576fd0 f i MagicProcess.obj
 0002:00020070       ??2@YAPAXIPAX@Z            00577070 f i MagicProcess.obj
 0002:000200b0       ??3@YAXPAX0@Z              005770b0 f i MagicProcess.obj
 0002:000200e0       ??4_Iterator_base12@std@@QAEAAU01@ABU01@@Z 005770e0 f i MagicProcess.obj
 0002:00020200       ??5ByteBuffer@@QAEAAV0@AAE@Z 00577200 f i MagicProcess.obj
 0002:00020260       ??5ByteBuffer@@QAEAAV0@AAG@Z 00577260 f i MagicProcess.obj
 0002:000202c0       ??5ByteBuffer@@QAEAAV0@AAI@Z 005772c0 f i MagicProcess.obj
 0002:00020320       ??5ByteBuffer@@QAEAAV0@AA_N@Z 00577320 f i MagicProcess.obj
 0002:000203a0       ??6ByteBuffer@@QAEAAV0@E@Z 005773a0 f i MagicProcess.obj
 0002:00020400       ??8?$_Tree_const_iterator@V?$_Tree_val@U?$_Tree_simple_types@U?$pair@$$CBEU_BUFF_TYPE4_INFO@@@std@@@std@@@std@@@std@@QBE_NABV01@@Z 00577400 f i MagicProcess.obj
 0002:00020530       ??8?$_Tree_const_iterator@V?$_Tree_val@U?$_Tree_simple_types@U?$pair@$$CBIPAU_MAGIC_TABLE@@@std@@@std@@@std@@@std@@QBE_NABV01@@Z 00577530 f i MagicProcess.obj
 0002:00020660       ??8?$_Tree_const_iterator@V?$_Tree_val@U?$_Tree_simple_types@U?$pair@$$CBIPAU_MAGIC_TYPE4@@@std@@@std@@@std@@@std@@QBE_NABV01@@Z 00577660 f i MagicProcess.obj
 0002:00020790       ??8?$_Vector_const_iterator@V?$_Vector_val@U?$_Simple_types@E@std@@@std@@@std@@QBE_NABV01@@Z 00577790 f i MagicProcess.obj
 0002:00020820       ??9?$_Tree_const_iterator@V?$_Tree_val@U?$_Tree_simple_types@U?$pair@$$CBEU_BUFF_TYPE4_INFO@@@std@@@std@@@std@@@std@@QBE_NABV01@@Z 00577820 f i MagicProcess.obj
 0002:000208b0       ??9?$_Tree_const_iterator@V?$_Tree_val@U?$_Tree_simple_types@U?$pair@$$CBIPAU_MAGIC_TABLE@@@std@@@std@@@std@@@std@@QBE_NABV01@@Z 005778b0 f i MagicProcess.obj
 0002:00020940       ??9?$_Tree_const_iterator@V?$_Tree_val@U?$_Tree_simple_types@U?$pair@$$CBIPAU_MAGIC_TYPE4@@@std@@@std@@@std@@@std@@QBE_NABV01@@Z 00577940 f i MagicProcess.obj
 0002:000209d0       ??9?$_Vector_const_iterator@V?$_Vector_val@U?$_Simple_types@E@std@@@std@@@std@@QBE_NABV01@@Z 005779d0 f i MagicProcess.obj
 0002:00020a60       ??A?$vector@EV?$allocator@E@std@@@std@@QAEAAEI@Z 00577a60 f i MagicProcess.obj
 0002:00020b50       ??A?$vector@EV?$allocator@E@std@@@std@@QBEABEI@Z 00577b50 f i MagicProcess.obj
 0002:00020c40       ??C?$_Tree_iterator@V?$_Tree_val@U?$_Tree_simple_types@U?$pair@$$CBEU_BUFF_TYPE4_INFO@@@std@@@std@@@std@@@std@@QBEPAU?$pair@$$CBEU_BUFF_TYPE4_INFO@@@1@XZ 00577c40 f i MagicProcess.obj
 0002:00020ca0       ??C?$_Tree_iterator@V?$_Tree_val@U?$_Tree_simple_types@U?$pair@$$CBIPAU_MAGIC_TABLE@@@std@@@std@@@std@@@std@@QBEPAU?$pair@$$CBIPAU_MAGIC_TABLE@@@1@XZ 00577ca0 f i MagicProcess.obj
 0002:00020d00       ??C?$_Tree_iterator@V?$_Tree_val@U?$_Tree_simple_types@U?$pair@$$CBIPAU_MAGIC_TYPE4@@@std@@@std@@@std@@@std@@QBEPAU?$pair@$$CBIPAU_MAGIC_TYPE4@@@1@XZ 00577d00 f i MagicProcess.obj
 0002:00020d60       ??D?$_Tree_const_iterator@V?$_Tree_val@U?$_Tree_simple_types@U?$pair@$$CBEU_BUFF_TYPE4_INFO@@@std@@@std@@@std@@@std@@QBEABU?$pair@$$CBEU_BUFF_TYPE4_INFO@@@1@XZ 00577d60 f i MagicProcess.obj
 0002:00020e70       ??D?$_Tree_const_iterator@V?$_Tree_val@U?$_Tree_simple_types@U?$pair@$$CBIPAU_MAGIC_TABLE@@@std@@@std@@@std@@@std@@QBEABU?$pair@$$CBIPAU_MAGIC_TABLE@@@1@XZ 00577e70 f i MagicProcess.obj
 0002:00020f80       ??D?$_Tree_const_iterator@V?$_Tree_val@U?$_Tree_simple_types@U?$pair@$$CBIPAU_MAGIC_TYPE4@@@std@@@std@@@std@@@std@@QBEABU?$pair@$$CBIPAU_MAGIC_TYPE4@@@1@XZ 00577f80 f i MagicProcess.obj
 0002:00021090       ??D?$_Tree_iterator@V?$_Tree_val@U?$_Tree_simple_types@U?$pair@$$CBEU_BUFF_TYPE4_INFO@@@std@@@std@@@std@@@std@@QBEAAU?$pair@$$CBEU_BUFF_TYPE4_INFO@@@1@XZ 00578090 f i MagicProcess.obj
 0002:000210e0       ??D?$_Tree_iterator@V?$_Tree_val@U?$_Tree_simple_types@U?$pair@$$CBIPAU_MAGIC_TABLE@@@std@@@std@@@std@@@std@@QBEAAU?$pair@$$CBIPAU_MAGIC_TABLE@@@1@XZ 005780e0 f i MagicProcess.obj
 0002:00021130       ??D?$_Tree_iterator@V?$_Tree_val@U?$_Tree_simple_types@U?$pair@$$CBIPAU_MAGIC_TYPE4@@@std@@@std@@@std@@@std@@QBEAAU?$pair@$$CBIPAU_MAGIC_TYPE4@@@1@XZ 00578130 f i MagicProcess.obj
 0002:00021180       ??E?$_Tree_const_iterator@V?$_Tree_val@U?$_Tree_simple_types@U?$pair@$$CBEU_BUFF_TYPE4_INFO@@@std@@@std@@@std@@@std@@QAEAAV01@XZ 00578180 f i MagicProcess.obj
 0002:00021290       ??E?$_Tree_unchecked_const_iterator@V?$_Tree_val@U?$_Tree_simple_types@U?$pair@$$CBEU_BUFF_TYPE4_INFO@@@std@@@std@@@std@@U_Iterator_base12@2@@std@@QAEAAV01@XZ 00578290 f i MagicProcess.obj
 0002:000213c0       ??H?$_Vector_iterator@V?$_Vector_val@U?$_Simple_types@E@std@@@std@@@std@@QBE?AV01@H@Z 005783c0 f i MagicProcess.obj
 0002:000214e0       ??M?$_Vector_const_iterator@V?$_Vector_val@U?$_Simple_types@E@std@@@std@@@std@@QBE_NABV01@@Z 005784e0 f i MagicProcess.obj
 0002:00021570       ??R?$less@E@std@@QBE_NABE0@Z 00578570 f i MagicProcess.obj
 0002:000215e0       ??R?$less@I@std@@QBE_NABI0@Z 005785e0 f i MagicProcess.obj
 0002:00021650       ??Y?$_Vector_const_iterator@V?$_Vector_val@U?$_Simple_types@E@std@@@std@@@std@@QAEAAV01@H@Z 00578650 f i MagicProcess.obj
 0002:00021780       ??Y?$_Vector_iterator@V?$_Vector_val@U?$_Simple_types@E@std@@@std@@@std@@QAEAAV01@H@Z 00578780 f i MagicProcess.obj
 0002:000217e0       ??_GByteBuffer@@UAEPAXI@Z  005787e0 f i MagicProcess.obj
 0002:000217e0       ??_EByteBuffer@@UAEPAXI@Z  005787e0 f i MagicProcess.obj
 0002:00021850       ??_GPacket@@UAEPAXI@Z      00578850 f i MagicProcess.obj
 0002:00021850       ??_EPacket@@UAEPAXI@Z      00578850 f i MagicProcess.obj
 0002:000218c0       ?GetClanID@CUser@@QAEGXZ   005788c0 f i MagicProcess.obj
 0002:00021900       ?GetData@?$CSTLMap@U_MAGIC_TABLE@@@@QAEPAU_MAGIC_TABLE@@I@Z 00578900 f i MagicProcess.obj
 0002:00021ac0       ?GetData@?$CSTLMap@U_MAGIC_TYPE4@@@@QAEPAU_MAGIC_TYPE4@@I@Z 00578ac0 f i MagicProcess.obj
 0002:00021c80       ?GetMap@Unit@@QAEPAVMAP@@XZ 00578c80 f i MagicProcess.obj
 0002:00021cc0       ?GetPartyID@CUser@@QAEGXZ  00578cc0 f i MagicProcess.obj
 0002:00021d10       ?GetStat@CUser@@QAEEW4StatType@@@Z 00578d10 f i MagicProcess.obj
 0002:00021d50       ?GetUnitType@Unit@@QAE?AW4UnitType@@XZ 00578d50 f i MagicProcess.obj
 0002:00021d90       ?GetZoneID@Unit@@QAEEXZ    00578d90 f i MagicProcess.obj
 0002:00021dd0       ?GrantType4Buff@CMagicProcess@@SA_NPAU_MAGIC_TABLE@@PAU_MAGIC_TYPE4@@PAVUnit@@2_N@Z 00578dd0 f   MagicProcess.obj
 0002:00022e00       ?IsBuff@CMagicProcess@@SA_NPAU_MAGIC_TYPE4@@@Z 00579e00 f   MagicProcess.obj
 0002:00023410       ?MagicPacket@CMagicProcess@@SAXAAVPacket@@PAVUnit@@@Z 0057a410 f   MagicProcess.obj
 0002:000236e0       ?RemoveSavedMagic@CUser@@QAEXI@Z 0057a6e0 f i MagicProcess.obj
 0002:00023720       ?RemoveType4Buff@CMagicProcess@@SA_NEPAVUnit@@_N1@Z 0057a720 f   MagicProcess.obj
 0002:00024610       ?Send@CUser@@QAEXPAVPacket@@@Z 0057b610 f i MagicProcess.obj
 0002:00024650       ?SendUserStatusUpdate@CUser@@QAEXW4UserStatus@@W4UserStatusBehaviour@@@Z 0057b650 f i MagicProcess.obj
 0002:00024690       ?SetStatBuff@CUser@@QAEXW4StatType@@E@Z 0057b690 f i MagicProcess.obj
 0002:000246d0       ?SetUserAbility@CUser@@QAEX_N@Z 0057b6d0 f i MagicProcess.obj
 0002:00024710       ?UserRegionCheck@CMagicProcess@@SA_NPAVUnit@@0PAU_MAGIC_TABLE@@HFF@Z 0057b710 f   MagicProcess.obj
 0002:00024cc0       ?_Adopt@_Iterator_base12@std@@QAEXPBU_Container_base12@2@@Z 0057bcc0 f i MagicProcess.obj
 0002:00024e40       ?_Alloc_proxy@?$_Vector_alloc@$0A@U?$_Vec_base_types@EV?$allocator@E@std@@@std@@@std@@QAEXXZ 0057be40 f i MagicProcess.obj
 0002:00024f10       ?_Check_C_return@std@@YAHH@Z 0057bf10 f i MagicProcess.obj
 0002:00024f70       ?_Clrcont@_Iterator_base12@std@@QAEXXZ 0057bf70 f i MagicProcess.obj
 0002:00024fb0       ?_Color@?$_Tree_val@U?$_Tree_simple_types@U?$pair@$$CBEU_BUFF_TYPE4_INFO@@@std@@@std@@@std@@SAAADPAU?$_Tree_node@U?$pair@$$CBEU_BUFF_TYPE4_INFO@@@std@@PAX@2@@Z 0057bfb0 f i MagicProcess.obj
 0002:00024ff0       ?_Compat@?$_Vector_const_iterator@V?$_Vector_val@U?$_Simple_types@E@std@@@std@@@std@@QBEXABV12@@Z 0057bff0 f i MagicProcess.obj
 0002:000250f0       ?_Destroy@?$vector@EV?$allocator@E@std@@@std@@IAEXPAE0@Z 0057c0f0 f i MagicProcess.obj
 0002:000251a0       ?_Fill_n@std@@YAPAEPAEIE@Z 0057c1a0 f i MagicProcess.obj
 0002:00025200       ?_Free_proxy@?$_Vector_alloc@$0A@U?$_Vec_base_types@EV?$allocator@E@std@@@std@@@std@@QAEXXZ 0057c200 f i MagicProcess.obj
 0002:000252d0       ?_Getal@?$_Tree_alloc@$0A@U?$_Tree_base_types@U?$pair@$$CBEU_BUFF_TYPE4_INFO@@@std@@V?$allocator@U?$pair@$$CBEU_BUFF_TYPE4_INFO@@@std@@@2@@std@@@std@@QBE?AU?$_Wrap_alloc@V?$allocator@U?$_Tree_node@U?$pair@$$CBEU_BUFF_TYPE4_INFO@@@std@@PAX@std@@@std@@@2@XZ 0057c2d0 f i MagicProcess.obj
 0002:00025330       ?_Getal@?$_Vector_alloc@$0A@U?$_Vec_base_types@EV?$allocator@E@std@@@std@@@std@@QBE?AU?$_Wrap_alloc@V?$allocator@E@std@@@2@XZ 0057c330 f i MagicProcess.obj
 0002:00025390       ?_Getcomp@?$_Tree_comp@$0A@V?$_Tmap_traits@EU_BUFF_TYPE4_INFO@@U?$less@E@std@@V?$allocator@U?$pair@$$CBEU_BUFF_TYPE4_INFO@@@std@@@3@$0A@@std@@@std@@QBE?AU?$less@E@2@XZ 0057c390 f i MagicProcess.obj
 0002:000253d0       ?_Getcomp@?$_Tree_comp@$0A@V?$_Tmap_traits@IPAU_MAGIC_TABLE@@U?$less@I@std@@V?$allocator@U?$pair@$$CBIPAU_MAGIC_TABLE@@@std@@@3@$0A@@std@@@std@@QBE?AU?$less@I@2@XZ 0057c3d0 f i MagicProcess.obj
 0002:00025410       ?_Getcomp@?$_Tree_comp@$0A@V?$_Tmap_traits@IPAU_MAGIC_TYPE4@@U?$less@I@std@@V?$allocator@U?$pair@$$CBIPAU_MAGIC_TYPE4@@@std@@@3@$0A@@std@@@std@@QBE?AU?$less@I@2@XZ 0057c410 f i MagicProcess.obj
 0002:00025450       ?_Getcont@_Iterator_base12@std@@QBEPBU_Container_base12@2@XZ 0057c450 f i MagicProcess.obj
 0002:000254c0       ?_Getpfirst@_Container_base12@std@@QBEPAPAU_Iterator_base12@2@XZ 0057c4c0 f i MagicProcess.obj
 0002:00025530       ?_Getpnext@_Iterator_base12@std@@QAEPAPAU12@XZ 0057c530 f i MagicProcess.obj
 0002:00025570       ?_Grow_to@?$vector@EV?$allocator@E@std@@@std@@IBEII@Z 0057c570 f i MagicProcess.obj
 0002:00025620       ?_Isnil@?$_Tree_val@U?$_Tree_simple_types@U?$pair@$$CBEU_BUFF_TYPE4_INFO@@@std@@@std@@@std@@SAAADPAU?$_Tree_node@U?$pair@$$CBEU_BUFF_TYPE4_INFO@@@std@@PAX@2@@Z 0057c620 f i MagicProcess.obj
 0002:00025660       ?_Isnil@?$_Tree_val@U?$_Tree_simple_types@U?$pair@$$CBIPAU_MAGIC_TABLE@@@std@@@std@@@std@@SAAADPAU?$_Tree_node@U?$pair@$$CBIPAU_MAGIC_TABLE@@@std@@PAX@2@@Z 0057c660 f i MagicProcess.obj
 0002:000256a0       ?_Isnil@?$_Tree_val@U?$_Tree_simple_types@U?$pair@$$CBIPAU_MAGIC_TYPE4@@@std@@@std@@@std@@SAAADPAU?$_Tree_node@U?$pair@$$CBIPAU_MAGIC_TYPE4@@@std@@PAX@2@@Z 0057c6a0 f i MagicProcess.obj
 0002:000256e0       ?_Key@?$_Tree@V?$_Tmap_traits@EU_BUFF_TYPE4_INFO@@U?$less@E@std@@V?$allocator@U?$pair@$$CBEU_BUFF_TYPE4_INFO@@@std@@@3@$0A@@std@@@std@@IBEABEPAU?$_Tree_node@U?$pair@$$CBEU_BUFF_TYPE4_INFO@@@std@@PAX@2@@Z 0057c6e0 f i MagicProcess.obj
 0002:00025750       ?_Key@?$_Tree@V?$_Tmap_traits@IPAU_MAGIC_TABLE@@U?$less@I@std@@V?$allocator@U?$pair@$$CBIPAU_MAGIC_TABLE@@@std@@@3@$0A@@std@@@std@@IBEABIPAU?$_Tree_node@U?$pair@$$CBIPAU_MAGIC_TABLE@@@std@@PAX@2@@Z 0057c750 f i MagicProcess.obj
 0002:000257c0       ?_Key@?$_Tree@V?$_Tmap_traits@IPAU_MAGIC_TYPE4@@U?$less@I@std@@V?$allocator@U?$pair@$$CBIPAU_MAGIC_TYPE4@@@std@@@3@$0A@@std@@@std@@IBEABIPAU?$_Tree_node@U?$pair@$$CBIPAU_MAGIC_TYPE4@@@std@@PAX@2@@Z 0057c7c0 f i MagicProcess.obj
 0002:00025830       ?_Kfn@?$_Tree@V?$_Tmap_traits@EU_BUFF_TYPE4_INFO@@U?$less@E@std@@V?$allocator@U?$pair@$$CBEU_BUFF_TYPE4_INFO@@@std@@@3@$0A@@std@@@std@@IBEABEABU?$pair@$$CBEU_BUFF_TYPE4_INFO@@@2@@Z 0057c830 f i MagicProcess.obj
 0002:00025890       ?_Kfn@?$_Tree@V?$_Tmap_traits@IPAU_MAGIC_TABLE@@U?$less@I@std@@V?$allocator@U?$pair@$$CBIPAU_MAGIC_TABLE@@@std@@@3@$0A@@std@@@std@@IBEABIABU?$pair@$$CBIPAU_MAGIC_TABLE@@@2@@Z 0057c890 f i MagicProcess.obj
 0002:000258f0       ?_Kfn@?$_Tree@V?$_Tmap_traits@IPAU_MAGIC_TYPE4@@U?$less@I@std@@V?$allocator@U?$pair@$$CBIPAU_MAGIC_TYPE4@@@std@@@3@$0A@@std@@@std@@IBEABIABU?$pair@$$CBIPAU_MAGIC_TYPE4@@@2@@Z 0057c8f0 f i MagicProcess.obj
 0002:00025950       ?_Lbound@?$_Tree@V?$_Tmap_traits@EU_BUFF_TYPE4_INFO@@U?$less@E@std@@V?$allocator@U?$pair@$$CBEU_BUFF_TYPE4_INFO@@@std@@@3@$0A@@std@@@std@@IAEPAU?$_Tree_node@U?$pair@$$CBEU_BUFF_TYPE4_INFO@@@std@@PAX@2@ABE@Z 0057c950 f i MagicProcess.obj
 0002:00025a60       ?_Lbound@?$_Tree@V?$_Tmap_traits@IPAU_MAGIC_TABLE@@U?$less@I@std@@V?$allocator@U?$pair@$$CBIPAU_MAGIC_TABLE@@@std@@@3@$0A@@std@@@std@@IAEPAU?$_Tree_node@U?$pair@$$CBIPAU_MAGIC_TABLE@@@std@@PAX@2@ABI@Z 0057ca60 f i MagicProcess.obj
 0002:00025b70       ?_Lbound@?$_Tree@V?$_Tmap_traits@IPAU_MAGIC_TYPE4@@U?$less@I@std@@V?$allocator@U?$pair@$$CBIPAU_MAGIC_TYPE4@@@std@@@3@$0A@@std@@@std@@IAEPAU?$_Tree_node@U?$pair@$$CBIPAU_MAGIC_TYPE4@@@std@@PAX@2@ABI@Z 0057cb70 f i MagicProcess.obj
 0002:00025c80       ?_Left@?$_Tree_val@U?$_Tree_simple_types@U?$pair@$$CBEU_BUFF_TYPE4_INFO@@@std@@@std@@@std@@SAAAPAU?$_Tree_node@U?$pair@$$CBEU_BUFF_TYPE4_INFO@@@std@@PAX@2@PAU32@@Z 0057cc80 f i MagicProcess.obj
 0002:00025cc0       ?_Left@?$_Tree_val@U?$_Tree_simple_types@U?$pair@$$CBIPAU_MAGIC_TABLE@@@std@@@std@@@std@@SAAAPAU?$_Tree_node@U?$pair@$$CBIPAU_MAGIC_TABLE@@@std@@PAX@2@PAU32@@Z 0057ccc0 f i MagicProcess.obj
 0002:00025d00       ?_Left@?$_Tree_val@U?$_Tree_simple_types@U?$pair@$$CBIPAU_MAGIC_TYPE4@@@std@@@std@@@std@@SAAAPAU?$_Tree_node@U?$pair@$$CBIPAU_MAGIC_TYPE4@@@std@@PAX@2@PAU32@@Z 0057cd00 f i MagicProcess.obj
 0002:00025d40       ?_Lmost@?$_Tree@V?$_Tmap_traits@EU_BUFF_TYPE4_INFO@@U?$less@E@std@@V?$allocator@U?$pair@$$CBEU_BUFF_TYPE4_INFO@@@std@@@3@$0A@@std@@@std@@IBEAAPAU?$_Tree_node@U?$pair@$$CBEU_BUFF_TYPE4_INFO@@@std@@PAX@2@XZ 0057cd40 f i MagicProcess.obj
 0002:00025da0       ?_Lrotate@?$_Tree@V?$_Tmap_traits@EU_BUFF_TYPE4_INFO@@U?$less@E@std@@V?$allocator@U?$pair@$$CBEU_BUFF_TYPE4_INFO@@@std@@@3@$0A@@std@@@std@@IAEXPAU?$_Tree_node@U?$pair@$$CBEU_BUFF_TYPE4_INFO@@@std@@PAX@2@@Z 0057cda0 f i MagicProcess.obj
 0002:00025f50       ?_Make_iter@?$vector@EV?$allocator@E@std@@@std@@QBE?AV?$_Vector_iterator@V?$_Vector_val@U?$_Simple_types@E@std@@@std@@@2@V?$_Vector_const_iterator@V?$_Vector_val@U?$_Simple_types@E@std@@@std@@@2@@Z 0057cf50 f i MagicProcess.obj
 0002:00026020       ?_Max@?$_Tree_val@U?$_Tree_simple_types@U?$pair@$$CBEU_BUFF_TYPE4_INFO@@@std@@@std@@@std@@SAPAU?$_Tree_node@U?$pair@$$CBEU_BUFF_TYPE4_INFO@@@std@@PAX@2@PAU32@@Z 0057d020 f i MagicProcess.obj
 0002:000260a0       ?_Min@?$_Tree_val@U?$_Tree_simple_types@U?$pair@$$CBEU_BUFF_TYPE4_INFO@@@std@@@std@@@std@@SAPAU?$_Tree_node@U?$pair@$$CBEU_BUFF_TYPE4_INFO@@@std@@PAX@2@PAU32@@Z 0057d0a0 f i MagicProcess.obj
 0002:00026120       ?_Mtx_lockX@std@@YAHPAPAU_Mtx_internal_imp_t@@@Z 0057d120 f i MagicProcess.obj
 0002:00026180       ?_Mtx_unlockX@std@@YAHPAPAU_Mtx_internal_imp_t@@@Z 0057d180 f i MagicProcess.obj
 0002:000261e0       ?_Mynode@?$_Tree_unchecked_const_iterator@V?$_Tree_val@U?$_Tree_simple_types@U?$pair@$$CBEU_BUFF_TYPE4_INFO@@@std@@@std@@@std@@U_Iterator_base12@2@@std@@QBEPAU?$_Tree_node@U?$pair@$$CBEU_BUFF_TYPE4_INFO@@@std@@PAX@2@XZ 0057d1e0 f i MagicProcess.obj
 0002:00026220       ?_Mynode@?$_Tree_unchecked_const_iterator@V?$_Tree_val@U?$_Tree_simple_types@U?$pair@$$CBIPAU_MAGIC_TABLE@@@std@@@std@@@std@@U_Iterator_base12@2@@std@@QBEPAU?$_Tree_node@U?$pair@$$CBIPAU_MAGIC_TABLE@@@std@@PAX@2@XZ 0057d220 f i MagicProcess.obj
 0002:00026260       ?_Mynode@?$_Tree_unchecked_const_iterator@V?$_Tree_val@U?$_Tree_simple_types@U?$pair@$$CBIPAU_MAGIC_TYPE4@@@std@@@std@@@std@@U_Iterator_base12@2@@std@@QBEPAU?$_Tree_node@U?$pair@$$CBIPAU_MAGIC_TYPE4@@@std@@PAX@2@XZ 0057d260 f i MagicProcess.obj
 0002:000262a0       ?_Myval@?$_Tree_val@U?$_Tree_simple_types@U?$pair@$$CBEU_BUFF_TYPE4_INFO@@@std@@@std@@@std@@SAAAU?$pair@$$CBEU_BUFF_TYPE4_INFO@@@2@PAU?$_Tree_node@U?$pair@$$CBEU_BUFF_TYPE4_INFO@@@std@@PAX@2@@Z 0057d2a0 f i MagicProcess.obj
 0002:000262e0       ?_Myval@?$_Tree_val@U?$_Tree_simple_types@U?$pair@$$CBIPAU_MAGIC_TABLE@@@std@@@std@@@std@@SAAAU?$pair@$$CBIPAU_MAGIC_TABLE@@@2@PAU?$_Tree_node@U?$pair@$$CBIPAU_MAGIC_TABLE@@@std@@PAX@2@@Z 0057d2e0 f i MagicProcess.obj
 0002:00026320       ?_Myval@?$_Tree_val@U?$_Tree_simple_types@U?$pair@$$CBIPAU_MAGIC_TYPE4@@@std@@@std@@@std@@SAAAU?$pair@$$CBIPAU_MAGIC_TYPE4@@@2@PAU?$_Tree_node@U?$pair@$$CBIPAU_MAGIC_TYPE4@@@std@@PAX@2@@Z 0057d320 f i MagicProcess.obj
 0002:00026360       ?_Orphan_all@_Container_base12@std@@QAEXXZ 0057d360 f i MagicProcess.obj
 0002:00026450       ?_Orphan_me@_Iterator_base12@std@@QAEXXZ 0057d450 f i MagicProcess.obj
 0002:00026520       ?_Orphan_ptr@?$_Tree@V?$_Tmap_traits@EU_BUFF_TYPE4_INFO@@U?$less@E@std@@V?$allocator@U?$pair@$$CBEU_BUFF_TYPE4_INFO@@@std@@@3@$0A@@std@@@std@@IBEXAAV12@PAU?$_Tree_node@U?$pair@$$CBEU_BUFF_TYPE4_INFO@@@std@@PAX@2@@Z 0057d520 f i MagicProcess.obj
 0002:00026680       ?_Orphan_range@?$vector@EV?$allocator@E@std@@@std@@IBEXPAE0@Z 0057d680 f i MagicProcess.obj
 0002:000267e0       ?_Parent@?$_Tree_val@U?$_Tree_simple_types@U?$pair@$$CBEU_BUFF_TYPE4_INFO@@@std@@@std@@@std@@SAAAPAU?$_Tree_node@U?$pair@$$CBEU_BUFF_TYPE4_INFO@@@std@@PAX@2@PAU32@@Z 0057d7e0 f i MagicProcess.obj
 0002:00026820       ?_Parent@?$_Tree_val@U?$_Tree_simple_types@U?$pair@$$CBIPAU_MAGIC_TABLE@@@std@@@std@@@std@@SAAAPAU?$_Tree_node@U?$pair@$$CBIPAU_MAGIC_TABLE@@@std@@PAX@2@PAU32@@Z 0057d820 f i MagicProcess.obj
 0002:00026860       ?_Parent@?$_Tree_val@U?$_Tree_simple_types@U?$pair@$$CBIPAU_MAGIC_TYPE4@@@std@@@std@@@std@@SAAAPAU?$_Tree_node@U?$pair@$$CBIPAU_MAGIC_TYPE4@@@std@@PAX@2@PAU32@@Z 0057d860 f i MagicProcess.obj
 0002:000268a0       ?_Reallocate@?$vector@EV?$allocator@E@std@@@std@@IAEXI@Z 0057d8a0 f i MagicProcess.obj
 0002:00026a60       ?_Reserve@?$vector@EV?$allocator@E@std@@@std@@IAEXI@Z 0057da60 f i MagicProcess.obj
 0002:00026b10       ?_Right@?$_Tree_val@U?$_Tree_simple_types@U?$pair@$$CBEU_BUFF_TYPE4_INFO@@@std@@@std@@@std@@SAAAPAU?$_Tree_node@U?$pair@$$CBEU_BUFF_TYPE4_INFO@@@std@@PAX@2@PAU32@@Z 0057db10 f i MagicProcess.obj
 0002:00026b50       ?_Right@?$_Tree_val@U?$_Tree_simple_types@U?$pair@$$CBIPAU_MAGIC_TABLE@@@std@@@std@@@std@@SAAAPAU?$_Tree_node@U?$pair@$$CBIPAU_MAGIC_TABLE@@@std@@PAX@2@PAU32@@Z 0057db50 f i MagicProcess.obj
 0002:00026b90       ?_Right@?$_Tree_val@U?$_Tree_simple_types@U?$pair@$$CBIPAU_MAGIC_TYPE4@@@std@@@std@@@std@@SAAAPAU?$_Tree_node@U?$pair@$$CBIPAU_MAGIC_TYPE4@@@std@@PAX@2@PAU32@@Z 0057db90 f i MagicProcess.obj
 0002:00026bd0       ?_Rmost@?$_Tree@V?$_Tmap_traits@EU_BUFF_TYPE4_INFO@@U?$less@E@std@@V?$allocator@U?$pair@$$CBEU_BUFF_TYPE4_INFO@@@std@@@3@$0A@@std@@@std@@IBEAAPAU?$_Tree_node@U?$pair@$$CBEU_BUFF_TYPE4_INFO@@@std@@PAX@2@XZ 0057dbd0 f i MagicProcess.obj
 0002:00026c30       ?_Root@?$_Tree@V?$_Tmap_traits@EU_BUFF_TYPE4_INFO@@U?$less@E@std@@V?$allocator@U?$pair@$$CBEU_BUFF_TYPE4_INFO@@@std@@@3@$0A@@std@@@std@@IBEAAPAU?$_Tree_node@U?$pair@$$CBEU_BUFF_TYPE4_INFO@@@std@@PAX@2@XZ 0057dc30 f i MagicProcess.obj
 0002:00026c90       ?_Root@?$_Tree@V?$_Tmap_traits@IPAU_MAGIC_TABLE@@U?$less@I@std@@V?$allocator@U?$pair@$$CBIPAU_MAGIC_TABLE@@@std@@@3@$0A@@std@@@std@@IBEAAPAU?$_Tree_node@U?$pair@$$CBIPAU_MAGIC_TABLE@@@std@@PAX@2@XZ 0057dc90 f i MagicProcess.obj
 0002:00026cf0       ?_Root@?$_Tree@V?$_Tmap_traits@IPAU_MAGIC_TYPE4@@U?$less@I@std@@V?$allocator@U?$pair@$$CBIPAU_MAGIC_TYPE4@@@std@@@3@$0A@@std@@@std@@IBEAAPAU?$_Tree_node@U?$pair@$$CBIPAU_MAGIC_TYPE4@@@std@@PAX@2@XZ 0057dcf0 f i MagicProcess.obj
 0002:00026d50       ?_Rrotate@?$_Tree@V?$_Tmap_traits@EU_BUFF_TYPE4_INFO@@U?$less@E@std@@V?$allocator@U?$pair@$$CBEU_BUFF_TYPE4_INFO@@@std@@@3@$0A@@std@@@std@@IAEXPAU?$_Tree_node@U?$pair@$$CBEU_BUFF_TYPE4_INFO@@@std@@PAX@2@@Z 0057dd50 f i MagicProcess.obj
 0002:00026f00       ?_Tidy@?$vector@EV?$allocator@E@std@@@std@@IAEXXZ 0057df00 f i MagicProcess.obj
 0002:00026fd0       ?_Unused_capacity@?$vector@EV?$allocator@E@std@@@std@@QBEIXZ 0057dfd0 f i MagicProcess.obj
 0002:00027020       ?_Xlen@?$vector@EV?$allocator@E@std@@@std@@IBEXXZ 0057e020 f i MagicProcess.obj
 0002:00027080       ?allocate@?$_Wrap_alloc@V?$allocator@E@std@@@std@@QAEPAEI@Z 0057e080 f i MagicProcess.obj
 0002:000270e0       ?allocate@?$allocator@E@std@@QAEPAEI@Z 0057e0e0 f i MagicProcess.obj
 0002:00027140       ?allocate@?$allocator@U_Container_proxy@std@@@std@@QAEPAU_Container_proxy@2@I@Z 0057e140 f i MagicProcess.obj
 0002:000271a0       ?append@ByteBuffer@@QAEXPBXI@Z 0057e1a0 f i MagicProcess.obj
 0002:000272a0       ?begin@?$vector@EV?$allocator@E@std@@@std@@QAE?AV?$_Vector_iterator@V?$_Vector_val@U?$_Simple_types@E@std@@@std@@@2@XZ 0057e2a0 f i MagicProcess.obj
 0002:00027310       ?capacity@?$vector@EV?$allocator@E@std@@@std@@QBEIXZ 0057e310 f i MagicProcess.obj
 0002:00027360       ?clear@?$vector@EV?$allocator@E@std@@@std@@QAEXXZ 0057e360 f i MagicProcess.obj
 0002:000273e0       ?deallocate@?$_Wrap_alloc@V?$allocator@E@std@@@std@@QAEXPAEI@Z 0057e3e0 f i MagicProcess.obj
 0002:00027440       ?deallocate@?$_Wrap_alloc@V?$allocator@U?$_Tree_node@U?$pair@$$CBEU_BUFF_TYPE4_INFO@@@std@@PAX@std@@@std@@@std@@QAEXPAU?$_Tree_node@U?$pair@$$CBEU_BUFF_TYPE4_INFO@@@std@@PAX@2@I@Z 0057e440 f i MagicProcess.obj
 0002:000274a0       ?deallocate@?$allocator@E@std@@QAEXPAEI@Z 0057e4a0 f i MagicProcess.obj
 0002:00027500       ?deallocate@?$allocator@U?$_Tree_node@U?$pair@$$CBEU_BUFF_TYPE4_INFO@@@std@@PAX@std@@@std@@QAEXPAU?$_Tree_node@U?$pair@$$CBEU_BUFF_TYPE4_INFO@@@std@@PAX@2@I@Z 0057e500 f i MagicProcess.obj
 0002:00027560       ?deallocate@?$allocator@U_Container_proxy@std@@@std@@QAEXPAU_Container_proxy@2@I@Z 0057e560 f i MagicProcess.obj
 0002:000275c0       ?end@?$_Tree@V?$_Tmap_traits@EU_BUFF_TYPE4_INFO@@U?$less@E@std@@V?$allocator@U?$pair@$$CBEU_BUFF_TYPE4_INFO@@@std@@@3@$0A@@std@@@std@@QAE?AV?$_Tree_iterator@V?$_Tree_val@U?$_Tree_simple_types@U?$pair@$$CBEU_BUFF_TYPE4_INFO@@@std@@@std@@@std@@@2@XZ 0057e5c0 f i MagicProcess.obj
 0002:00027630       ?end@?$_Tree@V?$_Tmap_traits@IPAU_MAGIC_TABLE@@U?$less@I@std@@V?$allocator@U?$pair@$$CBIPAU_MAGIC_TABLE@@@std@@@3@$0A@@std@@@std@@QAE?AV?$_Tree_iterator@V?$_Tree_val@U?$_Tree_simple_types@U?$pair@$$CBIPAU_MAGIC_TABLE@@@std@@@std@@@std@@@2@XZ 0057e630 f i MagicProcess.obj
 0002:000276a0       ?end@?$_Tree@V?$_Tmap_traits@IPAU_MAGIC_TYPE4@@U?$less@I@std@@V?$allocator@U?$pair@$$CBIPAU_MAGIC_TYPE4@@@std@@@3@$0A@@std@@@std@@QAE?AV?$_Tree_iterator@V?$_Tree_val@U?$_Tree_simple_types@U?$pair@$$CBIPAU_MAGIC_TYPE4@@@std@@@std@@@std@@@2@XZ 0057e6a0 f i MagicProcess.obj
 0002:00027710       ?end@?$vector@EV?$allocator@E@std@@@std@@QAE?AV?$_Vector_iterator@V?$_Vector_val@U?$_Simple_types@E@std@@@std@@@2@XZ 0057e710 f i MagicProcess.obj
 0002:00027780       ?erase@?$_Tree@V?$_Tmap_traits@EU_BUFF_TYPE4_INFO@@U?$less@E@std@@V?$allocator@U?$pair@$$CBEU_BUFF_TYPE4_INFO@@@std@@@3@$0A@@std@@@std@@QAE?AV?$_Tree_iterator@V?$_Tree_val@U?$_Tree_simple_types@U?$pair@$$CBEU_BUFF_TYPE4_INFO@@@std@@@std@@@std@@@2@V?$_Tree_const_iterator@V?$_Tree_val@U?$_Tree_simple_types@U?$pair@$$CBEU_BUFF_TYPE4_INFO@@@std@@@std@@@std@@@2@@Z 0057e780 f i MagicProcess.obj
 0002:000281f0       ?erase@?$vector@EV?$allocator@E@std@@@std@@QAE?AV?$_Vector_iterator@V?$_Vector_val@U?$_Simple_types@E@std@@@std@@@2@V?$_Vector_const_iterator@V?$_Vector_val@U?$_Simple_types@E@std@@@std@@@2@0@Z 0057f1f0 f i MagicProcess.obj
 0002:00028630       ?find@?$_Tree@V?$_Tmap_traits@EU_BUFF_TYPE4_INFO@@U?$less@E@std@@V?$allocator@U?$pair@$$CBEU_BUFF_TYPE4_INFO@@@std@@@3@$0A@@std@@@std@@QAE?AV?$_Tree_iterator@V?$_Tree_val@U?$_Tree_simple_types@U?$pair@$$CBEU_BUFF_TYPE4_INFO@@@std@@@std@@@std@@@2@ABE@Z 0057f630 f i MagicProcess.obj
 0002:00028940       ?find@?$_Tree@V?$_Tmap_traits@IPAU_MAGIC_TABLE@@U?$less@I@std@@V?$allocator@U?$pair@$$CBIPAU_MAGIC_TABLE@@@std@@@3@$0A@@std@@@std@@QAE?AV?$_Tree_iterator@V?$_Tree_val@U?$_Tree_simple_types@U?$pair@$$CBIPAU_MAGIC_TABLE@@@std@@@std@@@std@@@2@ABI@Z 0057f940 f i MagicProcess.obj
 0002:00028c50       ?find@?$_Tree@V?$_Tmap_traits@IPAU_MAGIC_TYPE4@@U?$less@I@std@@V?$allocator@U?$pair@$$CBIPAU_MAGIC_TYPE4@@@std@@@3@$0A@@std@@@std@@QAE?AV?$_Tree_iterator@V?$_Tree_val@U?$_Tree_simple_types@U?$pair@$$CBIPAU_MAGIC_TYPE4@@@std@@@std@@@std@@@2@ABI@Z 0057fc50 f i MagicProcess.obj
 0002:00028f60       ?isBuff@_BUFF_TYPE4_INFO@@QAE_NXZ 0057ff60 f i MagicProcess.obj
 0002:00028fa0       ?isInClan@CUser@@QAE_NXZ   0057ffa0 f i MagicProcess.obj
 0002:00028fe0       ?isInParty@CUser@@QAE_NXZ  0057ffe0 f i MagicProcess.obj
 0002:00029050       ?isInTempleEventZone@Unit@@QAE_NE@Z 00580050 f i MagicProcess.obj
 0002:00029100       ?isNPC@Unit@@QAE_NXZ       00580100 f i MagicProcess.obj
 0002:00029180       ?isPlayer@Unit@@QAE_NXZ    00580180 f i MagicProcess.obj
 0002:00029200       ?isWarZone@MAP@@QAE_NXZ    00580200 f i MagicProcess.obj
 0002:00029270       ?lock@_Mutex_base@std@@QAEXXZ 00580270 f i MagicProcess.obj
 0002:000292d0       ?lower_bound@?$_Tree@V?$_Tmap_traits@EU_BUFF_TYPE4_INFO@@U?$less@E@std@@V?$allocator@U?$pair@$$CBEU_BUFF_TYPE4_INFO@@@std@@@3@$0A@@std@@@std@@QAE?AV?$_Tree_iterator@V?$_Tree_val@U?$_Tree_simple_types@U?$pair@$$CBEU_BUFF_TYPE4_INFO@@@std@@@std@@@std@@@2@ABE@Z 005802d0 f i MagicProcess.obj
 0002:00029360       ?lower_bound@?$_Tree@V?$_Tmap_traits@IPAU_MAGIC_TABLE@@U?$less@I@std@@V?$allocator@U?$pair@$$CBIPAU_MAGIC_TABLE@@@std@@@3@$0A@@std@@@std@@QAE?AV?$_Tree_iterator@V?$_Tree_val@U?$_Tree_simple_types@U?$pair@$$CBIPAU_MAGIC_TABLE@@@std@@@std@@@std@@@2@ABI@Z 00580360 f i MagicProcess.obj
 0002:000293f0       ?lower_bound@?$_Tree@V?$_Tmap_traits@IPAU_MAGIC_TYPE4@@U?$less@I@std@@V?$allocator@U?$pair@$$CBIPAU_MAGIC_TYPE4@@@std@@@3@$0A@@std@@@std@@QAE?AV?$_Tree_iterator@V?$_Tree_val@U?$_Tree_simple_types@U?$pair@$$CBIPAU_MAGIC_TYPE4@@@std@@@std@@@std@@@2@ABI@Z 005803f0 f i MagicProcess.obj
 0002:00029480       ?max_size@?$_Wrap_alloc@V?$allocator@E@std@@@std@@QBEIXZ 00580480 f i MagicProcess.obj
 0002:000294e0       ?max_size@?$allocator@E@std@@QBEIXZ 005804e0 f i MagicProcess.obj
 0002:00029520       ?max_size@?$allocator_traits@V?$allocator@E@std@@@std@@SAIABV?$allocator@E@2@@Z 00580520 f i MagicProcess.obj
 0002:00029570       ?max_size@?$vector@EV?$allocator@E@std@@@std@@QBEIXZ 00580570 f i MagicProcess.obj
 0002:000295d0       ?pointer_to@?$pointer_traits@PAU?$pair@$$CBEU_BUFF_TYPE4_INFO@@@std@@@std@@SAPAU?$pair@$$CBEU_BUFF_TYPE4_INFO@@@2@AAU32@@Z 005805d0 f i MagicProcess.obj
 0002:00029620       ?pointer_to@?$pointer_traits@PAU?$pair@$$CBIPAU_MAGIC_TABLE@@@std@@@std@@SAPAU?$pair@$$CBIPAU_MAGIC_TABLE@@@2@AAU32@@Z 00580620 f i MagicProcess.obj
 0002:00029670       ?pointer_to@?$pointer_traits@PAU?$pair@$$CBIPAU_MAGIC_TYPE4@@@std@@@std@@SAPAU?$pair@$$CBIPAU_MAGIC_TYPE4@@@2@AAU32@@Z 00580670 f i MagicProcess.obj
 0002:000296c0       ?reserve@?$vector@EV?$allocator@E@std@@@std@@QAEXI@Z 005806c0 f i MagicProcess.obj
 0002:00029740       ?resize@?$vector@EV?$allocator@E@std@@@std@@QAEXI@Z 00580740 f i MagicProcess.obj
 0002:00029a40       ?size@?$vector@EV?$allocator@E@std@@@std@@QBEIXZ 00580a40 f i MagicProcess.obj
 0002:00029a90       ?size@ByteBuffer@@QBEIXZ   00580a90 f i MagicProcess.obj
 0002:00029af0       ?unlock@_Mutex_base@std@@QAEXXZ 00580af0 f i MagicProcess.obj
 0002:00029b50       ??$?0AAEAAU_BUFF_TYPE4_INFO@@@?$pair@EU_BUFF_TYPE4_INFO@@@std@@QAE@AAEAAU_BUFF_TYPE4_INFO@@PAPAX@Z 00580b50 f i Unit.obj
 0002:00029bf0       ??$?0AAV?$_Tree_iterator@V?$_Tree_val@U?$_Tree_simple_types@U?$pair@$$CBEU_BUFF_TYPE4_INFO@@@std@@@std@@@std@@@std@@_N@?$pair@V?$_Tree_iterator@V?$_Tree_val@U?$_Tree_simple_types@U?$pair@$$CBEU_BUFF_TYPE4_INFO@@@std@@@std@@@std@@@std@@_N@std@@QAE@AAV?$_Tree_iterator@V?$_Tree_val@U?$_Tree_simple_types@U?$pair@$$CBEU_BUFF_TYPE4_INFO@@@std@@@std@@@std@@@1@$$QA_NPAPAX@Z 00580bf0 f i Unit.obj
 0002:00029cc0       ??$?0EU_BUFF_TYPE4_INFO@@@?$pair@$$CBEU_BUFF_TYPE4_INFO@@@std@@QAE@$$QAU?$pair@EU_BUFF_TYPE4_INFO@@@1@PAPAX@Z 00580cc0 f i Unit.obj
 0002:00029d60       ??$?0EU_BUFF_TYPE4_INFO@@@?$pair@EU_BUFF_TYPE4_INFO@@@std@@QAE@$$QAU01@PAPAX@Z 00580d60 f i Unit.obj
 0002:00029e00       ??$?0U?$_Tree_node@U?$pair@$$CBEF@std@@PAX@std@@@?$allocator@U_Container_proxy@std@@@std@@QAE@ABV?$allocator@U?$_Tree_node@U?$pair@$$CBEF@std@@PAX@std@@@1@@Z 00580e00 f i Unit.obj
 0002:00029e40       ??$?0U?$_Tree_node@U?$pair@$$CBEU_BUFF_TYPE4_INFO@@@std@@PAX@std@@@?$allocator@U?$pair@$$CBEU_BUFF_TYPE4_INFO@@@std@@@std@@QAE@ABV?$allocator@U?$_Tree_node@U?$pair@$$CBEU_BUFF_TYPE4_INFO@@@std@@PAX@std@@@1@@Z 00580e40 f i Unit.obj
 0002:00029e80       ??$?0U?$_Tree_node@U?$pair@$$CBEU_BUFF_TYPE4_INFO@@@std@@PAX@std@@@?$allocator@U_Container_proxy@std@@@std@@QAE@ABV?$allocator@U?$_Tree_node@U?$pair@$$CBEU_BUFF_TYPE4_INFO@@@std@@PAX@std@@@1@@Z 00580e80 f i Unit.obj
 0002:00029ec0       ??$?0U?$_Tree_node@U?$pair@$$CBEU_BUFF_TYPE9_INFO@@@std@@PAX@std@@@?$allocator@U_Container_proxy@std@@@std@@QAE@ABV?$allocator@U?$_Tree_node@U?$pair@$$CBEU_BUFF_TYPE9_INFO@@@std@@PAX@std@@@1@@Z 00580ec0 f i Unit.obj
 0002:00029f00       ??$?0U?$_Tree_node@U?$pair@$$CBEV?$map@EFU?$less@E@std@@V?$allocator@U?$pair@$$CBEF@std@@@2@@std@@@std@@PAX@std@@@?$allocator@U_Container_proxy@std@@@std@@QAE@ABV?$allocator@U?$_Tree_node@U?$pair@$$CBEV?$map@EFU?$less@E@std@@V?$allocator@U?$pair@$$CBEF@std@@@2@@std@@@std@@PAX@std@@@1@@Z 00580f00 f i Unit.obj
 0002:00029f40       ??$?0U?$_Wrap_alloc@V?$allocator@U?$_Tree_node@U?$pair@$$CBEF@std@@PAX@std@@@std@@@std@@@?$_Wrap_alloc@V?$allocator@U_Container_proxy@std@@@std@@@std@@QAE@ABU?$_Wrap_alloc@V?$allocator@U?$_Tree_node@U?$pair@$$CBEF@std@@PAX@std@@@std@@@1@@Z 00580f40 f i Unit.obj
 0002:00029fa0       ??$?0U?$_Wrap_alloc@V?$allocator@U?$_Tree_node@U?$pair@$$CBEU_BUFF_TYPE4_INFO@@@std@@PAX@std@@@std@@@std@@@?$_Wrap_alloc@V?$allocator@U_Container_proxy@std@@@std@@@std@@QAE@ABU?$_Wrap_alloc@V?$allocator@U?$_Tree_node@U?$pair@$$CBEU_BUFF_TYPE4_INFO@@@std@@PAX@std@@@std@@@1@@Z 00580fa0 f i Unit.obj
 0002:0002a000       ??$?0U?$_Wrap_alloc@V?$allocator@U?$_Tree_node@U?$pair@$$CBEU_BUFF_TYPE9_INFO@@@std@@PAX@std@@@std@@@std@@@?$_Wrap_alloc@V?$allocator@U_Container_proxy@std@@@std@@@std@@QAE@ABU?$_Wrap_alloc@V?$allocator@U?$_Tree_node@U?$pair@$$CBEU_BUFF_TYPE9_INFO@@@std@@PAX@std@@@std@@@1@@Z 00581000 f i Unit.obj
 0002:0002a060       ??$?0U?$_Wrap_alloc@V?$allocator@U?$_Tree_node@U?$pair@$$CBEV?$map@EFU?$less@E@std@@V?$allocator@U?$pair@$$CBEF@std@@@2@@std@@@std@@PAX@std@@@std@@@std@@@?$_Wrap_alloc@V?$allocator@U_Container_proxy@std@@@std@@@std@@QAE@ABU?$_Wrap_alloc@V?$allocator@U?$_Tree_node@U?$pair@$$CBEV?$map@EFU?$less@E@std@@V?$allocator@U?$pair@$$CBEF@std@@@2@@std@@@std@@PAX@std@@@std@@@1@@Z 00581060 f i Unit.obj
 0002:0002a0c0       ??$?0V?$_Tree_iterator@V?$_Tree_val@U?$_Tree_simple_types@U?$pair@$$CBEU_BUFF_TYPE4_INFO@@@std@@@std@@@std@@@std@@_N@?$pair@V?$_Tree_iterator@V?$_Tree_val@U?$_Tree_simple_types@U?$pair@$$CBEU_BUFF_TYPE4_INFO@@@std@@@std@@@std@@@std@@_N@std@@QAE@$$QAU01@PAPAX@Z 005810c0 f i Unit.obj
 0002:0002a190       ??$?0V?$_Tree_iterator@V?$_Tree_val@U?$_Tree_simple_types@U?$pair@$$CBEU_BUFF_TYPE4_INFO@@@std@@@std@@@std@@@std@@_N@?$pair@V?$_Tree_iterator@V?$_Tree_val@U?$_Tree_simple_types@U?$pair@$$CBEU_BUFF_TYPE4_INFO@@@std@@@std@@@std@@@std@@_N@std@@QAE@$$QAV?$_Tree_iterator@V?$_Tree_val@U?$_Tree_simple_types@U?$pair@$$CBEU_BUFF_TYPE4_INFO@@@std@@@std@@@std@@@1@$$QA_NPAPAX@Z 00581190 f i Unit.obj
 0002:0002a260       ??$_Allocate@U?$_Tree_node@U?$pair@$$CBEU_BUFF_TYPE4_INFO@@@std@@PAX@std@@@std@@YAPAU?$_Tree_node@U?$pair@$$CBEU_BUFF_TYPE4_INFO@@@std@@PAX@0@IPAU10@@Z 00581260 f i Unit.obj
 0002:0002a2f0       ??$_Allocate@U?$_Tree_node@U?$pair@$$CBEU_BUFF_TYPE9_INFO@@@std@@PAX@std@@@std@@YAPAU?$_Tree_node@U?$pair@$$CBEU_BUFF_TYPE9_INFO@@@std@@PAX@0@IPAU10@@Z 005812f0 f i Unit.obj
 0002:0002a380       ??$_Allocate@U?$_Tree_node@U?$pair@$$CBEV?$map@EFU?$less@E@std@@V?$allocator@U?$pair@$$CBEF@std@@@2@@std@@@std@@PAX@std@@@std@@YAPAU?$_Tree_node@U?$pair@$$CBEV?$map@EFU?$less@E@std@@V?$allocator@U?$pair@$$CBEF@std@@@2@@std@@@std@@PAX@0@IPAU10@@Z 00581380 f i Unit.obj
 0002:0002a410       ??$_Buynode@AAU?$pair@$$CBEU_BUFF_TYPE4_INFO@@@std@@@?$_Tree_buy@U?$pair@$$CBEU_BUFF_TYPE4_INFO@@@std@@V?$allocator@U?$pair@$$CBEU_BUFF_TYPE4_INFO@@@std@@@2@@std@@QAEPAU?$_Tree_node@U?$pair@$$CBEU_BUFF_TYPE4_INFO@@@std@@PAX@1@AAU?$pair@$$CBEU_BUFF_TYPE4_INFO@@@1@@Z 00581410 f i Unit.obj
 0002:0002a580       ??$_Buynode@U?$pair@EU_BUFF_TYPE4_INFO@@@std@@@?$_Tree_buy@U?$pair@$$CBEU_BUFF_TYPE4_INFO@@@std@@V?$allocator@U?$pair@$$CBEU_BUFF_TYPE4_INFO@@@std@@@2@@std@@QAEPAU?$_Tree_node@U?$pair@$$CBEU_BUFF_TYPE4_INFO@@@std@@PAX@1@$$QAU?$pair@EU_BUFF_TYPE4_INFO@@@1@@Z 00581580 f i Unit.obj
 0002:0002a6f0       ??$_Buynode_if_nil@AAU?$pair@$$CBEU_BUFF_TYPE4_INFO@@@std@@@?$_Tree@V?$_Tmap_traits@EU_BUFF_TYPE4_INFO@@U?$less@E@std@@V?$allocator@U?$pair@$$CBEU_BUFF_TYPE4_INFO@@@std@@@3@$0A@@std@@@std@@IAEPAU?$_Tree_node@U?$pair@$$CBEU_BUFF_TYPE4_INFO@@@std@@PAX@1@PAU21@AAU?$pair@$$CBEU_BUFF_TYPE4_INFO@@@1@@Z 005816f0 f i Unit.obj
 0002:0002a730       ??$_Copy@U?$integral_constant@_N$0A@@std@@@?$_Tree@V?$_Tmap_traits@EU_BUFF_TYPE4_INFO@@U?$less@E@std@@V?$allocator@U?$pair@$$CBEU_BUFF_TYPE4_INFO@@@std@@@3@$0A@@std@@@std@@IAEXABV01@U?$integral_constant@_N$0A@@1@@Z 00581730 f i Unit.obj
 0002:0002a860       ??$_Copy_nodes@U?$integral_constant@_N$0A@@std@@@?$_Tree@V?$_Tmap_traits@EU_BUFF_TYPE4_INFO@@U?$less@E@std@@V?$allocator@U?$pair@$$CBEU_BUFF_TYPE4_INFO@@@std@@@3@$0A@@std@@@std@@IAEPAU?$_Tree_node@U?$pair@$$CBEU_BUFF_TYPE4_INFO@@@std@@PAX@1@PAU21@0U?$integral_constant@_N$0A@@1@@Z 00581860 f i Unit.obj
 0002:0002aa90       ??$_Copy_or_move@U?$integral_constant@_N$0A@@std@@U?$integral_constant@_N$00@2@@?$_Tree@V?$_Tmap_traits@EU_BUFF_TYPE4_INFO@@U?$less@E@std@@V?$allocator@U?$pair@$$CBEU_BUFF_TYPE4_INFO@@@std@@@3@$0A@@std@@@std@@IAEPAU?$_Tree_node@U?$pair@$$CBEU_BUFF_TYPE4_INFO@@@std@@PAX@1@PAU21@U?$integral_constant@_N$0A@@1@U?$integral_constant@_N$00@1@@Z 00581a90 f i Unit.obj
 0002:0002ab00       ??$_Insert_at@AAU?$pair@$$CBEU_BUFF_TYPE4_INFO@@@std@@PAU?$_Tree_node@U?$pair@$$CBEU_BUFF_TYPE4_INFO@@@std@@PAX@2@@?$_Tree@V?$_Tmap_traits@EU_BUFF_TYPE4_INFO@@U?$less@E@std@@V?$allocator@U?$pair@$$CBEU_BUFF_TYPE4_INFO@@@std@@@3@$0A@@std@@@std@@IAE?AV?$_Tree_iterator@V?$_Tree_val@U?$_Tree_simple_types@U?$pair@$$CBEU_BUFF_TYPE4_INFO@@@std@@@std@@@std@@@1@_NPAU?$_Tree_node@U?$pair@$$CBEU_BUFF_TYPE4_INFO@@@std@@PAX@1@AAU?$pair@$$CBEU_BUFF_TYPE4_INFO@@@1@1@Z 00581b00 f i Unit.obj
 0002:0002b080       ??$_Insert_nohint@AAU?$pair@$$CBEU_BUFF_TYPE4_INFO@@@std@@PAU?$_Tree_node@U?$pair@$$CBEU_BUFF_TYPE4_INFO@@@std@@PAX@2@@?$_Tree@V?$_Tmap_traits@EU_BUFF_TYPE4_INFO@@U?$less@E@std@@V?$allocator@U?$pair@$$CBEU_BUFF_TYPE4_INFO@@@std@@@3@$0A@@std@@@std@@IAE?AU?$pair@V?$_Tree_iterator@V?$_Tree_val@U?$_Tree_simple_types@U?$pair@$$CBEU_BUFF_TYPE4_INFO@@@std@@@std@@@std@@@std@@_N@1@_NAAU?$pair@$$CBEU_BUFF_TYPE4_INFO@@@1@PAU?$_Tree_node@U?$pair@$$CBEU_BUFF_TYPE4_INFO@@@std@@PAX@1@@Z 00582080 f i Unit.obj
 0002:0002b8f0       ??$_Kfn@$$CBIPAU_MAGIC_TYPE1@@@?$_Tmap_traits@IPAU_MAGIC_TYPE1@@U?$less@I@std@@V?$allocator@U?$pair@$$CBIPAU_MAGIC_TYPE1@@@std@@@3@$0A@@std@@SAABIABU?$pair@$$CBIPAU_MAGIC_TYPE1@@@1@@Z 005828f0 f i Unit.obj
 0002:0002b930       ??$_Kfn@$$CBIPAU_MAGIC_TYPE2@@@?$_Tmap_traits@IPAU_MAGIC_TYPE2@@U?$less@I@std@@V?$allocator@U?$pair@$$CBIPAU_MAGIC_TYPE2@@@std@@@3@$0A@@std@@SAABIABU?$pair@$$CBIPAU_MAGIC_TYPE2@@@1@@Z 00582930 f i Unit.obj
 0002:0002b970       ??$addressof@PAU?$_Tree_node@U?$pair@$$CBEF@std@@PAX@std@@@std@@YAPAPAU?$_Tree_node@U?$pair@$$CBEF@std@@PAX@0@AAPAU10@@Z 00582970 f i Unit.obj
 0002:0002b9b0       ??$addressof@PAU?$_Tree_node@U?$pair@$$CBEU_BUFF_TYPE4_INFO@@@std@@PAX@std@@@std@@YAPAPAU?$_Tree_node@U?$pair@$$CBEU_BUFF_TYPE4_INFO@@@std@@PAX@0@AAPAU10@@Z 005829b0 f i Unit.obj
 0002:0002b9f0       ??$addressof@PAU?$_Tree_node@U?$pair@$$CBEU_BUFF_TYPE9_INFO@@@std@@PAX@std@@@std@@YAPAPAU?$_Tree_node@U?$pair@$$CBEU_BUFF_TYPE9_INFO@@@std@@PAX@0@AAPAU10@@Z 005829f0 f i Unit.obj
 0002:0002ba30       ??$addressof@PAU?$_Tree_node@U?$pair@$$CBEV?$map@EFU?$less@E@std@@V?$allocator@U?$pair@$$CBEF@std@@@2@@std@@@std@@PAX@std@@@std@@YAPAPAU?$_Tree_node@U?$pair@$$CBEV?$map@EFU?$less@E@std@@V?$allocator@U?$pair@$$CBEF@std@@@2@@std@@@std@@PAX@0@AAPAU10@@Z 00582a30 f i Unit.obj
 0002:0002ba70       ??$addressof@U?$pair@$$CBEF@std@@@std@@YAPAU?$pair@$$CBEF@0@AAU10@@Z 00582a70 f i Unit.obj
 0002:0002bab0       ??$addressof@U?$pair@$$CBEU_BUFF_TYPE9_INFO@@@std@@@std@@YAPAU?$pair@$$CBEU_BUFF_TYPE9_INFO@@@0@AAU10@@Z 00582ab0 f i Unit.obj
 0002:0002baf0       ??$addressof@U?$pair@$$CBEV?$map@EFU?$less@E@std@@V?$allocator@U?$pair@$$CBEF@std@@@2@@std@@@std@@@std@@YAPAU?$pair@$$CBEV?$map@EFU?$less@E@std@@V?$allocator@U?$pair@$$CBEF@std@@@2@@std@@@0@AAU10@@Z 00582af0 f i Unit.obj
 0002:0002bb30       ??$addressof@U?$pair@$$CBIPAU_MAGIC_TYPE1@@@std@@@std@@YAPAU?$pair@$$CBIPAU_MAGIC_TYPE1@@@0@AAU10@@Z 00582b30 f i Unit.obj
 0002:0002bb70       ??$addressof@U?$pair@$$CBIPAU_MAGIC_TYPE2@@@std@@@std@@YAPAU?$pair@$$CBIPAU_MAGIC_TYPE2@@@0@AAU10@@Z 00582b70 f i Unit.obj
 0002:0002bbb0       ??$append@F@ByteBuffer@@QAEXF@Z 00582bb0 f i Unit.obj
 0002:0002bc10       ??$append@G@ByteBuffer@@QAEXG@Z 00582c10 f i Unit.obj
 0002:0002bc70       ??$construct@PAU?$_Tree_node@U?$pair@$$CBEU_BUFF_TYPE4_INFO@@@std@@PAX@std@@AAPAU12@@?$_Wrap_alloc@V?$allocator@U?$_Tree_node@U?$pair@$$CBEU_BUFF_TYPE4_INFO@@@std@@PAX@std@@@std@@@std@@QAEXPAPAU?$_Tree_node@U?$pair@$$CBEU_BUFF_TYPE4_INFO@@@std@@PAX@1@AAPAU21@@Z 00582c70 f i Unit.obj
 0002:0002bce0       ??$construct@PAU?$_Tree_node@U?$pair@$$CBEU_BUFF_TYPE4_INFO@@@std@@PAX@std@@AAPAU12@@?$allocator@U?$_Tree_node@U?$pair@$$CBEU_BUFF_TYPE4_INFO@@@std@@PAX@std@@@std@@QAEXPAPAU?$_Tree_node@U?$pair@$$CBEU_BUFF_TYPE4_INFO@@@std@@PAX@1@AAPAU21@@Z 00582ce0 f i Unit.obj
 0002:0002bde0       ??$construct@PAU?$_Tree_node@U?$pair@$$CBEU_BUFF_TYPE4_INFO@@@std@@PAX@std@@AAPAU12@@?$allocator_traits@V?$allocator@U?$_Tree_node@U?$pair@$$CBEU_BUFF_TYPE4_INFO@@@std@@PAX@std@@@std@@@std@@SAXAAV?$allocator@U?$_Tree_node@U?$pair@$$CBEU_BUFF_TYPE4_INFO@@@std@@PAX@std@@@1@PAPAU?$_Tree_node@U?$pair@$$CBEU_BUFF_TYPE4_INFO@@@std@@PAX@1@AAPAU31@@Z 00582de0 f i Unit.obj
 0002:0002be40       ??$construct@PAU?$_Tree_node@U?$pair@$$CBEU_BUFF_TYPE9_INFO@@@std@@PAX@std@@AAPAU12@@?$_Wrap_alloc@V?$allocator@U?$_Tree_node@U?$pair@$$CBEU_BUFF_TYPE9_INFO@@@std@@PAX@std@@@std@@@std@@QAEXPAPAU?$_Tree_node@U?$pair@$$CBEU_BUFF_TYPE9_INFO@@@std@@PAX@1@AAPAU21@@Z 00582e40 f i Unit.obj
 0002:0002beb0       ??$construct@PAU?$_Tree_node@U?$pair@$$CBEU_BUFF_TYPE9_INFO@@@std@@PAX@std@@AAPAU12@@?$allocator@U?$_Tree_node@U?$pair@$$CBEU_BUFF_TYPE9_INFO@@@std@@PAX@std@@@std@@QAEXPAPAU?$_Tree_node@U?$pair@$$CBEU_BUFF_TYPE9_INFO@@@std@@PAX@1@AAPAU21@@Z 00582eb0 f i Unit.obj
 0002:0002bfb0       ??$construct@PAU?$_Tree_node@U?$pair@$$CBEU_BUFF_TYPE9_INFO@@@std@@PAX@std@@AAPAU12@@?$allocator_traits@V?$allocator@U?$_Tree_node@U?$pair@$$CBEU_BUFF_TYPE9_INFO@@@std@@PAX@std@@@std@@@std@@SAXAAV?$allocator@U?$_Tree_node@U?$pair@$$CBEU_BUFF_TYPE9_INFO@@@std@@PAX@std@@@1@PAPAU?$_Tree_node@U?$pair@$$CBEU_BUFF_TYPE9_INFO@@@std@@PAX@1@AAPAU31@@Z 00582fb0 f i Unit.obj
 0002:0002c010       ??$construct@PAU?$_Tree_node@U?$pair@$$CBEV?$map@EFU?$less@E@std@@V?$allocator@U?$pair@$$CBEF@std@@@2@@std@@@std@@PAX@std@@AAPAU12@@?$_Wrap_alloc@V?$allocator@U?$_Tree_node@U?$pair@$$CBEV?$map@EFU?$less@E@std@@V?$allocator@U?$pair@$$CBEF@std@@@2@@std@@@std@@PAX@std@@@std@@@std@@QAEXPAPAU?$_Tree_node@U?$pair@$$CBEV?$map@EFU?$less@E@std@@V?$allocator@U?$pair@$$CBEF@std@@@2@@std@@@std@@PAX@1@AAPAU21@@Z 00583010 f i Unit.obj
 0002:0002c080       ??$construct@PAU?$_Tree_node@U?$pair@$$CBEV?$map@EFU?$less@E@std@@V?$allocator@U?$pair@$$CBEF@std@@@2@@std@@@std@@PAX@std@@AAPAU12@@?$allocator@U?$_Tree_node@U?$pair@$$CBEV?$map@EFU?$less@E@std@@V?$allocator@U?$pair@$$CBEF@std@@@2@@std@@@std@@PAX@std@@@std@@QAEXPAPAU?$_Tree_node@U?$pair@$$CBEV?$map@EFU?$less@E@std@@V?$allocator@U?$pair@$$CBEF@std@@@2@@std@@@std@@PAX@1@AAPAU21@@Z 00583080 f i Unit.obj
 0002:0002c180       ??$construct@PAU?$_Tree_node@U?$pair@$$CBEV?$map@EFU?$less@E@std@@V?$allocator@U?$pair@$$CBEF@std@@@2@@std@@@std@@PAX@std@@AAPAU12@@?$allocator_traits@V?$allocator@U?$_Tree_node@U?$pair@$$CBEV?$map@EFU?$less@E@std@@V?$allocator@U?$pair@$$CBEF@std@@@2@@std@@@std@@PAX@std@@@std@@@std@@SAXAAV?$allocator@U?$_Tree_node@U?$pair@$$CBEV?$map@EFU?$less@E@std@@V?$allocator@U?$pair@$$CBEF@std@@@2@@std@@@std@@PAX@std@@@1@PAPAU?$_Tree_node@U?$pair@$$CBEV?$map@EFU?$less@E@std@@V?$allocator@U?$pair@$$CBEF@std@@@2@@std@@@std@@PAX@1@AAPAU31@@Z 00583180 f i Unit.obj
 0002:0002c1e0       ??$construct@U?$pair@$$CBEU_BUFF_TYPE4_INFO@@@std@@AAU12@@?$_Wrap_alloc@V?$allocator@U?$_Tree_node@U?$pair@$$CBEU_BUFF_TYPE4_INFO@@@std@@PAX@std@@@std@@@std@@QAEXPAU?$pair@$$CBEU_BUFF_TYPE4_INFO@@@1@AAU21@@Z 005831e0 f i Unit.obj
 0002:0002c250       ??$construct@U?$pair@$$CBEU_BUFF_TYPE4_INFO@@@std@@AAU12@@?$allocator@U?$_Tree_node@U?$pair@$$CBEU_BUFF_TYPE4_INFO@@@std@@PAX@std@@@std@@QAEXPAU?$pair@$$CBEU_BUFF_TYPE4_INFO@@@1@AAU21@@Z 00583250 f i Unit.obj
 0002:0002c370       ??$construct@U?$pair@$$CBEU_BUFF_TYPE4_INFO@@@std@@AAU12@@?$allocator_traits@V?$allocator@U?$_Tree_node@U?$pair@$$CBEU_BUFF_TYPE4_INFO@@@std@@PAX@std@@@std@@@std@@SAXAAV?$allocator@U?$_Tree_node@U?$pair@$$CBEU_BUFF_TYPE4_INFO@@@std@@PAX@std@@@1@PAU?$pair@$$CBEU_BUFF_TYPE4_INFO@@@1@AAU31@@Z 00583370 f i Unit.obj
 0002:0002c3d0       ??$construct@U?$pair@$$CBEU_BUFF_TYPE4_INFO@@@std@@U?$pair@EU_BUFF_TYPE4_INFO@@@2@@?$_Wrap_alloc@V?$allocator@U?$_Tree_node@U?$pair@$$CBEU_BUFF_TYPE4_INFO@@@std@@PAX@std@@@std@@@std@@QAEXPAU?$pair@$$CBEU_BUFF_TYPE4_INFO@@@1@$$QAU?$pair@EU_BUFF_TYPE4_INFO@@@1@@Z 005833d0 f i Unit.obj
 0002:0002c440       ??$construct@U?$pair@$$CBEU_BUFF_TYPE4_INFO@@@std@@U?$pair@EU_BUFF_TYPE4_INFO@@@2@@?$allocator@U?$_Tree_node@U?$pair@$$CBEU_BUFF_TYPE4_INFO@@@std@@PAX@std@@@std@@QAEXPAU?$pair@$$CBEU_BUFF_TYPE4_INFO@@@1@$$QAU?$pair@EU_BUFF_TYPE4_INFO@@@1@@Z 00583440 f i Unit.obj
 0002:0002c540       ??$construct@U?$pair@$$CBEU_BUFF_TYPE4_INFO@@@std@@U?$pair@EU_BUFF_TYPE4_INFO@@@2@@?$allocator_traits@V?$allocator@U?$_Tree_node@U?$pair@$$CBEU_BUFF_TYPE4_INFO@@@std@@PAX@std@@@std@@@std@@SAXAAV?$allocator@U?$_Tree_node@U?$pair@$$CBEU_BUFF_TYPE4_INFO@@@std@@PAX@std@@@1@PAU?$pair@$$CBEU_BUFF_TYPE4_INFO@@@1@$$QAU?$pair@EU_BUFF_TYPE4_INFO@@@1@@Z 00583540 f i Unit.obj
 0002:0002c5a0       ??$construct@U_Container_proxy@std@@U12@@?$_Wrap_alloc@V?$allocator@U_Container_proxy@std@@@std@@@std@@QAEXPAU_Container_proxy@1@$$QAU21@@Z 005835a0 f i Unit.obj
 0002:0002c610       ??$construct@U_Container_proxy@std@@U12@@?$allocator_traits@V?$allocator@U_Container_proxy@std@@@std@@@std@@SAXAAV?$allocator@U_Container_proxy@std@@@1@PAU_Container_proxy@1@$$QAU31@@Z 00583610 f i Unit.obj
 0002:0002c670       ??$destroy@PAU?$_Tree_node@U?$pair@$$CBEF@std@@PAX@std@@@?$_Wrap_alloc@V?$allocator@U?$_Tree_node@U?$pair@$$CBEF@std@@PAX@std@@@std@@@std@@QAEXPAPAU?$_Tree_node@U?$pair@$$CBEF@std@@PAX@1@@Z 00583670 f i Unit.obj
 0002:0002c6d0       ??$destroy@PAU?$_Tree_node@U?$pair@$$CBEF@std@@PAX@std@@@?$allocator@U?$_Tree_node@U?$pair@$$CBEF@std@@PAX@std@@@std@@QAEXPAPAU?$_Tree_node@U?$pair@$$CBEF@std@@PAX@1@@Z 005836d0 f i Unit.obj
 0002:0002c710       ??$destroy@PAU?$_Tree_node@U?$pair@$$CBEF@std@@PAX@std@@@?$allocator_traits@V?$allocator@U?$_Tree_node@U?$pair@$$CBEF@std@@PAX@std@@@std@@@std@@SAXAAV?$allocator@U?$_Tree_node@U?$pair@$$CBEF@std@@PAX@std@@@1@PAPAU?$_Tree_node@U?$pair@$$CBEF@std@@PAX@1@@Z 00583710 f i Unit.obj
 0002:0002c760       ??$destroy@PAU?$_Tree_node@U?$pair@$$CBEU_BUFF_TYPE4_INFO@@@std@@PAX@std@@@?$_Wrap_alloc@V?$allocator@U?$_Tree_node@U?$pair@$$CBEU_BUFF_TYPE4_INFO@@@std@@PAX@std@@@std@@@std@@QAEXPAPAU?$_Tree_node@U?$pair@$$CBEU_BUFF_TYPE4_INFO@@@std@@PAX@1@@Z 00583760 f i Unit.obj
 0002:0002c7c0       ??$destroy@PAU?$_Tree_node@U?$pair@$$CBEU_BUFF_TYPE4_INFO@@@std@@PAX@std@@@?$allocator@U?$_Tree_node@U?$pair@$$CBEU_BUFF_TYPE4_INFO@@@std@@PAX@std@@@std@@QAEXPAPAU?$_Tree_node@U?$pair@$$CBEU_BUFF_TYPE4_INFO@@@std@@PAX@1@@Z 005837c0 f i Unit.obj
 0002:0002c800       ??$destroy@PAU?$_Tree_node@U?$pair@$$CBEU_BUFF_TYPE4_INFO@@@std@@PAX@std@@@?$allocator_traits@V?$allocator@U?$_Tree_node@U?$pair@$$CBEU_BUFF_TYPE4_INFO@@@std@@PAX@std@@@std@@@std@@SAXAAV?$allocator@U?$_Tree_node@U?$pair@$$CBEU_BUFF_TYPE4_INFO@@@std@@PAX@std@@@1@PAPAU?$_Tree_node@U?$pair@$$CBEU_BUFF_TYPE4_INFO@@@std@@PAX@1@@Z 00583800 f i Unit.obj
 0002:0002c850       ??$destroy@PAU?$_Tree_node@U?$pair@$$CBEU_BUFF_TYPE9_INFO@@@std@@PAX@std@@@?$_Wrap_alloc@V?$allocator@U?$_Tree_node@U?$pair@$$CBEU_BUFF_TYPE9_INFO@@@std@@PAX@std@@@std@@@std@@QAEXPAPAU?$_Tree_node@U?$pair@$$CBEU_BUFF_TYPE9_INFO@@@std@@PAX@1@@Z 00583850 f i Unit.obj
 0002:0002c8b0       ??$destroy@PAU?$_Tree_node@U?$pair@$$CBEU_BUFF_TYPE9_INFO@@@std@@PAX@std@@@?$allocator@U?$_Tree_node@U?$pair@$$CBEU_BUFF_TYPE9_INFO@@@std@@PAX@std@@@std@@QAEXPAPAU?$_Tree_node@U?$pair@$$CBEU_BUFF_TYPE9_INFO@@@std@@PAX@1@@Z 005838b0 f i Unit.obj
 0002:0002c8f0       ??$destroy@PAU?$_Tree_node@U?$pair@$$CBEU_BUFF_TYPE9_INFO@@@std@@PAX@std@@@?$allocator_traits@V?$allocator@U?$_Tree_node@U?$pair@$$CBEU_BUFF_TYPE9_INFO@@@std@@PAX@std@@@std@@@std@@SAXAAV?$allocator@U?$_Tree_node@U?$pair@$$CBEU_BUFF_TYPE9_INFO@@@std@@PAX@std@@@1@PAPAU?$_Tree_node@U?$pair@$$CBEU_BUFF_TYPE9_INFO@@@std@@PAX@1@@Z 005838f0 f i Unit.obj
 0002:0002c940       ??$destroy@PAU?$_Tree_node@U?$pair@$$CBEV?$map@EFU?$less@E@std@@V?$allocator@U?$pair@$$CBEF@std@@@2@@std@@@std@@PAX@std@@@?$_Wrap_alloc@V?$allocator@U?$_Tree_node@U?$pair@$$CBEV?$map@EFU?$less@E@std@@V?$allocator@U?$pair@$$CBEF@std@@@2@@std@@@std@@PAX@std@@@std@@@std@@QAEXPAPAU?$_Tree_node@U?$pair@$$CBEV?$map@EFU?$less@E@std@@V?$allocator@U?$pair@$$CBEF@std@@@2@@std@@@std@@PAX@1@@Z 00583940 f i Unit.obj
 0002:0002c9a0       ??$destroy@PAU?$_Tree_node@U?$pair@$$CBEV?$map@EFU?$less@E@std@@V?$allocator@U?$pair@$$CBEF@std@@@2@@std@@@std@@PAX@std@@@?$allocator@U?$_Tree_node@U?$pair@$$CBEV?$map@EFU?$less@E@std@@V?$allocator@U?$pair@$$CBEF@std@@@2@@std@@@std@@PAX@std@@@std@@QAEXPAPAU?$_Tree_node@U?$pair@$$CBEV?$map@EFU?$less@E@std@@V?$allocator@U?$pair@$$CBEF@std@@@2@@std@@@std@@PAX@1@@Z 005839a0 f i Unit.obj
 0002:0002c9e0       ??$destroy@PAU?$_Tree_node@U?$pair@$$CBEV?$map@EFU?$less@E@std@@V?$allocator@U?$pair@$$CBEF@std@@@2@@std@@@std@@PAX@std@@@?$allocator_traits@V?$allocator@U?$_Tree_node@U?$pair@$$CBEV?$map@EFU?$less@E@std@@V?$allocator@U?$pair@$$CBEF@std@@@2@@std@@@std@@PAX@std@@@std@@@std@@SAXAAV?$allocator@U?$_Tree_node@U?$pair@$$CBEV?$map@EFU?$less@E@std@@V?$allocator@U?$pair@$$CBEF@std@@@2@@std@@@std@@PAX@std@@@1@PAPAU?$_Tree_node@U?$pair@$$CBEV?$map@EFU?$less@E@std@@V?$allocator@U?$pair@$$CBEF@std@@@2@@std@@@std@@PAX@1@@Z 005839e0 f i Unit.obj
 0002:0002ca30       ??$destroy@U?$pair@$$CBEF@std@@@?$_Wrap_alloc@V?$allocator@U?$_Tree_node@U?$pair@$$CBEF@std@@PAX@std@@@std@@@std@@QAEXPAU?$pair@$$CBEF@1@@Z 00583a30 f i Unit.obj
 0002:0002ca90       ??$destroy@U?$pair@$$CBEF@std@@@?$allocator@U?$_Tree_node@U?$pair@$$CBEF@std@@PAX@std@@@std@@QAEXPAU?$pair@$$CBEF@1@@Z 00583a90 f i Unit.obj
 0002:0002cad0       ??$destroy@U?$pair@$$CBEF@std@@@?$allocator_traits@V?$allocator@U?$_Tree_node@U?$pair@$$CBEF@std@@PAX@std@@@std@@@std@@SAXAAV?$allocator@U?$_Tree_node@U?$pair@$$CBEF@std@@PAX@std@@@1@PAU?$pair@$$CBEF@1@@Z 00583ad0 f i Unit.obj
 0002:0002cb20       ??$destroy@U?$pair@$$CBEU_BUFF_TYPE9_INFO@@@std@@@?$_Wrap_alloc@V?$allocator@U?$_Tree_node@U?$pair@$$CBEU_BUFF_TYPE9_INFO@@@std@@PAX@std@@@std@@@std@@QAEXPAU?$pair@$$CBEU_BUFF_TYPE9_INFO@@@1@@Z 00583b20 f i Unit.obj
 0002:0002cb80       ??$destroy@U?$pair@$$CBEU_BUFF_TYPE9_INFO@@@std@@@?$allocator@U?$_Tree_node@U?$pair@$$CBEU_BUFF_TYPE9_INFO@@@std@@PAX@std@@@std@@QAEXPAU?$pair@$$CBEU_BUFF_TYPE9_INFO@@@1@@Z 00583b80 f i Unit.obj
 0002:0002cbc0       ??$destroy@U?$pair@$$CBEU_BUFF_TYPE9_INFO@@@std@@@?$allocator_traits@V?$allocator@U?$_Tree_node@U?$pair@$$CBEU_BUFF_TYPE9_INFO@@@std@@PAX@std@@@std@@@std@@SAXAAV?$allocator@U?$_Tree_node@U?$pair@$$CBEU_BUFF_TYPE9_INFO@@@std@@PAX@std@@@1@PAU?$pair@$$CBEU_BUFF_TYPE9_INFO@@@1@@Z 00583bc0 f i Unit.obj
 0002:0002cc10       ??$destroy@U?$pair@$$CBEV?$map@EFU?$less@E@std@@V?$allocator@U?$pair@$$CBEF@std@@@2@@std@@@std@@@?$_Wrap_alloc@V?$allocator@U?$_Tree_node@U?$pair@$$CBEV?$map@EFU?$less@E@std@@V?$allocator@U?$pair@$$CBEF@std@@@2@@std@@@std@@PAX@std@@@std@@@std@@QAEXPAU?$pair@$$CBEV?$map@EFU?$less@E@std@@V?$allocator@U?$pair@$$CBEF@std@@@2@@std@@@1@@Z 00583c10 f i Unit.obj
 0002:0002cc70       ??$destroy@U?$pair@$$CBEV?$map@EFU?$less@E@std@@V?$allocator@U?$pair@$$CBEF@std@@@2@@std@@@std@@@?$allocator@U?$_Tree_node@U?$pair@$$CBEV?$map@EFU?$less@E@std@@V?$allocator@U?$pair@$$CBEF@std@@@2@@std@@@std@@PAX@std@@@std@@QAEXPAU?$pair@$$CBEV?$map@EFU?$less@E@std@@V?$allocator@U?$pair@$$CBEF@std@@@2@@std@@@1@@Z 00583c70 f i Unit.obj
 0002:0002ccd0       ??$destroy@U?$pair@$$CBEV?$map@EFU?$less@E@std@@V?$allocator@U?$pair@$$CBEF@std@@@2@@std@@@std@@@?$allocator_traits@V?$allocator@U?$_Tree_node@U?$pair@$$CBEV?$map@EFU?$less@E@std@@V?$allocator@U?$pair@$$CBEF@std@@@2@@std@@@std@@PAX@std@@@std@@@std@@SAXAAV?$allocator@U?$_Tree_node@U?$pair@$$CBEV?$map@EFU?$less@E@std@@V?$allocator@U?$pair@$$CBEF@std@@@2@@std@@@std@@PAX@std@@@1@PAU?$pair@$$CBEV?$map@EFU?$less@E@std@@V?$allocator@U?$pair@$$CBEF@std@@@2@@std@@@1@@Z 00583cd0 f i Unit.obj
 0002:0002cd20       ??$destroy@U_Container_proxy@std@@@?$_Wrap_alloc@V?$allocator@U_Container_proxy@std@@@std@@@std@@QAEXPAU_Container_proxy@1@@Z 00583d20 f i Unit.obj
 0002:0002cd80       ??$destroy@U_Container_proxy@std@@@?$allocator_traits@V?$allocator@U_Container_proxy@std@@@std@@@std@@SAXAAV?$allocator@U_Container_proxy@std@@@1@PAU_Container_proxy@1@@Z 00583d80 f i Unit.obj
 0002:0002cdd0       ??$forward@AAE@std@@YAAAEAAE@Z 00583dd0 f i Unit.obj
 0002:0002ce10       ??$forward@AAPAU?$_Tree_node@U?$pair@$$CBEU_BUFF_TYPE4_INFO@@@std@@PAX@std@@@std@@YAAAPAU?$_Tree_node@U?$pair@$$CBEU_BUFF_TYPE4_INFO@@@std@@PAX@0@AAPAU10@@Z 00583e10 f i Unit.obj
 0002:0002ce50       ??$forward@AAPAU?$_Tree_node@U?$pair@$$CBEU_BUFF_TYPE9_INFO@@@std@@PAX@std@@@std@@YAAAPAU?$_Tree_node@U?$pair@$$CBEU_BUFF_TYPE9_INFO@@@std@@PAX@0@AAPAU10@@Z 00583e50 f i Unit.obj
 0002:0002ce90       ??$forward@AAPAU?$_Tree_node@U?$pair@$$CBEV?$map@EFU?$less@E@std@@V?$allocator@U?$pair@$$CBEF@std@@@2@@std@@@std@@PAX@std@@@std@@YAAAPAU?$_Tree_node@U?$pair@$$CBEV?$map@EFU?$less@E@std@@V?$allocator@U?$pair@$$CBEF@std@@@2@@std@@@std@@PAX@0@AAPAU10@@Z 00583e90 f i Unit.obj
 0002:0002ced0       ??$forward@AAU?$pair@$$CBEU_BUFF_TYPE4_INFO@@@std@@@std@@YAAAU?$pair@$$CBEU_BUFF_TYPE4_INFO@@@0@AAU10@@Z 00583ed0 f i Unit.obj
 0002:0002cf10       ??$forward@AAU_BUFF_TYPE4_INFO@@@std@@YAAAU_BUFF_TYPE4_INFO@@AAU1@@Z 00583f10 f i Unit.obj
 0002:0002cf50       ??$forward@AAV?$_Tree_iterator@V?$_Tree_val@U?$_Tree_simple_types@U?$pair@$$CBEU_BUFF_TYPE4_INFO@@@std@@@std@@@std@@@std@@@std@@YAAAV?$_Tree_iterator@V?$_Tree_val@U?$_Tree_simple_types@U?$pair@$$CBEU_BUFF_TYPE4_INFO@@@std@@@std@@@std@@@0@AAV10@@Z 00583f50 f i Unit.obj
 0002:0002cf90       ??$forward@E@std@@YA$$QAEAAE@Z 00583f90 f i Unit.obj
 0002:0002cfd0       ??$forward@U?$pair@EU_BUFF_TYPE4_INFO@@@std@@@std@@YA$$QAU?$pair@EU_BUFF_TYPE4_INFO@@@0@AAU10@@Z 00583fd0 f i Unit.obj
 0002:0002d010       ??$forward@U_BUFF_TYPE4_INFO@@@std@@YA$$QAU_BUFF_TYPE4_INFO@@AAU1@@Z 00584010 f i Unit.obj
 0002:0002d050       ??$forward@V?$_Tree_iterator@V?$_Tree_val@U?$_Tree_simple_types@U?$pair@$$CBEU_BUFF_TYPE4_INFO@@@std@@@std@@@std@@@std@@@std@@YA$$QAV?$_Tree_iterator@V?$_Tree_val@U?$_Tree_simple_types@U?$pair@$$CBEU_BUFF_TYPE4_INFO@@@std@@@std@@@std@@@0@AAV10@@Z 00584050 f i Unit.obj
 0002:0002d090       ??$forward@_N@std@@YA$$QA_NAA_N@Z 00584090 f i Unit.obj
 0002:0002d0d0       ??$insert@U?$pair@EU_BUFF_TYPE4_INFO@@@std@@@?$_Tree@V?$_Tmap_traits@EU_BUFF_TYPE4_INFO@@U?$less@E@std@@V?$allocator@U?$pair@$$CBEU_BUFF_TYPE4_INFO@@@std@@@3@$0A@@std@@@std@@QAE?AU?$pair@V?$_Tree_iterator@V?$_Tree_val@U?$_Tree_simple_types@U?$pair@$$CBEU_BUFF_TYPE4_INFO@@@std@@@std@@@std@@@std@@_N@1@$$QAU?$pair@EU_BUFF_TYPE4_INFO@@@1@@Z 005840d0 f i Unit.obj
 0002:0002d210       ??$make_pair@AAEAAU_BUFF_TYPE4_INFO@@@std@@YA?AU?$pair@EU_BUFF_TYPE4_INFO@@@0@AAEAAU_BUFF_TYPE4_INFO@@@Z 00584210 f i Unit.obj
 0002:0002d290       ??0?$_Iterator012@Ubidirectional_iterator_tag@std@@U?$pair@$$CBEF@2@HPBU32@ABU32@U_Iterator_base12@2@@std@@QAE@ABU01@@Z 00584290 f i Unit.obj
 0002:0002d2f0       ??0?$_Iterator012@Ubidirectional_iterator_tag@std@@U?$pair@$$CBEF@2@HPBU32@ABU32@U_Iterator_base12@2@@std@@QAE@XZ 005842f0 f i Unit.obj
 0002:0002d350       ??0?$_Iterator012@Ubidirectional_iterator_tag@std@@U?$pair@$$CBEU_BUFF_TYPE9_INFO@@@2@HPBU32@ABU32@U_Iterator_base12@2@@std@@QAE@ABU01@@Z 00584350 f i Unit.obj
 0002:0002d3b0       ??0?$_Iterator012@Ubidirectional_iterator_tag@std@@U?$pair@$$CBEU_BUFF_TYPE9_INFO@@@2@HPBU32@ABU32@U_Iterator_base12@2@@std@@QAE@XZ 005843b0 f i Unit.obj
 0002:0002d410       ??0?$_Iterator012@Ubidirectional_iterator_tag@std@@U?$pair@$$CBEV?$map@EFU?$less@E@std@@V?$allocator@U?$pair@$$CBEF@std@@@2@@std@@@2@HPBU32@ABU32@U_Iterator_base12@2@@std@@QAE@ABU01@@Z 00584410 f i Unit.obj
 0002:0002d470       ??0?$_Iterator012@Ubidirectional_iterator_tag@std@@U?$pair@$$CBEV?$map@EFU?$less@E@std@@V?$allocator@U?$pair@$$CBEF@std@@@2@@std@@@2@HPBU32@ABU32@U_Iterator_base12@2@@std@@QAE@XZ 00584470 f i Unit.obj
 0002:0002d4d0       ??0?$_Iterator012@Ubidirectional_iterator_tag@std@@U?$pair@$$CBIPAU_MAGIC_TYPE1@@@2@HPBU32@ABU32@U_Iterator_base12@2@@std@@QAE@ABU01@@Z 005844d0 f i Unit.obj
 0002:0002d530       ??0?$_Iterator012@Ubidirectional_iterator_tag@std@@U?$pair@$$CBIPAU_MAGIC_TYPE1@@@2@HPBU32@ABU32@U_Iterator_base12@2@@std@@QAE@XZ 00584530 f i Unit.obj
 0002:0002d590       ??0?$_Iterator012@Ubidirectional_iterator_tag@std@@U?$pair@$$CBIPAU_MAGIC_TYPE2@@@2@HPBU32@ABU32@U_Iterator_base12@2@@std@@QAE@ABU01@@Z 00584590 f i Unit.obj
 0002:0002d5f0       ??0?$_Iterator012@Ubidirectional_iterator_tag@std@@U?$pair@$$CBIPAU_MAGIC_TYPE2@@@2@HPBU32@ABU32@U_Iterator_base12@2@@std@@QAE@XZ 005845f0 f i Unit.obj
 0002:0002d650       ??0?$_Tree@V?$_Tmap_traits@EU_BUFF_TYPE4_INFO@@U?$less@E@std@@V?$allocator@U?$pair@$$CBEU_BUFF_TYPE4_INFO@@@std@@@3@$0A@@std@@@std@@QAE@ABU?$less@E@1@ABV?$allocator@U?$pair@$$CBEU_BUFF_TYPE4_INFO@@@std@@@1@@Z 00584650 f i Unit.obj
 0002:0002d6b0       ??0?$_Tree@V?$_Tmap_traits@EU_BUFF_TYPE4_INFO@@U?$less@E@std@@V?$allocator@U?$pair@$$CBEU_BUFF_TYPE4_INFO@@@std@@@3@$0A@@std@@@std@@QAE@ABV01@ABV?$allocator@U?$pair@$$CBEU_BUFF_TYPE4_INFO@@@std@@@1@@Z 005846b0 f i Unit.obj
 0002:0002d7d0       ??0?$_Tree@V?$_Tmap_traits@EU_BUFF_TYPE9_INFO@@U?$less@E@std@@V?$allocator@U?$pair@$$CBEU_BUFF_TYPE9_INFO@@@std@@@3@$0A@@std@@@std@@QAE@ABU?$less@E@1@ABV?$allocator@U?$pair@$$CBEU_BUFF_TYPE9_INFO@@@std@@@1@@Z 005847d0 f i Unit.obj
 0002:0002d830       ??0?$_Tree@V?$_Tmap_traits@EV?$map@EFU?$less@E@std@@V?$allocator@U?$pair@$$CBEF@std@@@2@@std@@U?$less@E@2@V?$allocator@U?$pair@$$CBEV?$map@EFU?$less@E@std@@V?$allocator@U?$pair@$$CBEF@std@@@2@@std@@@std@@@2@$0A@@std@@@std@@QAE@ABU?$less@E@1@ABV?$allocator@U?$pair@$$CBEV?$map@EFU?$less@E@std@@V?$allocator@U?$pair@$$CBEF@std@@@2@@std@@@std@@@1@@Z 00584830 f i Unit.obj
 0002:0002d890       ??0?$_Tree_alloc@$0A@U?$_Tree_base_types@U?$pair@$$CBEU_BUFF_TYPE4_INFO@@@std@@V?$allocator@U?$pair@$$CBEU_BUFF_TYPE4_INFO@@@std@@@2@@std@@@std@@QAE@ABV?$allocator@U?$pair@$$CBEU_BUFF_TYPE4_INFO@@@std@@@1@@Z 00584890 f i Unit.obj
 0002:0002d990       ??0?$_Tree_alloc@$0A@U?$_Tree_base_types@U?$pair@$$CBEU_BUFF_TYPE9_INFO@@@std@@V?$allocator@U?$pair@$$CBEU_BUFF_TYPE9_INFO@@@std@@@2@@std@@@std@@QAE@ABV?$allocator@U?$pair@$$CBEU_BUFF_TYPE9_INFO@@@std@@@1@@Z 00584990 f i Unit.obj
 0002:0002da90       ??0?$_Tree_alloc@$0A@U?$_Tree_base_types@U?$pair@$$CBEV?$map@EFU?$less@E@std@@V?$allocator@U?$pair@$$CBEF@std@@@2@@std@@@std@@V?$allocator@U?$pair@$$CBEV?$map@EFU?$less@E@std@@V?$allocator@U?$pair@$$CBEF@std@@@2@@std@@@std@@@2@@std@@@std@@QAE@ABV?$allocator@U?$pair@$$CBEV?$map@EFU?$less@E@std@@V?$allocator@U?$pair@$$CBEF@std@@@2@@std@@@std@@@1@@Z 00584a90 f i Unit.obj
 0002:0002db90       ??0?$_Tree_buy@U?$pair@$$CBEU_BUFF_TYPE4_INFO@@@std@@V?$allocator@U?$pair@$$CBEU_BUFF_TYPE4_INFO@@@std@@@2@@std@@QAE@ABV?$allocator@U?$pair@$$CBEU_BUFF_TYPE4_INFO@@@std@@@1@@Z 00584b90 f i Unit.obj
 0002:0002dbf0       ??0?$_Tree_buy@U?$pair@$$CBEU_BUFF_TYPE9_INFO@@@std@@V?$allocator@U?$pair@$$CBEU_BUFF_TYPE9_INFO@@@std@@@2@@std@@QAE@ABV?$allocator@U?$pair@$$CBEU_BUFF_TYPE9_INFO@@@std@@@1@@Z 00584bf0 f i Unit.obj
 0002:0002dc50       ??0?$_Tree_buy@U?$pair@$$CBEV?$map@EFU?$less@E@std@@V?$allocator@U?$pair@$$CBEF@std@@@2@@std@@@std@@V?$allocator@U?$pair@$$CBEV?$map@EFU?$less@E@std@@V?$allocator@U?$pair@$$CBEF@std@@@2@@std@@@std@@@2@@std@@QAE@ABV?$allocator@U?$pair@$$CBEV?$map@EFU?$less@E@std@@V?$allocator@U?$pair@$$CBEF@std@@@2@@std@@@std@@@1@@Z 00584c50 f i Unit.obj
 0002:0002dcb0       ??0?$_Tree_comp@$0A@V?$_Tmap_traits@EU_BUFF_TYPE4_INFO@@U?$less@E@std@@V?$allocator@U?$pair@$$CBEU_BUFF_TYPE4_INFO@@@std@@@3@$0A@@std@@@std@@QAE@ABU?$less@E@1@ABV?$allocator@U?$pair@$$CBEU_BUFF_TYPE4_INFO@@@std@@@1@@Z 00584cb0 f i Unit.obj
 0002:0002dd10       ??0?$_Tree_comp@$0A@V?$_Tmap_traits@EU_BUFF_TYPE9_INFO@@U?$less@E@std@@V?$allocator@U?$pair@$$CBEU_BUFF_TYPE9_INFO@@@std@@@3@$0A@@std@@@std@@QAE@ABU?$less@E@1@ABV?$allocator@U?$pair@$$CBEU_BUFF_TYPE9_INFO@@@std@@@1@@Z 00584d10 f i Unit.obj
 0002:0002dd70       ??0?$_Tree_comp@$0A@V?$_Tmap_traits@EV?$map@EFU?$less@E@std@@V?$allocator@U?$pair@$$CBEF@std@@@2@@std@@U?$less@E@2@V?$allocator@U?$pair@$$CBEV?$map@EFU?$less@E@std@@V?$allocator@U?$pair@$$CBEF@std@@@2@@std@@@std@@@2@$0A@@std@@@std@@QAE@ABU?$less@E@1@ABV?$allocator@U?$pair@$$CBEV?$map@EFU?$less@E@std@@V?$allocator@U?$pair@$$CBEF@std@@@2@@std@@@std@@@1@@Z 00584d70 f i Unit.obj
 0002:0002ddd0       ??0?$_Tree_const_iterator@V?$_Tree_val@U?$_Tree_simple_types@U?$pair@$$CBEF@std@@@std@@@std@@@std@@QAE@ABV01@@Z 00584dd0 f i Unit.obj
 0002:0002de30       ??0?$_Tree_const_iterator@V?$_Tree_val@U?$_Tree_simple_types@U?$pair@$$CBEF@std@@@std@@@std@@@std@@QAE@PAU?$_Tree_node@U?$pair@$$CBEF@std@@PAX@1@PBV?$_Tree_val@U?$_Tree_simple_types@U?$pair@$$CBEF@std@@@std@@@1@@Z 00584e30 f i Unit.obj
 0002:0002de90       ??0?$_Tree_const_iterator@V?$_Tree_val@U?$_Tree_simple_types@U?$pair@$$CBEU_BUFF_TYPE9_INFO@@@std@@@std@@@std@@@std@@QAE@ABV01@@Z 00584e90 f i Unit.obj
 0002:0002def0       ??0?$_Tree_const_iterator@V?$_Tree_val@U?$_Tree_simple_types@U?$pair@$$CBEU_BUFF_TYPE9_INFO@@@std@@@std@@@std@@@std@@QAE@PAU?$_Tree_node@U?$pair@$$CBEU_BUFF_TYPE9_INFO@@@std@@PAX@1@PBV?$_Tree_val@U?$_Tree_simple_types@U?$pair@$$CBEU_BUFF_TYPE9_INFO@@@std@@@std@@@1@@Z 00584ef0 f i Unit.obj
 0002:0002df50       ??0?$_Tree_const_iterator@V?$_Tree_val@U?$_Tree_simple_types@U?$pair@$$CBEV?$map@EFU?$less@E@std@@V?$allocator@U?$pair@$$CBEF@std@@@2@@std@@@std@@@std@@@std@@@std@@QAE@ABV01@@Z 00584f50 f i Unit.obj
 0002:0002dfb0       ??0?$_Tree_const_iterator@V?$_Tree_val@U?$_Tree_simple_types@U?$pair@$$CBEV?$map@EFU?$less@E@std@@V?$allocator@U?$pair@$$CBEF@std@@@2@@std@@@std@@@std@@@std@@@std@@QAE@PAU?$_Tree_node@U?$pair@$$CBEV?$map@EFU?$less@E@std@@V?$allocator@U?$pair@$$CBEF@std@@@2@@std@@@std@@PAX@1@PBV?$_Tree_val@U?$_Tree_simple_types@U?$pair@$$CBEV?$map@EFU?$less@E@std@@V?$allocator@U?$pair@$$CBEF@std@@@2@@std@@@std@@@std@@@1@@Z 00584fb0 f i Unit.obj
 0002:0002e010       ??0?$_Tree_const_iterator@V?$_Tree_val@U?$_Tree_simple_types@U?$pair@$$CBIPAU_MAGIC_TYPE1@@@std@@@std@@@std@@@std@@QAE@ABV01@@Z 00585010 f i Unit.obj
 0002:0002e070       ??0?$_Tree_const_iterator@V?$_Tree_val@U?$_Tree_simple_types@U?$pair@$$CBIPAU_MAGIC_TYPE1@@@std@@@std@@@std@@@std@@QAE@PAU?$_Tree_node@U?$pair@$$CBIPAU_MAGIC_TYPE1@@@std@@PAX@1@PBV?$_Tree_val@U?$_Tree_simple_types@U?$pair@$$CBIPAU_MAGIC_TYPE1@@@std@@@std@@@1@@Z 00585070 f i Unit.obj
 0002:0002e0d0       ??0?$_Tree_const_iterator@V?$_Tree_val@U?$_Tree_simple_types@U?$pair@$$CBIPAU_MAGIC_TYPE2@@@std@@@std@@@std@@@std@@QAE@ABV01@@Z 005850d0 f i Unit.obj
 0002:0002e130       ??0?$_Tree_const_iterator@V?$_Tree_val@U?$_Tree_simple_types@U?$pair@$$CBIPAU_MAGIC_TYPE2@@@std@@@std@@@std@@@std@@QAE@PAU?$_Tree_node@U?$pair@$$CBIPAU_MAGIC_TYPE2@@@std@@PAX@1@PBV?$_Tree_val@U?$_Tree_simple_types@U?$pair@$$CBIPAU_MAGIC_TYPE2@@@std@@@std@@@1@@Z 00585130 f i Unit.obj
 0002:0002e190       ??0?$_Tree_iterator@V?$_Tree_val@U?$_Tree_simple_types@U?$pair@$$CBEF@std@@@std@@@std@@@std@@QAE@ABV01@@Z 00585190 f i Unit.obj
 0002:0002e1f0       ??0?$_Tree_iterator@V?$_Tree_val@U?$_Tree_simple_types@U?$pair@$$CBEF@std@@@std@@@std@@@std@@QAE@PAU?$_Tree_node@U?$pair@$$CBEF@std@@PAX@1@PBV?$_Tree_val@U?$_Tree_simple_types@U?$pair@$$CBEF@std@@@std@@@1@@Z 005851f0 f i Unit.obj
 0002:0002e250       ??0?$_Tree_iterator@V?$_Tree_val@U?$_Tree_simple_types@U?$pair@$$CBEU_BUFF_TYPE9_INFO@@@std@@@std@@@std@@@std@@QAE@PAU?$_Tree_node@U?$pair@$$CBEU_BUFF_TYPE9_INFO@@@std@@PAX@1@PBV?$_Tree_val@U?$_Tree_simple_types@U?$pair@$$CBEU_BUFF_TYPE9_INFO@@@std@@@std@@@1@@Z 00585250 f i Unit.obj
 0002:0002e2b0       ??0?$_Tree_iterator@V?$_Tree_val@U?$_Tree_simple_types@U?$pair@$$CBEV?$map@EFU?$less@E@std@@V?$allocator@U?$pair@$$CBEF@std@@@2@@std@@@std@@@std@@@std@@@std@@QAE@ABV01@@Z 005852b0 f i Unit.obj
 0002:0002e310       ??0?$_Tree_iterator@V?$_Tree_val@U?$_Tree_simple_types@U?$pair@$$CBEV?$map@EFU?$less@E@std@@V?$allocator@U?$pair@$$CBEF@std@@@2@@std@@@std@@@std@@@std@@@std@@QAE@PAU?$_Tree_node@U?$pair@$$CBEV?$map@EFU?$less@E@std@@V?$allocator@U?$pair@$$CBEF@std@@@2@@std@@@std@@PAX@1@PBV?$_Tree_val@U?$_Tree_simple_types@U?$pair@$$CBEV?$map@EFU?$less@E@std@@V?$allocator@U?$pair@$$CBEF@std@@@2@@std@@@std@@@std@@@1@@Z 00585310 f i Unit.obj
 0002:0002e370       ??0?$_Tree_iterator@V?$_Tree_val@U?$_Tree_simple_types@U?$pair@$$CBIPAU_MAGIC_TYPE1@@@std@@@std@@@std@@@std@@QAE@ABV01@@Z 00585370 f i Unit.obj
 0002:0002e3d0       ??0?$_Tree_iterator@V?$_Tree_val@U?$_Tree_simple_types@U?$pair@$$CBIPAU_MAGIC_TYPE1@@@std@@@std@@@std@@@std@@QAE@PAU?$_Tree_node@U?$pair@$$CBIPAU_MAGIC_TYPE1@@@std@@PAX@1@PBV?$_Tree_val@U?$_Tree_simple_types@U?$pair@$$CBIPAU_MAGIC_TYPE1@@@std@@@std@@@1@@Z 005853d0 f i Unit.obj
 0002:0002e430       ??0?$_Tree_iterator@V?$_Tree_val@U?$_Tree_simple_types@U?$pair@$$CBIPAU_MAGIC_TYPE2@@@std@@@std@@@std@@@std@@QAE@ABV01@@Z 00585430 f i Unit.obj
 0002:0002e490       ??0?$_Tree_iterator@V?$_Tree_val@U?$_Tree_simple_types@U?$pair@$$CBIPAU_MAGIC_TYPE2@@@std@@@std@@@std@@@std@@QAE@PAU?$_Tree_node@U?$pair@$$CBIPAU_MAGIC_TYPE2@@@std@@PAX@1@PBV?$_Tree_val@U?$_Tree_simple_types@U?$pair@$$CBIPAU_MAGIC_TYPE2@@@std@@@std@@@1@@Z 00585490 f i Unit.obj
 0002:0002e4f0       ??0?$_Tree_unchecked_const_iterator@V?$_Tree_val@U?$_Tree_simple_types@U?$pair@$$CBEF@std@@@std@@@std@@U_Iterator_base12@2@@std@@QAE@ABV01@@Z 005854f0 f i Unit.obj
 0002:0002e560       ??0?$_Tree_unchecked_const_iterator@V?$_Tree_val@U?$_Tree_simple_types@U?$pair@$$CBEF@std@@@std@@@std@@U_Iterator_base12@2@@std@@QAE@PAU?$_Tree_node@U?$pair@$$CBEF@std@@PAX@1@PBV?$_Tree_val@U?$_Tree_simple_types@U?$pair@$$CBEF@std@@@std@@@1@@Z 00585560 f i Unit.obj
 0002:0002e620       ??0?$_Tree_unchecked_const_iterator@V?$_Tree_val@U?$_Tree_simple_types@U?$pair@$$CBEU_BUFF_TYPE9_INFO@@@std@@@std@@@std@@U_Iterator_base12@2@@std@@QAE@ABV01@@Z 00585620 f i Unit.obj
 0002:0002e690       ??0?$_Tree_unchecked_const_iterator@V?$_Tree_val@U?$_Tree_simple_types@U?$pair@$$CBEU_BUFF_TYPE9_INFO@@@std@@@std@@@std@@U_Iterator_base12@2@@std@@QAE@PAU?$_Tree_node@U?$pair@$$CBEU_BUFF_TYPE9_INFO@@@std@@PAX@1@PBV?$_Tree_val@U?$_Tree_simple_types@U?$pair@$$CBEU_BUFF_TYPE9_INFO@@@std@@@std@@@1@@Z 00585690 f i Unit.obj
 0002:0002e750       ??0?$_Tree_unchecked_const_iterator@V?$_Tree_val@U?$_Tree_simple_types@U?$pair@$$CBEV?$map@EFU?$less@E@std@@V?$allocator@U?$pair@$$CBEF@std@@@2@@std@@@std@@@std@@@std@@U_Iterator_base12@2@@std@@QAE@ABV01@@Z 00585750 f i Unit.obj
 0002:0002e7c0       ??0?$_Tree_unchecked_const_iterator@V?$_Tree_val@U?$_Tree_simple_types@U?$pair@$$CBEV?$map@EFU?$less@E@std@@V?$allocator@U?$pair@$$CBEF@std@@@2@@std@@@std@@@std@@@std@@U_Iterator_base12@2@@std@@QAE@PAU?$_Tree_node@U?$pair@$$CBEV?$map@EFU?$less@E@std@@V?$allocator@U?$pair@$$CBEF@std@@@2@@std@@@std@@PAX@1@PBV?$_Tree_val@U?$_Tree_simple_types@U?$pair@$$CBEV?$map@EFU?$less@E@std@@V?$allocator@U?$pair@$$CBEF@std@@@2@@std@@@std@@@std@@@1@@Z 005857c0 f i Unit.obj
 0002:0002e880       ??0?$_Tree_unchecked_const_iterator@V?$_Tree_val@U?$_Tree_simple_types@U?$pair@$$CBIPAU_MAGIC_TYPE1@@@std@@@std@@@std@@U_Iterator_base12@2@@std@@QAE@ABV01@@Z 00585880 f i Unit.obj
 0002:0002e8f0       ??0?$_Tree_unchecked_const_iterator@V?$_Tree_val@U?$_Tree_simple_types@U?$pair@$$CBIPAU_MAGIC_TYPE1@@@std@@@std@@@std@@U_Iterator_base12@2@@std@@QAE@PAU?$_Tree_node@U?$pair@$$CBIPAU_MAGIC_TYPE1@@@std@@PAX@1@PBV?$_Tree_val@U?$_Tree_simple_types@U?$pair@$$CBIPAU_MAGIC_TYPE1@@@std@@@std@@@1@@Z 005858f0 f i Unit.obj
 0002:0002e9b0       ??0?$_Tree_unchecked_const_iterator@V?$_Tree_val@U?$_Tree_simple_types@U?$pair@$$CBIPAU_MAGIC_TYPE2@@@std@@@std@@@std@@U_Iterator_base12@2@@std@@QAE@ABV01@@Z 005859b0 f i Unit.obj
 0002:0002ea20       ??0?$_Tree_unchecked_const_iterator@V?$_Tree_val@U?$_Tree_simple_types@U?$pair@$$CBIPAU_MAGIC_TYPE2@@@std@@@std@@@std@@U_Iterator_base12@2@@std@@QAE@PAU?$_Tree_node@U?$pair@$$CBIPAU_MAGIC_TYPE2@@@std@@PAX@1@PBV?$_Tree_val@U?$_Tree_simple_types@U?$pair@$$CBIPAU_MAGIC_TYPE2@@@std@@@std@@@1@@Z 00585a20 f i Unit.obj
 0002:0002eae0       ??0?$_Tree_val@U?$_Tree_simple_types@U?$pair@$$CBEU_BUFF_TYPE4_INFO@@@std@@@std@@@std@@QAE@XZ 00585ae0 f i Unit.obj
 0002:0002eb50       ??0?$_Tree_val@U?$_Tree_simple_types@U?$pair@$$CBEU_BUFF_TYPE9_INFO@@@std@@@std@@@std@@QAE@XZ 00585b50 f i Unit.obj
 0002:0002ebc0       ??0?$_Tree_val@U?$_Tree_simple_types@U?$pair@$$CBEV?$map@EFU?$less@E@std@@V?$allocator@U?$pair@$$CBEF@std@@@2@@std@@@std@@@std@@@std@@QAE@XZ 00585bc0 f i Unit.obj
 0002:0002ec30       ??0?$_Wrap_alloc@V?$allocator@U?$_Tree_node@U?$pair@$$CBEF@std@@PAX@std@@@std@@@std@@QAE@XZ 00585c30 f i Unit.obj
 0002:0002ec90       ??0?$_Wrap_alloc@V?$allocator@U?$_Tree_node@U?$pair@$$CBEU_BUFF_TYPE4_INFO@@@std@@PAX@std@@@std@@@std@@QAE@ABV?$allocator@U?$_Tree_node@U?$pair@$$CBEU_BUFF_TYPE4_INFO@@@std@@PAX@std@@@1@@Z 00585c90 f i Unit.obj
 0002:0002ecf0       ??0?$_Wrap_alloc@V?$allocator@U?$_Tree_node@U?$pair@$$CBEU_BUFF_TYPE9_INFO@@@std@@PAX@std@@@std@@@std@@QAE@XZ 00585cf0 f i Unit.obj
 0002:0002ed50       ??0?$_Wrap_alloc@V?$allocator@U?$_Tree_node@U?$pair@$$CBEV?$map@EFU?$less@E@std@@V?$allocator@U?$pair@$$CBEF@std@@@2@@std@@@std@@PAX@std@@@std@@@std@@QAE@XZ 00585d50 f i Unit.obj
 0002:0002edb0       ??0?$allocator@U?$_Tree_node@U?$pair@$$CBEF@std@@PAX@std@@@std@@QAE@XZ 00585db0 f i Unit.obj
 0002:0002edf0       ??0?$allocator@U?$_Tree_node@U?$pair@$$CBEU_BUFF_TYPE4_INFO@@@std@@PAX@std@@@std@@QAE@ABV01@@Z 00585df0 f i Unit.obj
 0002:0002ee30       ??0?$allocator@U?$_Tree_node@U?$pair@$$CBEU_BUFF_TYPE9_INFO@@@std@@PAX@std@@@std@@QAE@XZ 00585e30 f i Unit.obj
 0002:0002ee70       ??0?$allocator@U?$_Tree_node@U?$pair@$$CBEV?$map@EFU?$less@E@std@@V?$allocator@U?$pair@$$CBEF@std@@@2@@std@@@std@@PAX@std@@@std@@QAE@XZ 00585e70 f i Unit.obj
 0002:0002eeb0       ??0?$allocator@U?$pair@$$CBEU_BUFF_TYPE4_INFO@@@std@@@std@@QAE@XZ 00585eb0 f i Unit.obj
 0002:0002eef0       ??0?$allocator@U?$pair@$$CBEU_BUFF_TYPE9_INFO@@@std@@@std@@QAE@XZ 00585ef0 f i Unit.obj
 0002:0002ef30       ??0?$allocator@U?$pair@$$CBEV?$map@EFU?$less@E@std@@V?$allocator@U?$pair@$$CBEF@std@@@2@@std@@@std@@@std@@QAE@XZ 00585f30 f i Unit.obj
 0002:0002ef70       ??0?$map@EU_BUFF_TYPE4_INFO@@U?$less@E@std@@V?$allocator@U?$pair@$$CBEU_BUFF_TYPE4_INFO@@@std@@@3@@std@@QAE@ABV01@@Z 00585f70 f i Unit.obj
 0002:0002f010       ??0?$map@EU_BUFF_TYPE4_INFO@@U?$less@E@std@@V?$allocator@U?$pair@$$CBEU_BUFF_TYPE4_INFO@@@std@@@3@@std@@QAE@XZ 00586010 f i Unit.obj
 0002:0002f080       ??0?$map@EU_BUFF_TYPE9_INFO@@U?$less@E@std@@V?$allocator@U?$pair@$$CBEU_BUFF_TYPE9_INFO@@@std@@@3@@std@@QAE@XZ 00586080 f i Unit.obj
 0002:0002f0f0       ??0?$map@EV?$map@EFU?$less@E@std@@V?$allocator@U?$pair@$$CBEF@std@@@2@@std@@U?$less@E@2@V?$allocator@U?$pair@$$CBEV?$map@EFU?$less@E@std@@V?$allocator@U?$pair@$$CBEF@std@@@2@@std@@@std@@@2@@std@@QAE@XZ 005860f0 f i Unit.obj
 0002:0002f160       ??0ByteBuffer@@QAE@I@Z     00586160 f i Unit.obj
 0002:0002f270       ??0MagicType3@Unit@@QAE@XZ 00586270 f i Unit.obj
 0002:0002f2d0       ??0Packet@@QAE@E@Z         005862d0 f i Unit.obj
 0002:0002f350       ??0Unit@@QAE@W4UnitType@@@Z 00586350 f   Unit.obj
 0002:0002f4c0       ??0_Mutex_base@std@@QAE@H@Z 005864c0 f i Unit.obj
 0002:0002f530       ??0recursive_mutex@std@@QAE@XZ 00586530 f i Unit.obj
 0002:0002f590       ??1?$_Iterator012@Ubidirectional_iterator_tag@std@@U?$pair@$$CBEF@2@HPBU32@ABU32@U_Iterator_base12@2@@std@@QAE@XZ 00586590 f i Unit.obj
 0002:0002f5e0       ??1?$_Iterator012@Ubidirectional_iterator_tag@std@@U?$pair@$$CBEU_BUFF_TYPE9_INFO@@@2@HPBU32@ABU32@U_Iterator_base12@2@@std@@QAE@XZ 005865e0 f i Unit.obj
 0002:0002f630       ??1?$_Iterator012@Ubidirectional_iterator_tag@std@@U?$pair@$$CBEV?$map@EFU?$less@E@std@@V?$allocator@U?$pair@$$CBEF@std@@@2@@std@@@2@HPBU32@ABU32@U_Iterator_base12@2@@std@@QAE@XZ 00586630 f i Unit.obj
 0002:0002f680       ??1?$_Iterator012@Ubidirectional_iterator_tag@std@@U?$pair@$$CBIPAU_MAGIC_TYPE1@@@2@HPBU32@ABU32@U_Iterator_base12@2@@std@@QAE@XZ 00586680 f i Unit.obj
 0002:0002f6d0       ??1?$_Iterator012@Ubidirectional_iterator_tag@std@@U?$pair@$$CBIPAU_MAGIC_TYPE2@@@2@HPBU32@ABU32@U_Iterator_base12@2@@std@@QAE@XZ 005866d0 f i Unit.obj
 0002:0002f720       ??1?$_Tree@V?$_Tmap_traits@EFU?$less@E@std@@V?$allocator@U?$pair@$$CBEF@std@@@2@$0A@@std@@@std@@QAE@XZ 00586720 f i Unit.obj
 0002:0002f780       ??1?$_Tree@V?$_Tmap_traits@EU_BUFF_TYPE4_INFO@@U?$less@E@std@@V?$allocator@U?$pair@$$CBEU_BUFF_TYPE4_INFO@@@std@@@3@$0A@@std@@@std@@QAE@XZ 00586780 f i Unit.obj
 0002:0002f7e0       ??1?$_Tree@V?$_Tmap_traits@EU_BUFF_TYPE9_INFO@@U?$less@E@std@@V?$allocator@U?$pair@$$CBEU_BUFF_TYPE9_INFO@@@std@@@3@$0A@@std@@@std@@QAE@XZ 005867e0 f i Unit.obj
 0002:0002f840       ??1?$_Tree@V?$_Tmap_traits@EV?$map@EFU?$less@E@std@@V?$allocator@U?$pair@$$CBEF@std@@@2@@std@@U?$less@E@2@V?$allocator@U?$pair@$$CBEV?$map@EFU?$less@E@std@@V?$allocator@U?$pair@$$CBEF@std@@@2@@std@@@std@@@2@$0A@@std@@@std@@QAE@XZ 00586840 f i Unit.obj
 0002:0002f8a0       ??1?$_Tree_alloc@$0A@U?$_Tree_base_types@U?$pair@$$CBEF@std@@V?$allocator@U?$pair@$$CBEF@std@@@2@@std@@@std@@QAE@XZ 005868a0 f i Unit.obj
 0002:0002f910       ??1?$_Tree_alloc@$0A@U?$_Tree_base_types@U?$pair@$$CBEU_BUFF_TYPE4_INFO@@@std@@V?$allocator@U?$pair@$$CBEU_BUFF_TYPE4_INFO@@@std@@@2@@std@@@std@@QAE@XZ 00586910 f i Unit.obj
 0002:0002f980       ??1?$_Tree_alloc@$0A@U?$_Tree_base_types@U?$pair@$$CBEU_BUFF_TYPE9_INFO@@@std@@V?$allocator@U?$pair@$$CBEU_BUFF_TYPE9_INFO@@@std@@@2@@std@@@std@@QAE@XZ 00586980 f i Unit.obj
 0002:0002f9f0       ??1?$_Tree_alloc@$0A@U?$_Tree_base_types@U?$pair@$$CBEV?$map@EFU?$less@E@std@@V?$allocator@U?$pair@$$CBEF@std@@@2@@std@@@std@@V?$allocator@U?$pair@$$CBEV?$map@EFU?$less@E@std@@V?$allocator@U?$pair@$$CBEF@std@@@2@@std@@@std@@@2@@std@@@std@@QAE@XZ 005869f0 f i Unit.obj
 0002:0002fa60       ??1?$_Tree_buy@U?$pair@$$CBEF@std@@V?$allocator@U?$pair@$$CBEF@std@@@2@@std@@QAE@XZ 00586a60 f i Unit.obj
 0002:0002fab0       ??1?$_Tree_buy@U?$pair@$$CBEU_BUFF_TYPE4_INFO@@@std@@V?$allocator@U?$pair@$$CBEU_BUFF_TYPE4_INFO@@@std@@@2@@std@@QAE@XZ 00586ab0 f i Unit.obj
 0002:0002fb00       ??1?$_Tree_buy@U?$pair@$$CBEU_BUFF_TYPE9_INFO@@@std@@V?$allocator@U?$pair@$$CBEU_BUFF_TYPE9_INFO@@@std@@@2@@std@@QAE@XZ 00586b00 f i Unit.obj
 0002:0002fb50       ??1?$_Tree_buy@U?$pair@$$CBEV?$map@EFU?$less@E@std@@V?$allocator@U?$pair@$$CBEF@std@@@2@@std@@@std@@V?$allocator@U?$pair@$$CBEV?$map@EFU?$less@E@std@@V?$allocator@U?$pair@$$CBEF@std@@@2@@std@@@std@@@2@@std@@QAE@XZ 00586b50 f i Unit.obj
 0002:0002fba0       ??1?$_Tree_comp@$0A@V?$_Tmap_traits@EFU?$less@E@std@@V?$allocator@U?$pair@$$CBEF@std@@@2@$0A@@std@@@std@@QAE@XZ 00586ba0 f i Unit.obj
 0002:0002fbf0       ??1?$_Tree_comp@$0A@V?$_Tmap_traits@EU_BUFF_TYPE4_INFO@@U?$less@E@std@@V?$allocator@U?$pair@$$CBEU_BUFF_TYPE4_INFO@@@std@@@3@$0A@@std@@@std@@QAE@XZ 00586bf0 f i Unit.obj
 0002:0002fc40       ??1?$_Tree_comp@$0A@V?$_Tmap_traits@EU_BUFF_TYPE9_INFO@@U?$less@E@std@@V?$allocator@U?$pair@$$CBEU_BUFF_TYPE9_INFO@@@std@@@3@$0A@@std@@@std@@QAE@XZ 00586c40 f i Unit.obj
 0002:0002fc90       ??1?$_Tree_comp@$0A@V?$_Tmap_traits@EV?$map@EFU?$less@E@std@@V?$allocator@U?$pair@$$CBEF@std@@@2@@std@@U?$less@E@2@V?$allocator@U?$pair@$$CBEV?$map@EFU?$less@E@std@@V?$allocator@U?$pair@$$CBEF@std@@@2@@std@@@std@@@2@$0A@@std@@@std@@QAE@XZ 00586c90 f i Unit.obj
 0002:0002fce0       ??1?$_Tree_const_iterator@V?$_Tree_val@U?$_Tree_simple_types@U?$pair@$$CBEF@std@@@std@@@std@@@std@@QAE@XZ 00586ce0 f i Unit.obj
 0002:0002fd30       ??1?$_Tree_const_iterator@V?$_Tree_val@U?$_Tree_simple_types@U?$pair@$$CBEU_BUFF_TYPE9_INFO@@@std@@@std@@@std@@@std@@QAE@XZ 00586d30 f i Unit.obj
 0002:0002fd80       ??1?$_Tree_const_iterator@V?$_Tree_val@U?$_Tree_simple_types@U?$pair@$$CBEV?$map@EFU?$less@E@std@@V?$allocator@U?$pair@$$CBEF@std@@@2@@std@@@std@@@std@@@std@@@std@@QAE@XZ 00586d80 f i Unit.obj
 0002:0002fdd0       ??1?$_Tree_const_iterator@V?$_Tree_val@U?$_Tree_simple_types@U?$pair@$$CBIPAU_MAGIC_TYPE1@@@std@@@std@@@std@@@std@@QAE@XZ 00586dd0 f i Unit.obj
 0002:0002fe20       ??1?$_Tree_const_iterator@V?$_Tree_val@U?$_Tree_simple_types@U?$pair@$$CBIPAU_MAGIC_TYPE2@@@std@@@std@@@std@@@std@@QAE@XZ 00586e20 f i Unit.obj
 0002:0002fe70       ??1?$_Tree_iterator@V?$_Tree_val@U?$_Tree_simple_types@U?$pair@$$CBEF@std@@@std@@@std@@@std@@QAE@XZ 00586e70 f i Unit.obj
 0002:0002fec0       ??1?$_Tree_iterator@V?$_Tree_val@U?$_Tree_simple_types@U?$pair@$$CBEU_BUFF_TYPE9_INFO@@@std@@@std@@@std@@@std@@QAE@XZ 00586ec0 f i Unit.obj
 0002:0002ff10       ??1?$_Tree_iterator@V?$_Tree_val@U?$_Tree_simple_types@U?$pair@$$CBEV?$map@EFU?$less@E@std@@V?$allocator@U?$pair@$$CBEF@std@@@2@@std@@@std@@@std@@@std@@@std@@QAE@XZ 00586f10 f i Unit.obj
 0002:0002ff60       ??1?$_Tree_iterator@V?$_Tree_val@U?$_Tree_simple_types@U?$pair@$$CBIPAU_MAGIC_TYPE1@@@std@@@std@@@std@@@std@@QAE@XZ 00586f60 f i Unit.obj
 0002:0002ffb0       ??1?$_Tree_iterator@V?$_Tree_val@U?$_Tree_simple_types@U?$pair@$$CBIPAU_MAGIC_TYPE2@@@std@@@std@@@std@@@std@@QAE@XZ 00586fb0 f i Unit.obj
 0002:00030000       ??1?$_Tree_unchecked_const_iterator@V?$_Tree_val@U?$_Tree_simple_types@U?$pair@$$CBEF@std@@@std@@@std@@U_Iterator_base12@2@@std@@QAE@XZ 00587000 f i Unit.obj
 0002:00030050       ??1?$_Tree_unchecked_const_iterator@V?$_Tree_val@U?$_Tree_simple_types@U?$pair@$$CBEU_BUFF_TYPE9_INFO@@@std@@@std@@@std@@U_Iterator_base12@2@@std@@QAE@XZ 00587050 f i Unit.obj
 0002:000300a0       ??1?$_Tree_unchecked_const_iterator@V?$_Tree_val@U?$_Tree_simple_types@U?$pair@$$CBEV?$map@EFU?$less@E@std@@V?$allocator@U?$pair@$$CBEF@std@@@2@@std@@@std@@@std@@@std@@U_Iterator_base12@2@@std@@QAE@XZ 005870a0 f i Unit.obj
 0002:000300f0       ??1?$_Tree_unchecked_const_iterator@V?$_Tree_val@U?$_Tree_simple_types@U?$pair@$$CBIPAU_MAGIC_TYPE1@@@std@@@std@@@std@@U_Iterator_base12@2@@std@@QAE@XZ 005870f0 f i Unit.obj
 0002:00030140       ??1?$_Tree_unchecked_const_iterator@V?$_Tree_val@U?$_Tree_simple_types@U?$pair@$$CBIPAU_MAGIC_TYPE2@@@std@@@std@@@std@@U_Iterator_base12@2@@std@@QAE@XZ 00587140 f i Unit.obj
 0002:00030190       ??1?$_Tree_val@U?$_Tree_simple_types@U?$pair@$$CBEF@std@@@std@@@std@@QAE@XZ 00587190 f i Unit.obj
 0002:000301e0       ??1?$_Tree_val@U?$_Tree_simple_types@U?$pair@$$CBEU_BUFF_TYPE4_INFO@@@std@@@std@@@std@@QAE@XZ 005871e0 f i Unit.obj
 0002:00030230       ??1?$_Tree_val@U?$_Tree_simple_types@U?$pair@$$CBEU_BUFF_TYPE9_INFO@@@std@@@std@@@std@@QAE@XZ 00587230 f i Unit.obj
 0002:00030280       ??1?$_Tree_val@U?$_Tree_simple_types@U?$pair@$$CBEV?$map@EFU?$less@E@std@@V?$allocator@U?$pair@$$CBEF@std@@@2@@std@@@std@@@std@@@std@@QAE@XZ 00587280 f i Unit.obj
 0002:000302d0       ??1?$map@EFU?$less@E@std@@V?$allocator@U?$pair@$$CBEF@std@@@2@@std@@QAE@XZ 005872d0 f i Unit.obj
 0002:00030320       ??1?$map@EU_BUFF_TYPE4_INFO@@U?$less@E@std@@V?$allocator@U?$pair@$$CBEU_BUFF_TYPE4_INFO@@@std@@@3@@std@@QAE@XZ 00587320 f i Unit.obj
 0002:00030370       ??1?$map@EU_BUFF_TYPE9_INFO@@U?$less@E@std@@V?$allocator@U?$pair@$$CBEU_BUFF_TYPE9_INFO@@@std@@@3@@std@@QAE@XZ 00587370 f i Unit.obj
 0002:000303c0       ??1?$map@EV?$map@EFU?$less@E@std@@V?$allocator@U?$pair@$$CBEF@std@@@2@@std@@U?$less@E@2@V?$allocator@U?$pair@$$CBEV?$map@EFU?$less@E@std@@V?$allocator@U?$pair@$$CBEF@std@@@2@@std@@@std@@@2@@std@@QAE@XZ 005873c0 f i Unit.obj
 0002:00030410       ??1?$pair@$$CBEV?$map@EFU?$less@E@std@@V?$allocator@U?$pair@$$CBEF@std@@@2@@std@@@std@@QAE@XZ 00587410 f i Unit.obj
 0002:00030470       ??1?$pair@V?$_Tree_iterator@V?$_Tree_val@U?$_Tree_simple_types@U?$pair@$$CBEU_BUFF_TYPE4_INFO@@@std@@@std@@@std@@@std@@_N@std@@QAE@XZ 00587470 f i Unit.obj
 0002:000304c0       ??1ReferenceObject@@UAE@XZ 005874c0 f i Unit.obj
 0002:00030500       ??1Unit@@UAE@XZ            00587500 f i Unit.obj
 0002:000305a0       ??1_Mutex_base@std@@QAE@XZ 005875a0 f i Unit.obj
 0002:00030600       ??1recursive_mutex@std@@QAE@XZ 00587600 f i Unit.obj
 0002:00030650       ??6ByteBuffer@@QAEAAV0@F@Z 00587650 f i Unit.obj
 0002:000306b0       ??6ByteBuffer@@QAEAAV0@G@Z 005876b0 f i Unit.obj
 0002:00030710       ??8?$_Tree_const_iterator@V?$_Tree_val@U?$_Tree_simple_types@U?$pair@$$CBEF@std@@@std@@@std@@@std@@QBE_NABV01@@Z 00587710 f i Unit.obj
 0002:00030840       ??8?$_Tree_const_iterator@V?$_Tree_val@U?$_Tree_simple_types@U?$pair@$$CBEU_BUFF_TYPE9_INFO@@@std@@@std@@@std@@@std@@QBE_NABV01@@Z 00587840 f i Unit.obj
 0002:00030970       ??8?$_Tree_const_iterator@V?$_Tree_val@U?$_Tree_simple_types@U?$pair@$$CBEV?$map@EFU?$less@E@std@@V?$allocator@U?$pair@$$CBEF@std@@@2@@std@@@std@@@std@@@std@@@std@@QBE_NABV01@@Z 00587970 f i Unit.obj
 0002:00030aa0       ??8?$_Tree_const_iterator@V?$_Tree_val@U?$_Tree_simple_types@U?$pair@$$CBIPAU_MAGIC_TYPE1@@@std@@@std@@@std@@@std@@QBE_NABV01@@Z 00587aa0 f i Unit.obj
 0002:00030bd0       ??8?$_Tree_const_iterator@V?$_Tree_val@U?$_Tree_simple_types@U?$pair@$$CBIPAU_MAGIC_TYPE2@@@std@@@std@@@std@@@std@@QBE_NABV01@@Z 00587bd0 f i Unit.obj
 0002:00030d00       ??9?$_Tree_const_iterator@V?$_Tree_val@U?$_Tree_simple_types@U?$pair@$$CBEF@std@@@std@@@std@@@std@@QBE_NABV01@@Z 00587d00 f i Unit.obj
 0002:00030d90       ??9?$_Tree_const_iterator@V?$_Tree_val@U?$_Tree_simple_types@U?$pair@$$CBEU_BUFF_TYPE9_INFO@@@std@@@std@@@std@@@std@@QBE_NABV01@@Z 00587d90 f i Unit.obj
 0002:00030e20       ??9?$_Tree_const_iterator@V?$_Tree_val@U?$_Tree_simple_types@U?$pair@$$CBEV?$map@EFU?$less@E@std@@V?$allocator@U?$pair@$$CBEF@std@@@2@@std@@@std@@@std@@@std@@@std@@QBE_NABV01@@Z 00587e20 f i Unit.obj
 0002:00030eb0       ??9?$_Tree_const_iterator@V?$_Tree_val@U?$_Tree_simple_types@U?$pair@$$CBIPAU_MAGIC_TYPE1@@@std@@@std@@@std@@@std@@QBE_NABV01@@Z 00587eb0 f i Unit.obj
 0002:00030f40       ??9?$_Tree_const_iterator@V?$_Tree_val@U?$_Tree_simple_types@U?$pair@$$CBIPAU_MAGIC_TYPE2@@@std@@@std@@@std@@@std@@QBE_NABV01@@Z 00587f40 f i Unit.obj
 0002:00030fd0       ??C?$_Tree_iterator@V?$_Tree_val@U?$_Tree_simple_types@U?$pair@$$CBEF@std@@@std@@@std@@@std@@QBEPAU?$pair@$$CBEF@1@XZ 00587fd0 f i Unit.obj
 0002:00031030       ??C?$_Tree_iterator@V?$_Tree_val@U?$_Tree_simple_types@U?$pair@$$CBEV?$map@EFU?$less@E@std@@V?$allocator@U?$pair@$$CBEF@std@@@2@@std@@@std@@@std@@@std@@@std@@QBEPAU?$pair@$$CBEV?$map@EFU?$less@E@std@@V?$allocator@U?$pair@$$CBEF@std@@@2@@std@@@1@XZ 00588030 f i Unit.obj
 0002:00031090       ??C?$_Tree_iterator@V?$_Tree_val@U?$_Tree_simple_types@U?$pair@$$CBIPAU_MAGIC_TYPE1@@@std@@@std@@@std@@@std@@QBEPAU?$pair@$$CBIPAU_MAGIC_TYPE1@@@1@XZ 00588090 f i Unit.obj
 0002:000310f0       ??C?$_Tree_iterator@V?$_Tree_val@U?$_Tree_simple_types@U?$pair@$$CBIPAU_MAGIC_TYPE2@@@std@@@std@@@std@@@std@@QBEPAU?$pair@$$CBIPAU_MAGIC_TYPE2@@@1@XZ 005880f0 f i Unit.obj
 0002:00031150       ??D?$_Tree_const_iterator@V?$_Tree_val@U?$_Tree_simple_types@U?$pair@$$CBEF@std@@@std@@@std@@@std@@QBEABU?$pair@$$CBEF@1@XZ 00588150 f i Unit.obj
 0002:00031260       ??D?$_Tree_const_iterator@V?$_Tree_val@U?$_Tree_simple_types@U?$pair@$$CBEV?$map@EFU?$less@E@std@@V?$allocator@U?$pair@$$CBEF@std@@@2@@std@@@std@@@std@@@std@@@std@@QBEABU?$pair@$$CBEV?$map@EFU?$less@E@std@@V?$allocator@U?$pair@$$CBEF@std@@@2@@std@@@1@XZ 00588260 f i Unit.obj
 0002:00031370       ??D?$_Tree_const_iterator@V?$_Tree_val@U?$_Tree_simple_types@U?$pair@$$CBIPAU_MAGIC_TYPE1@@@std@@@std@@@std@@@std@@QBEABU?$pair@$$CBIPAU_MAGIC_TYPE1@@@1@XZ 00588370 f i Unit.obj
 0002:00031480       ??D?$_Tree_const_iterator@V?$_Tree_val@U?$_Tree_simple_types@U?$pair@$$CBIPAU_MAGIC_TYPE2@@@std@@@std@@@std@@@std@@QBEABU?$pair@$$CBIPAU_MAGIC_TYPE2@@@1@XZ 00588480 f i Unit.obj
 0002:00031590       ??D?$_Tree_iterator@V?$_Tree_val@U?$_Tree_simple_types@U?$pair@$$CBEF@std@@@std@@@std@@@std@@QBEAAU?$pair@$$CBEF@1@XZ 00588590 f i Unit.obj
 0002:000315e0       ??D?$_Tree_iterator@V?$_Tree_val@U?$_Tree_simple_types@U?$pair@$$CBEV?$map@EFU?$less@E@std@@V?$allocator@U?$pair@$$CBEF@std@@@2@@std@@@std@@@std@@@std@@@std@@QBEAAU?$pair@$$CBEV?$map@EFU?$less@E@std@@V?$allocator@U?$pair@$$CBEF@std@@@2@@std@@@1@XZ 005885e0 f i Unit.obj
 0002:00031630       ??D?$_Tree_iterator@V?$_Tree_val@U?$_Tree_simple_types@U?$pair@$$CBIPAU_MAGIC_TYPE1@@@std@@@std@@@std@@@std@@QBEAAU?$pair@$$CBIPAU_MAGIC_TYPE1@@@1@XZ 00588630 f i Unit.obj
 0002:00031680       ??D?$_Tree_iterator@V?$_Tree_val@U?$_Tree_simple_types@U?$pair@$$CBIPAU_MAGIC_TYPE2@@@std@@@std@@@std@@@std@@QBEAAU?$pair@$$CBIPAU_MAGIC_TYPE2@@@1@XZ 00588680 f i Unit.obj
 0002:000316d0       ??E?$_Tree_const_iterator@V?$_Tree_val@U?$_Tree_simple_types@U?$pair@$$CBEF@std@@@std@@@std@@@std@@QAE?AV01@H@Z 005886d0 f i Unit.obj
 0002:000317f0       ??E?$_Tree_const_iterator@V?$_Tree_val@U?$_Tree_simple_types@U?$pair@$$CBEF@std@@@std@@@std@@@std@@QAEAAV01@XZ 005887f0 f i Unit.obj
 0002:00031900       ??E?$_Tree_const_iterator@V?$_Tree_val@U?$_Tree_simple_types@U?$pair@$$CBEU_BUFF_TYPE4_INFO@@@std@@@std@@@std@@@std@@QAE?AV01@H@Z 00588900 f i Unit.obj
 0002:00031a20       ??E?$_Tree_const_iterator@V?$_Tree_val@U?$_Tree_simple_types@U?$pair@$$CBEU_BUFF_TYPE9_INFO@@@std@@@std@@@std@@@std@@QAE?AV01@H@Z 00588a20 f i Unit.obj
 0002:00031b40       ??E?$_Tree_const_iterator@V?$_Tree_val@U?$_Tree_simple_types@U?$pair@$$CBEU_BUFF_TYPE9_INFO@@@std@@@std@@@std@@@std@@QAEAAV01@XZ 00588b40 f i Unit.obj
 0002:00031c50       ??E?$_Tree_const_iterator@V?$_Tree_val@U?$_Tree_simple_types@U?$pair@$$CBEV?$map@EFU?$less@E@std@@V?$allocator@U?$pair@$$CBEF@std@@@2@@std@@@std@@@std@@@std@@@std@@QAE?AV01@H@Z 00588c50 f i Unit.obj
 0002:00031d70       ??E?$_Tree_const_iterator@V?$_Tree_val@U?$_Tree_simple_types@U?$pair@$$CBEV?$map@EFU?$less@E@std@@V?$allocator@U?$pair@$$CBEF@std@@@2@@std@@@std@@@std@@@std@@@std@@QAEAAV01@XZ 00588d70 f i Unit.obj
 0002:00031e80       ??E?$_Tree_iterator@V?$_Tree_val@U?$_Tree_simple_types@U?$pair@$$CBEF@std@@@std@@@std@@@std@@QAE?AV01@H@Z 00588e80 f i Unit.obj
 0002:00031fa0       ??E?$_Tree_iterator@V?$_Tree_val@U?$_Tree_simple_types@U?$pair@$$CBEF@std@@@std@@@std@@@std@@QAEAAV01@XZ 00588fa0 f i Unit.obj
 0002:00032000       ??E?$_Tree_iterator@V?$_Tree_val@U?$_Tree_simple_types@U?$pair@$$CBEU_BUFF_TYPE4_INFO@@@std@@@std@@@std@@@std@@QAE?AV01@H@Z 00589000 f i Unit.obj
 0002:00032120       ??E?$_Tree_iterator@V?$_Tree_val@U?$_Tree_simple_types@U?$pair@$$CBEU_BUFF_TYPE4_INFO@@@std@@@std@@@std@@@std@@QAEAAV01@XZ 00589120 f i Unit.obj
 0002:00032180       ??E?$_Tree_iterator@V?$_Tree_val@U?$_Tree_simple_types@U?$pair@$$CBEV?$map@EFU?$less@E@std@@V?$allocator@U?$pair@$$CBEF@std@@@2@@std@@@std@@@std@@@std@@@std@@QAE?AV01@H@Z 00589180 f i Unit.obj
 0002:000322a0       ??E?$_Tree_iterator@V?$_Tree_val@U?$_Tree_simple_types@U?$pair@$$CBEV?$map@EFU?$less@E@std@@V?$allocator@U?$pair@$$CBEF@std@@@2@@std@@@std@@@std@@@std@@@std@@QAEAAV01@XZ 005892a0 f i Unit.obj
 0002:00032300       ??E?$_Tree_unchecked_const_iterator@V?$_Tree_val@U?$_Tree_simple_types@U?$pair@$$CBEF@std@@@std@@@std@@U_Iterator_base12@2@@std@@QAEAAV01@XZ 00589300 f i Unit.obj
 0002:00032430       ??E?$_Tree_unchecked_const_iterator@V?$_Tree_val@U?$_Tree_simple_types@U?$pair@$$CBEU_BUFF_TYPE9_INFO@@@std@@@std@@@std@@U_Iterator_base12@2@@std@@QAEAAV01@XZ 00589430 f i Unit.obj
 0002:00032560       ??E?$_Tree_unchecked_const_iterator@V?$_Tree_val@U?$_Tree_simple_types@U?$pair@$$CBEV?$map@EFU?$less@E@std@@V?$allocator@U?$pair@$$CBEF@std@@@2@@std@@@std@@@std@@@std@@U_Iterator_base12@2@@std@@QAEAAV01@XZ 00589560 f i Unit.obj
 0002:00032690       ??F?$_Tree_const_iterator@V?$_Tree_val@U?$_Tree_simple_types@U?$pair@$$CBEU_BUFF_TYPE4_INFO@@@std@@@std@@@std@@@std@@QAEAAV01@XZ 00589690 f i Unit.obj
 0002:00032820       ??F?$_Tree_iterator@V?$_Tree_val@U?$_Tree_simple_types@U?$pair@$$CBEU_BUFF_TYPE4_INFO@@@std@@@std@@@std@@@std@@QAEAAV01@XZ 00589820 f i Unit.obj
 0002:00032880       ??F?$_Tree_unchecked_const_iterator@V?$_Tree_val@U?$_Tree_simple_types@U?$pair@$$CBEU_BUFF_TYPE4_INFO@@@std@@@std@@@std@@U_Iterator_base12@2@@std@@QAEAAV01@XZ 00589880 f i Unit.obj
 0002:000329e0       ??_G?$pair@$$CBEV?$map@EFU?$less@E@std@@V?$allocator@U?$pair@$$CBEF@std@@@2@@std@@@std@@QAEPAXI@Z 005899e0 f i Unit.obj
 0002:00032a50       ??_GReferenceObject@@UAEPAXI@Z 00589a50 f i Unit.obj
 0002:00032a50       ??_EReferenceObject@@UAEPAXI@Z 00589a50 f i Unit.obj
 0002:00032ac0       ??_EUnit@@UAEPAXI@Z        00589ac0 f i Unit.obj
 0002:00032ac0       ??_GUnit@@UAEPAXI@Z        00589ac0 f i Unit.obj
 0002:00032b30       ??_H@YGXPAXIHP6EPAX0@Z@Z   00589b30 f i Unit.obj
 0002:00032ba0       ?AddType4Buff@Unit@@QAEXEAAU_BUFF_TYPE4_INFO@@@Z 00589ba0 f   Unit.obj
 0002:00032d00       ?CanAttack@Unit@@UAE_NPAV1@@Z 00589d00 f   Unit.obj
 0002:00032e00       ?CanCastRHit@Unit@@UAE_NG@Z 00589e00 f   Unit.obj
 0002:00032e40       ?GetACDamage@Unit@@QAEFHPAV1@@Z 00589e40 f   Unit.obj
 0002:00032ec0       ?GetDamage@CNpc@@QAEFPAV1@PAU_MAGIC_TABLE@@_N@Z 00589ec0 f   Unit.obj
 0002:000330d0       ?GetDamage@CNpc@@QAEFPAVCUser@@PAU_MAGIC_TABLE@@_N@Z 0058a0d0 f   Unit.obj
 0002:00033350       ?GetDamage@CNpc@@UAEFPAVUnit@@PAU_MAGIC_TABLE@@_N@Z 0058a350 f   Unit.obj
 0002:000333e0       ?GetDamage@CUser@@UAEFPAVUnit@@PAU_MAGIC_TABLE@@_N@Z 0058a3e0 f   Unit.obj
 0002:00033b00       ?GetData@?$CSTLMap@U_MAGIC_TYPE1@@@@QAEPAU_MAGIC_TYPE1@@I@Z 0058ab00 f i Unit.obj
 0002:00033cc0       ?GetData@?$CSTLMap@U_MAGIC_TYPE2@@@@QAEPAU_MAGIC_TYPE2@@I@Z 0058acc0 f i Unit.obj
 0002:00033e80       ?GetDistance@Unit@@QAEMMM@Z 0058ae80 f   Unit.obj
 0002:00033f10       ?GetDistance@Unit@@QAEMPAV1@@Z 0058af10 f   Unit.obj
 0002:00033fe0       ?GetDistance@Unit@@SAMMMMM@Z 0058afe0 f   Unit.obj
 0002:000340d0       ?GetDistanceSqrt@Unit@@QAEMPAV1@@Z 0058b0d0 f   Unit.obj
 0002:000341b0       ?GetEventRoom@Unit@@QAEGXZ 0058b1b0 f i Unit.obj
 0002:00034230       ?GetHitRate@Unit@@QAEEM@Z  0058b230 f   Unit.obj
 0002:00034710       ?GetLevel@Unit@@QAEEXZ     0058b710 f i Unit.obj
 0002:00034750       ?GetMagicDamage@Unit@@QAEFHPAV1@_N@Z 0058b750 f   Unit.obj
 0002:00034eb0       ?GetNation@Unit@@QAEEXZ    0058beb0 f i Unit.obj
 0002:00034ef0       ?GetProto@CNpc@@QAEPAVCNpcTable@@XZ 0058bef0 f i Unit.obj
 0002:00034f30       ?GetSavedMagicDuration@Unit@@UAEFI@Z 0058bf30 f i Unit.obj
 0002:00034f70       ?GetType@CNpc@@QAEEXZ      0058bf70 f i Unit.obj
 0002:00034fd0       ?GetX@Unit@@QAEMXZ         0058bfd0 f i Unit.obj
 0002:00035010       ?GetZ@Unit@@QAEMXZ         0058c010 f i Unit.obj
 0002:00035050       ?HasSavedMagic@Unit@@UAE_NI@Z 0058c050 f i Unit.obj
 0002:00035090       ?HpChangeMagic@Unit@@UAEXHPAV1@W4AttributeType@@@Z 0058c090 f i Unit.obj
 0002:00035100       ?InitType3@Unit@@QAEXXZ    0058c100 f   Unit.obj
 0002:00035190       ?InitType4@Unit@@QAEX_NE@Z 0058c190 f   Unit.obj
 0002:00035380       ?Initialize@Unit@@UAEXXZ   0058c380 f   Unit.obj
 0002:000357d0       ?InsertSavedMagic@Unit@@UAEXIG@Z 0058c7d0 f i Unit.obj
 0002:00035810       ?OnAttack@Unit@@UAEXPAV1@W4AttackType@@@Z 0058c810 f i Unit.obj
 0002:00035850       ?OnDeath@Unit@@QAEXPAV1@@Z 0058c850 f   Unit.obj
 0002:00035890       ?OnDefend@Unit@@UAEXPAV1@W4AttackType@@@Z 0058c890 f i Unit.obj
 0002:000358d0       ?Reset@MagicType3@Unit@@QAEXXZ 0058c8d0 f i Unit.obj
 0002:00035960       ?SendDeathAnimation@Unit@@QAEXPAV1@@Z 0058c960 f   Unit.obj
 0002:00035ae0       ?SetPosition@Unit@@QAEXMMM@Z 0058cae0 f i Unit.obj
 0002:00035b50       ?SetZoneAttributes@MAP@@IAEXH@Z 0058cb50 f   Unit.obj
 0002:00036270       ?StateChangeServerDirect@Unit@@UAEXEI@Z 0058d270 f i Unit.obj
 0002:000362b0       ?_Alloc_proxy@?$_Tree_alloc@$0A@U?$_Tree_base_types@U?$pair@$$CBEU_BUFF_TYPE4_INFO@@@std@@V?$allocator@U?$pair@$$CBEU_BUFF_TYPE4_INFO@@@std@@@2@@std@@@std@@QAEXXZ 0058d2b0 f i Unit.obj
 0002:00036390       ?_Alloc_proxy@?$_Tree_alloc@$0A@U?$_Tree_base_types@U?$pair@$$CBEU_BUFF_TYPE9_INFO@@@std@@V?$allocator@U?$pair@$$CBEU_BUFF_TYPE9_INFO@@@std@@@2@@std@@@std@@QAEXXZ 0058d390 f i Unit.obj
 0002:00036470       ?_Alloc_proxy@?$_Tree_alloc@$0A@U?$_Tree_base_types@U?$pair@$$CBEV?$map@EFU?$less@E@std@@V?$allocator@U?$pair@$$CBEF@std@@@2@@std@@@std@@V?$allocator@U?$pair@$$CBEV?$map@EFU?$less@E@std@@V?$allocator@U?$pair@$$CBEF@std@@@2@@std@@@std@@@2@@std@@@std@@QAEXXZ 0058d470 f i Unit.obj
 0002:00036550       ?_Buyheadnode@?$_Tree_alloc@$0A@U?$_Tree_base_types@U?$pair@$$CBEU_BUFF_TYPE4_INFO@@@std@@V?$allocator@U?$pair@$$CBEU_BUFF_TYPE4_INFO@@@std@@@2@@std@@@std@@QAEPAU?$_Tree_node@U?$pair@$$CBEU_BUFF_TYPE4_INFO@@@std@@PAX@2@XZ 0058d550 f i Unit.obj
 0002:000367b0       ?_Buyheadnode@?$_Tree_alloc@$0A@U?$_Tree_base_types@U?$pair@$$CBEU_BUFF_TYPE9_INFO@@@std@@V?$allocator@U?$pair@$$CBEU_BUFF_TYPE9_INFO@@@std@@@2@@std@@@std@@QAEPAU?$_Tree_node@U?$pair@$$CBEU_BUFF_TYPE9_INFO@@@std@@PAX@2@XZ 0058d7b0 f i Unit.obj
 0002:00036a10       ?_Buyheadnode@?$_Tree_alloc@$0A@U?$_Tree_base_types@U?$pair@$$CBEV?$map@EFU?$less@E@std@@V?$allocator@U?$pair@$$CBEF@std@@@2@@std@@@std@@V?$allocator@U?$pair@$$CBEV?$map@EFU?$less@E@std@@V?$allocator@U?$pair@$$CBEF@std@@@2@@std@@@std@@@2@@std@@@std@@QAEPAU?$_Tree_node@U?$pair@$$CBEV?$map@EFU?$less@E@std@@V?$allocator@U?$pair@$$CBEF@std@@@2@@std@@@std@@PAX@2@XZ 0058da10 f i Unit.obj
 0002:00036c70       ?_Buynode0@?$_Tree_buy@U?$pair@$$CBEU_BUFF_TYPE4_INFO@@@std@@V?$allocator@U?$pair@$$CBEU_BUFF_TYPE4_INFO@@@std@@@2@@std@@QAEPAU?$_Tree_node@U?$pair@$$CBEU_BUFF_TYPE4_INFO@@@std@@PAX@2@XZ 0058dc70 f i Unit.obj
 0002:00036e80       ?_Color@?$_Tree_val@U?$_Tree_simple_types@U?$pair@$$CBEF@std@@@std@@@std@@SAAADPAU?$_Tree_node@U?$pair@$$CBEF@std@@PAX@2@@Z 0058de80 f i Unit.obj
 0002:00036ec0       ?_Color@?$_Tree_val@U?$_Tree_simple_types@U?$pair@$$CBEU_BUFF_TYPE9_INFO@@@std@@@std@@@std@@SAAADPAU?$_Tree_node@U?$pair@$$CBEU_BUFF_TYPE9_INFO@@@std@@PAX@2@@Z 0058dec0 f i Unit.obj
 0002:00036f00       ?_Color@?$_Tree_val@U?$_Tree_simple_types@U?$pair@$$CBEV?$map@EFU?$less@E@std@@V?$allocator@U?$pair@$$CBEF@std@@@2@@std@@@std@@@std@@@std@@SAAADPAU?$_Tree_node@U?$pair@$$CBEV?$map@EFU?$less@E@std@@V?$allocator@U?$pair@$$CBEF@std@@@2@@std@@@std@@PAX@2@@Z 0058df00 f i Unit.obj
 0002:00036f40       ?_Destroy_if_not_nil@?$_Tree@V?$_Tmap_traits@EU_BUFF_TYPE4_INFO@@U?$less@E@std@@V?$allocator@U?$pair@$$CBEU_BUFF_TYPE4_INFO@@@std@@@3@$0A@@std@@@std@@IAEXPAU?$_Tree_node@U?$pair@$$CBEU_BUFF_TYPE4_INFO@@@std@@PAX@2@@Z 0058df40 f i Unit.obj
 0002:00036ff0       ?_Erase@?$_Tree@V?$_Tmap_traits@EFU?$less@E@std@@V?$allocator@U?$pair@$$CBEF@std@@@2@$0A@@std@@@std@@IAEXPAU?$_Tree_node@U?$pair@$$CBEF@std@@PAX@2@@Z 0058dff0 f i Unit.obj
 0002:00037100       ?_Erase@?$_Tree@V?$_Tmap_traits@EU_BUFF_TYPE4_INFO@@U?$less@E@std@@V?$allocator@U?$pair@$$CBEU_BUFF_TYPE4_INFO@@@std@@@3@$0A@@std@@@std@@IAEXPAU?$_Tree_node@U?$pair@$$CBEU_BUFF_TYPE4_INFO@@@std@@PAX@2@@Z 0058e100 f i Unit.obj
 0002:00037210       ?_Erase@?$_Tree@V?$_Tmap_traits@EU_BUFF_TYPE9_INFO@@U?$less@E@std@@V?$allocator@U?$pair@$$CBEU_BUFF_TYPE9_INFO@@@std@@@3@$0A@@std@@@std@@IAEXPAU?$_Tree_node@U?$pair@$$CBEU_BUFF_TYPE9_INFO@@@std@@PAX@2@@Z 0058e210 f i Unit.obj
 0002:00037320       ?_Erase@?$_Tree@V?$_Tmap_traits@EV?$map@EFU?$less@E@std@@V?$allocator@U?$pair@$$CBEF@std@@@2@@std@@U?$less@E@2@V?$allocator@U?$pair@$$CBEV?$map@EFU?$less@E@std@@V?$allocator@U?$pair@$$CBEF@std@@@2@@std@@@std@@@2@$0A@@std@@@std@@IAEXPAU?$_Tree_node@U?$pair@$$CBEV?$map@EFU?$less@E@std@@V?$allocator@U?$pair@$$CBEF@std@@@2@@std@@@std@@PAX@2@@Z 0058e320 f i Unit.obj
 0002:00037430       ?_Free_proxy@?$_Tree_alloc@$0A@U?$_Tree_base_types@U?$pair@$$CBEF@std@@V?$allocator@U?$pair@$$CBEF@std@@@2@@std@@@std@@QAEXXZ 0058e430 f i Unit.obj
 0002:00037510       ?_Free_proxy@?$_Tree_alloc@$0A@U?$_Tree_base_types@U?$pair@$$CBEU_BUFF_TYPE4_INFO@@@std@@V?$allocator@U?$pair@$$CBEU_BUFF_TYPE4_INFO@@@std@@@2@@std@@@std@@QAEXXZ 0058e510 f i Unit.obj
 0002:000375f0       ?_Free_proxy@?$_Tree_alloc@$0A@U?$_Tree_base_types@U?$pair@$$CBEU_BUFF_TYPE9_INFO@@@std@@V?$allocator@U?$pair@$$CBEU_BUFF_TYPE9_INFO@@@std@@@2@@std@@@std@@QAEXXZ 0058e5f0 f i Unit.obj
 0002:000376d0       ?_Free_proxy@?$_Tree_alloc@$0A@U?$_Tree_base_types@U?$pair@$$CBEV?$map@EFU?$less@E@std@@V?$allocator@U?$pair@$$CBEF@std@@@2@@std@@@std@@V?$allocator@U?$pair@$$CBEV?$map@EFU?$less@E@std@@V?$allocator@U?$pair@$$CBEF@std@@@2@@std@@@std@@@2@@std@@@std@@QAEXXZ 0058e6d0 f i Unit.obj
 0002:000377b0       ?_Freeheadnode@?$_Tree_alloc@$0A@U?$_Tree_base_types@U?$pair@$$CBEF@std@@V?$allocator@U?$pair@$$CBEF@std@@@2@@std@@@std@@QAEXPAU?$_Tree_node@U?$pair@$$CBEF@std@@PAX@2@@Z 0058e7b0 f i Unit.obj
 0002:000378c0       ?_Freeheadnode@?$_Tree_alloc@$0A@U?$_Tree_base_types@U?$pair@$$CBEU_BUFF_TYPE4_INFO@@@std@@V?$allocator@U?$pair@$$CBEU_BUFF_TYPE4_INFO@@@std@@@2@@std@@@std@@QAEXPAU?$_Tree_node@U?$pair@$$CBEU_BUFF_TYPE4_INFO@@@std@@PAX@2@@Z 0058e8c0 f i Unit.obj
 0002:000379d0       ?_Freeheadnode@?$_Tree_alloc@$0A@U?$_Tree_base_types@U?$pair@$$CBEU_BUFF_TYPE9_INFO@@@std@@V?$allocator@U?$pair@$$CBEU_BUFF_TYPE9_INFO@@@std@@@2@@std@@@std@@QAEXPAU?$_Tree_node@U?$pair@$$CBEU_BUFF_TYPE9_INFO@@@std@@PAX@2@@Z 0058e9d0 f i Unit.obj
 0002:00037ae0       ?_Freeheadnode@?$_Tree_alloc@$0A@U?$_Tree_base_types@U?$pair@$$CBEV?$map@EFU?$less@E@std@@V?$allocator@U?$pair@$$CBEF@std@@@2@@std@@@std@@V?$allocator@U?$pair@$$CBEV?$map@EFU?$less@E@std@@V?$allocator@U?$pair@$$CBEF@std@@@2@@std@@@std@@@2@@std@@@std@@QAEXPAU?$_Tree_node@U?$pair@$$CBEV?$map@EFU?$less@E@std@@V?$allocator@U?$pair@$$CBEF@std@@@2@@std@@@std@@PAX@2@@Z 0058eae0 f i Unit.obj
 0002:00037bf0       ?_Freenode0@?$_Tree_buy@U?$pair@$$CBEU_BUFF_TYPE4_INFO@@@std@@V?$allocator@U?$pair@$$CBEU_BUFF_TYPE4_INFO@@@std@@@2@@std@@QAEXPAU?$_Tree_node@U?$pair@$$CBEU_BUFF_TYPE4_INFO@@@std@@PAX@2@@Z 0058ebf0 f i Unit.obj
 0002:00037d00       ?_Getal@?$_Tree_alloc@$0A@U?$_Tree_base_types@U?$pair@$$CBEF@std@@V?$allocator@U?$pair@$$CBEF@std@@@2@@std@@@std@@QBE?AU?$_Wrap_alloc@V?$allocator@U?$_Tree_node@U?$pair@$$CBEF@std@@PAX@std@@@std@@@2@XZ 0058ed00 f i Unit.obj
 0002:00037d60       ?_Getal@?$_Tree_alloc@$0A@U?$_Tree_base_types@U?$pair@$$CBEU_BUFF_TYPE9_INFO@@@std@@V?$allocator@U?$pair@$$CBEU_BUFF_TYPE9_INFO@@@std@@@2@@std@@@std@@QBE?AU?$_Wrap_alloc@V?$allocator@U?$_Tree_node@U?$pair@$$CBEU_BUFF_TYPE9_INFO@@@std@@PAX@std@@@std@@@2@XZ 0058ed60 f i Unit.obj
 0002:00037dc0       ?_Getal@?$_Tree_alloc@$0A@U?$_Tree_base_types@U?$pair@$$CBEV?$map@EFU?$less@E@std@@V?$allocator@U?$pair@$$CBEF@std@@@2@@std@@@std@@V?$allocator@U?$pair@$$CBEV?$map@EFU?$less@E@std@@V?$allocator@U?$pair@$$CBEF@std@@@2@@std@@@std@@@2@@std@@@std@@QBE?AU?$_Wrap_alloc@V?$allocator@U?$_Tree_node@U?$pair@$$CBEV?$map@EFU?$less@E@std@@V?$allocator@U?$pair@$$CBEF@std@@@2@@std@@@std@@PAX@std@@@std@@@2@XZ 0058edc0 f i Unit.obj
 0002:00037e20       ?_Getcomp@?$_Tree_comp@$0A@V?$_Tmap_traits@IPAU_MAGIC_TYPE1@@U?$less@I@std@@V?$allocator@U?$pair@$$CBIPAU_MAGIC_TYPE1@@@std@@@3@$0A@@std@@@std@@QBE?AU?$less@I@2@XZ 0058ee20 f i Unit.obj
 0002:00037e60       ?_Getcomp@?$_Tree_comp@$0A@V?$_Tmap_traits@IPAU_MAGIC_TYPE2@@U?$less@I@std@@V?$allocator@U?$pair@$$CBIPAU_MAGIC_TYPE2@@@std@@@3@$0A@@std@@@std@@QBE?AU?$less@I@2@XZ 0058ee60 f i Unit.obj
 0002:00037ea0       ?_Isnil@?$_Tree_val@U?$_Tree_simple_types@U?$pair@$$CBEF@std@@@std@@@std@@SAAADPAU?$_Tree_node@U?$pair@$$CBEF@std@@PAX@2@@Z 0058eea0 f i Unit.obj
 0002:00037ee0       ?_Isnil@?$_Tree_val@U?$_Tree_simple_types@U?$pair@$$CBEU_BUFF_TYPE9_INFO@@@std@@@std@@@std@@SAAADPAU?$_Tree_node@U?$pair@$$CBEU_BUFF_TYPE9_INFO@@@std@@PAX@2@@Z 0058eee0 f i Unit.obj
 0002:00037f20       ?_Isnil@?$_Tree_val@U?$_Tree_simple_types@U?$pair@$$CBEV?$map@EFU?$less@E@std@@V?$allocator@U?$pair@$$CBEF@std@@@2@@std@@@std@@@std@@@std@@SAAADPAU?$_Tree_node@U?$pair@$$CBEV?$map@EFU?$less@E@std@@V?$allocator@U?$pair@$$CBEF@std@@@2@@std@@@std@@PAX@2@@Z 0058ef20 f i Unit.obj
 0002:00037f60       ?_Isnil@?$_Tree_val@U?$_Tree_simple_types@U?$pair@$$CBIPAU_MAGIC_TYPE1@@@std@@@std@@@std@@SAAADPAU?$_Tree_node@U?$pair@$$CBIPAU_MAGIC_TYPE1@@@std@@PAX@2@@Z 0058ef60 f i Unit.obj
 0002:00037fa0       ?_Isnil@?$_Tree_val@U?$_Tree_simple_types@U?$pair@$$CBIPAU_MAGIC_TYPE2@@@std@@@std@@@std@@SAAADPAU?$_Tree_node@U?$pair@$$CBIPAU_MAGIC_TYPE2@@@std@@PAX@2@@Z 0058efa0 f i Unit.obj
 0002:00037fe0       ?_Key@?$_Tree@V?$_Tmap_traits@IPAU_MAGIC_TYPE1@@U?$less@I@std@@V?$allocator@U?$pair@$$CBIPAU_MAGIC_TYPE1@@@std@@@3@$0A@@std@@@std@@IBEABIPAU?$_Tree_node@U?$pair@$$CBIPAU_MAGIC_TYPE1@@@std@@PAX@2@@Z 0058efe0 f i Unit.obj
 0002:00038050       ?_Key@?$_Tree@V?$_Tmap_traits@IPAU_MAGIC_TYPE2@@U?$less@I@std@@V?$allocator@U?$pair@$$CBIPAU_MAGIC_TYPE2@@@std@@@3@$0A@@std@@@std@@IBEABIPAU?$_Tree_node@U?$pair@$$CBIPAU_MAGIC_TYPE2@@@std@@PAX@2@@Z 0058f050 f i Unit.obj
 0002:000380c0       ?_Kfn@?$_Tree@V?$_Tmap_traits@IPAU_MAGIC_TYPE1@@U?$less@I@std@@V?$allocator@U?$pair@$$CBIPAU_MAGIC_TYPE1@@@std@@@3@$0A@@std@@@std@@IBEABIABU?$pair@$$CBIPAU_MAGIC_TYPE1@@@2@@Z 0058f0c0 f i Unit.obj
 0002:00038120       ?_Kfn@?$_Tree@V?$_Tmap_traits@IPAU_MAGIC_TYPE2@@U?$less@I@std@@V?$allocator@U?$pair@$$CBIPAU_MAGIC_TYPE2@@@std@@@3@$0A@@std@@@std@@IBEABIABU?$pair@$$CBIPAU_MAGIC_TYPE2@@@2@@Z 0058f120 f i Unit.obj
 0002:00038180       ?_Lbound@?$_Tree@V?$_Tmap_traits@IPAU_MAGIC_TYPE1@@U?$less@I@std@@V?$allocator@U?$pair@$$CBIPAU_MAGIC_TYPE1@@@std@@@3@$0A@@std@@@std@@IAEPAU?$_Tree_node@U?$pair@$$CBIPAU_MAGIC_TYPE1@@@std@@PAX@2@ABI@Z 0058f180 f i Unit.obj
 0002:00038290       ?_Lbound@?$_Tree@V?$_Tmap_traits@IPAU_MAGIC_TYPE2@@U?$less@I@std@@V?$allocator@U?$pair@$$CBIPAU_MAGIC_TYPE2@@@std@@@3@$0A@@std@@@std@@IAEPAU?$_Tree_node@U?$pair@$$CBIPAU_MAGIC_TYPE2@@@std@@PAX@2@ABI@Z 0058f290 f i Unit.obj
 0002:000383a0       ?_Left@?$_Tree_val@U?$_Tree_simple_types@U?$pair@$$CBEF@std@@@std@@@std@@SAAAPAU?$_Tree_node@U?$pair@$$CBEF@std@@PAX@2@PAU32@@Z 0058f3a0 f i Unit.obj
 0002:000383e0       ?_Left@?$_Tree_val@U?$_Tree_simple_types@U?$pair@$$CBEU_BUFF_TYPE9_INFO@@@std@@@std@@@std@@SAAAPAU?$_Tree_node@U?$pair@$$CBEU_BUFF_TYPE9_INFO@@@std@@PAX@2@PAU32@@Z 0058f3e0 f i Unit.obj
 0002:00038420       ?_Left@?$_Tree_val@U?$_Tree_simple_types@U?$pair@$$CBEV?$map@EFU?$less@E@std@@V?$allocator@U?$pair@$$CBEF@std@@@2@@std@@@std@@@std@@@std@@SAAAPAU?$_Tree_node@U?$pair@$$CBEV?$map@EFU?$less@E@std@@V?$allocator@U?$pair@$$CBEF@std@@@2@@std@@@std@@PAX@2@PAU32@@Z 0058f420 f i Unit.obj
 0002:00038460       ?_Left@?$_Tree_val@U?$_Tree_simple_types@U?$pair@$$CBIPAU_MAGIC_TYPE1@@@std@@@std@@@std@@SAAAPAU?$_Tree_node@U?$pair@$$CBIPAU_MAGIC_TYPE1@@@std@@PAX@2@PAU32@@Z 0058f460 f i Unit.obj
 0002:000384a0       ?_Left@?$_Tree_val@U?$_Tree_simple_types@U?$pair@$$CBIPAU_MAGIC_TYPE2@@@std@@@std@@@std@@SAAAPAU?$_Tree_node@U?$pair@$$CBIPAU_MAGIC_TYPE2@@@std@@PAX@2@PAU32@@Z 0058f4a0 f i Unit.obj
 0002:000384e0       ?_Lmost@?$_Tree@V?$_Tmap_traits@EFU?$less@E@std@@V?$allocator@U?$pair@$$CBEF@std@@@2@$0A@@std@@@std@@IBEAAPAU?$_Tree_node@U?$pair@$$CBEF@std@@PAX@2@XZ 0058f4e0 f i Unit.obj
 0002:00038540       ?_Lmost@?$_Tree@V?$_Tmap_traits@EU_BUFF_TYPE9_INFO@@U?$less@E@std@@V?$allocator@U?$pair@$$CBEU_BUFF_TYPE9_INFO@@@std@@@3@$0A@@std@@@std@@IBEAAPAU?$_Tree_node@U?$pair@$$CBEU_BUFF_TYPE9_INFO@@@std@@PAX@2@XZ 0058f540 f i Unit.obj
 0002:000385a0       ?_Lmost@?$_Tree@V?$_Tmap_traits@EV?$map@EFU?$less@E@std@@V?$allocator@U?$pair@$$CBEF@std@@@2@@std@@U?$less@E@2@V?$allocator@U?$pair@$$CBEV?$map@EFU?$less@E@std@@V?$allocator@U?$pair@$$CBEF@std@@@2@@std@@@std@@@2@$0A@@std@@@std@@IBEAAPAU?$_Tree_node@U?$pair@$$CBEV?$map@EFU?$less@E@std@@V?$allocator@U?$pair@$$CBEF@std@@@2@@std@@@std@@PAX@2@XZ 0058f5a0 f i Unit.obj
 0002:00038600       ?_Lrotate@?$_Tree@V?$_Tmap_traits@EFU?$less@E@std@@V?$allocator@U?$pair@$$CBEF@std@@@2@$0A@@std@@@std@@IAEXPAU?$_Tree_node@U?$pair@$$CBEF@std@@PAX@2@@Z 0058f600 f i Unit.obj
 0002:000387b0       ?_Lrotate@?$_Tree@V?$_Tmap_traits@EU_BUFF_TYPE9_INFO@@U?$less@E@std@@V?$allocator@U?$pair@$$CBEU_BUFF_TYPE9_INFO@@@std@@@3@$0A@@std@@@std@@IAEXPAU?$_Tree_node@U?$pair@$$CBEU_BUFF_TYPE9_INFO@@@std@@PAX@2@@Z 0058f7b0 f i Unit.obj
 0002:00038960       ?_Lrotate@?$_Tree@V?$_Tmap_traits@EV?$map@EFU?$less@E@std@@V?$allocator@U?$pair@$$CBEF@std@@@2@@std@@U?$less@E@2@V?$allocator@U?$pair@$$CBEV?$map@EFU?$less@E@std@@V?$allocator@U?$pair@$$CBEF@std@@@2@@std@@@std@@@2@$0A@@std@@@std@@IAEXPAU?$_Tree_node@U?$pair@$$CBEV?$map@EFU?$less@E@std@@V?$allocator@U?$pair@$$CBEF@std@@@2@@std@@@std@@PAX@2@@Z 0058f960 f i Unit.obj
 0002:00038b10       ?_Max@?$_Tree_val@U?$_Tree_simple_types@U?$pair@$$CBEF@std@@@std@@@std@@SAPAU?$_Tree_node@U?$pair@$$CBEF@std@@PAX@2@PAU32@@Z 0058fb10 f i Unit.obj
 0002:00038b90       ?_Max@?$_Tree_val@U?$_Tree_simple_types@U?$pair@$$CBEU_BUFF_TYPE9_INFO@@@std@@@std@@@std@@SAPAU?$_Tree_node@U?$pair@$$CBEU_BUFF_TYPE9_INFO@@@std@@PAX@2@PAU32@@Z 0058fb90 f i Unit.obj
 0002:00038c10       ?_Max@?$_Tree_val@U?$_Tree_simple_types@U?$pair@$$CBEV?$map@EFU?$less@E@std@@V?$allocator@U?$pair@$$CBEF@std@@@2@@std@@@std@@@std@@@std@@SAPAU?$_Tree_node@U?$pair@$$CBEV?$map@EFU?$less@E@std@@V?$allocator@U?$pair@$$CBEF@std@@@2@@std@@@std@@PAX@2@PAU32@@Z 0058fc10 f i Unit.obj
 0002:00038c90       ?_Min@?$_Tree_val@U?$_Tree_simple_types@U?$pair@$$CBEF@std@@@std@@@std@@SAPAU?$_Tree_node@U?$pair@$$CBEF@std@@PAX@2@PAU32@@Z 0058fc90 f i Unit.obj
 0002:00038d10       ?_Min@?$_Tree_val@U?$_Tree_simple_types@U?$pair@$$CBEU_BUFF_TYPE9_INFO@@@std@@@std@@@std@@SAPAU?$_Tree_node@U?$pair@$$CBEU_BUFF_TYPE9_INFO@@@std@@PAX@2@PAU32@@Z 0058fd10 f i Unit.obj
 0002:00038d90       ?_Min@?$_Tree_val@U?$_Tree_simple_types@U?$pair@$$CBEV?$map@EFU?$less@E@std@@V?$allocator@U?$pair@$$CBEF@std@@@2@@std@@@std@@@std@@@std@@SAPAU?$_Tree_node@U?$pair@$$CBEV?$map@EFU?$less@E@std@@V?$allocator@U?$pair@$$CBEF@std@@@2@@std@@@std@@PAX@2@PAU32@@Z 0058fd90 f i Unit.obj
 0002:00038e10       ?_Mtx_initX@std@@YAHPAPAU_Mtx_internal_imp_t@@H@Z 0058fe10 f i Unit.obj
 0002:00038e70       ?_Mynode@?$_Tree_unchecked_const_iterator@V?$_Tree_val@U?$_Tree_simple_types@U?$pair@$$CBEF@std@@@std@@@std@@U_Iterator_base12@2@@std@@QBEPAU?$_Tree_node@U?$pair@$$CBEF@std@@PAX@2@XZ 0058fe70 f i Unit.obj
 0002:00038eb0       ?_Mynode@?$_Tree_unchecked_const_iterator@V?$_Tree_val@U?$_Tree_simple_types@U?$pair@$$CBEU_BUFF_TYPE9_INFO@@@std@@@std@@@std@@U_Iterator_base12@2@@std@@QBEPAU?$_Tree_node@U?$pair@$$CBEU_BUFF_TYPE9_INFO@@@std@@PAX@2@XZ 0058feb0 f i Unit.obj
 0002:00038ef0       ?_Mynode@?$_Tree_unchecked_const_iterator@V?$_Tree_val@U?$_Tree_simple_types@U?$pair@$$CBEV?$map@EFU?$less@E@std@@V?$allocator@U?$pair@$$CBEF@std@@@2@@std@@@std@@@std@@@std@@U_Iterator_base12@2@@std@@QBEPAU?$_Tree_node@U?$pair@$$CBEV?$map@EFU?$less@E@std@@V?$allocator@U?$pair@$$CBEF@std@@@2@@std@@@std@@PAX@2@XZ 0058fef0 f i Unit.obj
 0002:00038f30       ?_Mynode@?$_Tree_unchecked_const_iterator@V?$_Tree_val@U?$_Tree_simple_types@U?$pair@$$CBIPAU_MAGIC_TYPE1@@@std@@@std@@@std@@U_Iterator_base12@2@@std@@QBEPAU?$_Tree_node@U?$pair@$$CBIPAU_MAGIC_TYPE1@@@std@@PAX@2@XZ 0058ff30 f i Unit.obj
 0002:00038f70       ?_Mynode@?$_Tree_unchecked_const_iterator@V?$_Tree_val@U?$_Tree_simple_types@U?$pair@$$CBIPAU_MAGIC_TYPE2@@@std@@@std@@@std@@U_Iterator_base12@2@@std@@QBEPAU?$_Tree_node@U?$pair@$$CBIPAU_MAGIC_TYPE2@@@std@@PAX@2@XZ 0058ff70 f i Unit.obj
 0002:00038fb0       ?_Myval@?$_Tree_val@U?$_Tree_simple_types@U?$pair@$$CBEF@std@@@std@@@std@@SAAAU?$pair@$$CBEF@2@PAU?$_Tree_node@U?$pair@$$CBEF@std@@PAX@2@@Z 0058ffb0 f i Unit.obj
 0002:00038ff0       ?_Myval@?$_Tree_val@U?$_Tree_simple_types@U?$pair@$$CBEU_BUFF_TYPE9_INFO@@@std@@@std@@@std@@SAAAU?$pair@$$CBEU_BUFF_TYPE9_INFO@@@2@PAU?$_Tree_node@U?$pair@$$CBEU_BUFF_TYPE9_INFO@@@std@@PAX@2@@Z 0058fff0 f i Unit.obj
 0002:00039030       ?_Myval@?$_Tree_val@U?$_Tree_simple_types@U?$pair@$$CBEV?$map@EFU?$less@E@std@@V?$allocator@U?$pair@$$CBEF@std@@@2@@std@@@std@@@std@@@std@@SAAAU?$pair@$$CBEV?$map@EFU?$less@E@std@@V?$allocator@U?$pair@$$CBEF@std@@@2@@std@@@2@PAU?$_Tree_node@U?$pair@$$CBEV?$map@EFU?$less@E@std@@V?$allocator@U?$pair@$$CBEF@std@@@2@@std@@@std@@PAX@2@@Z 00590030 f i Unit.obj
 0002:00039070       ?_Myval@?$_Tree_val@U?$_Tree_simple_types@U?$pair@$$CBIPAU_MAGIC_TYPE1@@@std@@@std@@@std@@SAAAU?$pair@$$CBIPAU_MAGIC_TYPE1@@@2@PAU?$_Tree_node@U?$pair@$$CBIPAU_MAGIC_TYPE1@@@std@@PAX@2@@Z 00590070 f i Unit.obj
 0002:000390b0       ?_Myval@?$_Tree_val@U?$_Tree_simple_types@U?$pair@$$CBIPAU_MAGIC_TYPE2@@@std@@@std@@@std@@SAAAU?$pair@$$CBIPAU_MAGIC_TYPE2@@@2@PAU?$_Tree_node@U?$pair@$$CBIPAU_MAGIC_TYPE2@@@std@@PAX@2@@Z 005900b0 f i Unit.obj
 0002:000390f0       ?_Orphan_ptr@?$_Tree@V?$_Tmap_traits@EFU?$less@E@std@@V?$allocator@U?$pair@$$CBEF@std@@@2@$0A@@std@@@std@@IBEXAAV12@PAU?$_Tree_node@U?$pair@$$CBEF@std@@PAX@2@@Z 005900f0 f i Unit.obj
 0002:00039250       ?_Orphan_ptr@?$_Tree@V?$_Tmap_traits@EU_BUFF_TYPE9_INFO@@U?$less@E@std@@V?$allocator@U?$pair@$$CBEU_BUFF_TYPE9_INFO@@@std@@@3@$0A@@std@@@std@@IBEXAAV12@PAU?$_Tree_node@U?$pair@$$CBEU_BUFF_TYPE9_INFO@@@std@@PAX@2@@Z 00590250 f i Unit.obj
 0002:000393b0       ?_Orphan_ptr@?$_Tree@V?$_Tmap_traits@EV?$map@EFU?$less@E@std@@V?$allocator@U?$pair@$$CBEF@std@@@2@@std@@U?$less@E@2@V?$allocator@U?$pair@$$CBEV?$map@EFU?$less@E@std@@V?$allocator@U?$pair@$$CBEF@std@@@2@@std@@@std@@@2@$0A@@std@@@std@@IBEXAAV12@PAU?$_Tree_node@U?$pair@$$CBEV?$map@EFU?$less@E@std@@V?$allocator@U?$pair@$$CBEF@std@@@2@@std@@@std@@PAX@2@@Z 005903b0 f i Unit.obj
 0002:00039510       ?_Parent@?$_Tree_val@U?$_Tree_simple_types@U?$pair@$$CBEF@std@@@std@@@std@@SAAAPAU?$_Tree_node@U?$pair@$$CBEF@std@@PAX@2@PAU32@@Z 00590510 f i Unit.obj
 0002:00039550       ?_Parent@?$_Tree_val@U?$_Tree_simple_types@U?$pair@$$CBEU_BUFF_TYPE9_INFO@@@std@@@std@@@std@@SAAAPAU?$_Tree_node@U?$pair@$$CBEU_BUFF_TYPE9_INFO@@@std@@PAX@2@PAU32@@Z 00590550 f i Unit.obj
 0002:00039590       ?_Parent@?$_Tree_val@U?$_Tree_simple_types@U?$pair@$$CBEV?$map@EFU?$less@E@std@@V?$allocator@U?$pair@$$CBEF@std@@@2@@std@@@std@@@std@@@std@@SAAAPAU?$_Tree_node@U?$pair@$$CBEV?$map@EFU?$less@E@std@@V?$allocator@U?$pair@$$CBEF@std@@@2@@std@@@std@@PAX@2@PAU32@@Z 00590590 f i Unit.obj
 0002:000395d0       ?_Parent@?$_Tree_val@U?$_Tree_simple_types@U?$pair@$$CBIPAU_MAGIC_TYPE1@@@std@@@std@@@std@@SAAAPAU?$_Tree_node@U?$pair@$$CBIPAU_MAGIC_TYPE1@@@std@@PAX@2@PAU32@@Z 005905d0 f i Unit.obj
 0002:00039610       ?_Parent@?$_Tree_val@U?$_Tree_simple_types@U?$pair@$$CBIPAU_MAGIC_TYPE2@@@std@@@std@@@std@@SAAAPAU?$_Tree_node@U?$pair@$$CBIPAU_MAGIC_TYPE2@@@std@@PAX@2@PAU32@@Z 00590610 f i Unit.obj
 0002:00039650       ?_Right@?$_Tree_val@U?$_Tree_simple_types@U?$pair@$$CBEF@std@@@std@@@std@@SAAAPAU?$_Tree_node@U?$pair@$$CBEF@std@@PAX@2@PAU32@@Z 00590650 f i Unit.obj
 0002:00039690       ?_Right@?$_Tree_val@U?$_Tree_simple_types@U?$pair@$$CBEU_BUFF_TYPE9_INFO@@@std@@@std@@@std@@SAAAPAU?$_Tree_node@U?$pair@$$CBEU_BUFF_TYPE9_INFO@@@std@@PAX@2@PAU32@@Z 00590690 f i Unit.obj
 0002:000396d0       ?_Right@?$_Tree_val@U?$_Tree_simple_types@U?$pair@$$CBEV?$map@EFU?$less@E@std@@V?$allocator@U?$pair@$$CBEF@std@@@2@@std@@@std@@@std@@@std@@SAAAPAU?$_Tree_node@U?$pair@$$CBEV?$map@EFU?$less@E@std@@V?$allocator@U?$pair@$$CBEF@std@@@2@@std@@@std@@PAX@2@PAU32@@Z 005906d0 f i Unit.obj
 0002:00039710       ?_Right@?$_Tree_val@U?$_Tree_simple_types@U?$pair@$$CBIPAU_MAGIC_TYPE1@@@std@@@std@@@std@@SAAAPAU?$_Tree_node@U?$pair@$$CBIPAU_MAGIC_TYPE1@@@std@@PAX@2@PAU32@@Z 00590710 f i Unit.obj
 0002:00039750       ?_Right@?$_Tree_val@U?$_Tree_simple_types@U?$pair@$$CBIPAU_MAGIC_TYPE2@@@std@@@std@@@std@@SAAAPAU?$_Tree_node@U?$pair@$$CBIPAU_MAGIC_TYPE2@@@std@@PAX@2@PAU32@@Z 00590750 f i Unit.obj
 0002:00039790       ?_Rmost@?$_Tree@V?$_Tmap_traits@EFU?$less@E@std@@V?$allocator@U?$pair@$$CBEF@std@@@2@$0A@@std@@@std@@IBEAAPAU?$_Tree_node@U?$pair@$$CBEF@std@@PAX@2@XZ 00590790 f i Unit.obj
 0002:000397f0       ?_Rmost@?$_Tree@V?$_Tmap_traits@EU_BUFF_TYPE9_INFO@@U?$less@E@std@@V?$allocator@U?$pair@$$CBEU_BUFF_TYPE9_INFO@@@std@@@3@$0A@@std@@@std@@IBEAAPAU?$_Tree_node@U?$pair@$$CBEU_BUFF_TYPE9_INFO@@@std@@PAX@2@XZ 005907f0 f i Unit.obj
 0002:00039850       ?_Rmost@?$_Tree@V?$_Tmap_traits@EV?$map@EFU?$less@E@std@@V?$allocator@U?$pair@$$CBEF@std@@@2@@std@@U?$less@E@2@V?$allocator@U?$pair@$$CBEV?$map@EFU?$less@E@std@@V?$allocator@U?$pair@$$CBEF@std@@@2@@std@@@std@@@2@$0A@@std@@@std@@IBEAAPAU?$_Tree_node@U?$pair@$$CBEV?$map@EFU?$less@E@std@@V?$allocator@U?$pair@$$CBEF@std@@@2@@std@@@std@@PAX@2@XZ 00590850 f i Unit.obj
 0002:000398b0       ?_Root@?$_Tree@V?$_Tmap_traits@EFU?$less@E@std@@V?$allocator@U?$pair@$$CBEF@std@@@2@$0A@@std@@@std@@IBEAAPAU?$_Tree_node@U?$pair@$$CBEF@std@@PAX@2@XZ 005908b0 f i Unit.obj
 0002:00039910       ?_Root@?$_Tree@V?$_Tmap_traits@EU_BUFF_TYPE9_INFO@@U?$less@E@std@@V?$allocator@U?$pair@$$CBEU_BUFF_TYPE9_INFO@@@std@@@3@$0A@@std@@@std@@IBEAAPAU?$_Tree_node@U?$pair@$$CBEU_BUFF_TYPE9_INFO@@@std@@PAX@2@XZ 00590910 f i Unit.obj
 0002:00039970       ?_Root@?$_Tree@V?$_Tmap_traits@EV?$map@EFU?$less@E@std@@V?$allocator@U?$pair@$$CBEF@std@@@2@@std@@U?$less@E@2@V?$allocator@U?$pair@$$CBEV?$map@EFU?$less@E@std@@V?$allocator@U?$pair@$$CBEF@std@@@2@@std@@@std@@@2@$0A@@std@@@std@@IBEAAPAU?$_Tree_node@U?$pair@$$CBEV?$map@EFU?$less@E@std@@V?$allocator@U?$pair@$$CBEF@std@@@2@@std@@@std@@PAX@2@XZ 00590970 f i Unit.obj
 0002:000399d0       ?_Root@?$_Tree@V?$_Tmap_traits@IPAU_MAGIC_TYPE1@@U?$less@I@std@@V?$allocator@U?$pair@$$CBIPAU_MAGIC_TYPE1@@@std@@@3@$0A@@std@@@std@@IBEAAPAU?$_Tree_node@U?$pair@$$CBIPAU_MAGIC_TYPE1@@@std@@PAX@2@XZ 005909d0 f i Unit.obj
 0002:00039a30       ?_Root@?$_Tree@V?$_Tmap_traits@IPAU_MAGIC_TYPE2@@U?$less@I@std@@V?$allocator@U?$pair@$$CBIPAU_MAGIC_TYPE2@@@std@@@3@$0A@@std@@@std@@IBEAAPAU?$_Tree_node@U?$pair@$$CBIPAU_MAGIC_TYPE2@@@std@@PAX@2@XZ 00590a30 f i Unit.obj
 0002:00039a90       ?_Rrotate@?$_Tree@V?$_Tmap_traits@EFU?$less@E@std@@V?$allocator@U?$pair@$$CBEF@std@@@2@$0A@@std@@@std@@IAEXPAU?$_Tree_node@U?$pair@$$CBEF@std@@PAX@2@@Z 00590a90 f i Unit.obj
 0002:00039c40       ?_Rrotate@?$_Tree@V?$_Tmap_traits@EU_BUFF_TYPE9_INFO@@U?$less@E@std@@V?$allocator@U?$pair@$$CBEU_BUFF_TYPE9_INFO@@@std@@@3@$0A@@std@@@std@@IAEXPAU?$_Tree_node@U?$pair@$$CBEU_BUFF_TYPE9_INFO@@@std@@PAX@2@@Z 00590c40 f i Unit.obj
 0002:00039df0       ?_Rrotate@?$_Tree@V?$_Tmap_traits@EV?$map@EFU?$less@E@std@@V?$allocator@U?$pair@$$CBEF@std@@@2@@std@@U?$less@E@2@V?$allocator@U?$pair@$$CBEV?$map@EFU?$less@E@std@@V?$allocator@U?$pair@$$CBEF@std@@@2@@std@@@std@@@2@$0A@@std@@@std@@IAEXPAU?$_Tree_node@U?$pair@$$CBEV?$map@EFU?$less@E@std@@V?$allocator@U?$pair@$$CBEF@std@@@2@@std@@@std@@PAX@2@@Z 00590df0 f i Unit.obj
 0002:00039fa0       ?_Tidy@?$_Tree@V?$_Tmap_traits@EFU?$less@E@std@@V?$allocator@U?$pair@$$CBEF@std@@@2@$0A@@std@@@std@@IAEXXZ 00590fa0 f i Unit.obj
 0002:0003a130       ?_Tidy@?$_Tree@V?$_Tmap_traits@EU_BUFF_TYPE4_INFO@@U?$less@E@std@@V?$allocator@U?$pair@$$CBEU_BUFF_TYPE4_INFO@@@std@@@3@$0A@@std@@@std@@IAEXXZ 00591130 f i Unit.obj
 0002:0003a2c0       ?_Tidy@?$_Tree@V?$_Tmap_traits@EU_BUFF_TYPE9_INFO@@U?$less@E@std@@V?$allocator@U?$pair@$$CBEU_BUFF_TYPE9_INFO@@@std@@@3@$0A@@std@@@std@@IAEXXZ 005912c0 f i Unit.obj
 0002:0003a450       ?_Tidy@?$_Tree@V?$_Tmap_traits@EV?$map@EFU?$less@E@std@@V?$allocator@U?$pair@$$CBEF@std@@@2@@std@@U?$less@E@2@V?$allocator@U?$pair@$$CBEV?$map@EFU?$less@E@std@@V?$allocator@U?$pair@$$CBEF@std@@@2@@std@@@std@@@2@$0A@@std@@@std@@IAEXXZ 00591450 f i Unit.obj
 0002:0003a5e0       ?allocate@?$_Wrap_alloc@V?$allocator@U?$_Tree_node@U?$pair@$$CBEU_BUFF_TYPE4_INFO@@@std@@PAX@std@@@std@@@std@@QAEPAU?$_Tree_node@U?$pair@$$CBEU_BUFF_TYPE4_INFO@@@std@@PAX@2@I@Z 005915e0 f i Unit.obj
 0002:0003a640       ?allocate@?$_Wrap_alloc@V?$allocator@U?$_Tree_node@U?$pair@$$CBEU_BUFF_TYPE9_INFO@@@std@@PAX@std@@@std@@@std@@QAEPAU?$_Tree_node@U?$pair@$$CBEU_BUFF_TYPE9_INFO@@@std@@PAX@2@I@Z 00591640 f i Unit.obj
 0002:0003a6a0       ?allocate@?$_Wrap_alloc@V?$allocator@U?$_Tree_node@U?$pair@$$CBEV?$map@EFU?$less@E@std@@V?$allocator@U?$pair@$$CBEF@std@@@2@@std@@@std@@PAX@std@@@std@@@std@@QAEPAU?$_Tree_node@U?$pair@$$CBEV?$map@EFU?$less@E@std@@V?$allocator@U?$pair@$$CBEF@std@@@2@@std@@@std@@PAX@2@I@Z 005916a0 f i Unit.obj
 0002:0003a700       ?allocate@?$_Wrap_alloc@V?$allocator@U_Container_proxy@std@@@std@@@std@@QAEPAU_Container_proxy@2@I@Z 00591700 f i Unit.obj
 0002:0003a760       ?allocate@?$allocator@U?$_Tree_node@U?$pair@$$CBEU_BUFF_TYPE4_INFO@@@std@@PAX@std@@@std@@QAEPAU?$_Tree_node@U?$pair@$$CBEU_BUFF_TYPE4_INFO@@@std@@PAX@2@I@Z 00591760 f i Unit.obj
 0002:0003a7c0       ?allocate@?$allocator@U?$_Tree_node@U?$pair@$$CBEU_BUFF_TYPE9_INFO@@@std@@PAX@std@@@std@@QAEPAU?$_Tree_node@U?$pair@$$CBEU_BUFF_TYPE9_INFO@@@std@@PAX@2@I@Z 005917c0 f i Unit.obj
 0002:0003a820       ?allocate@?$allocator@U?$_Tree_node@U?$pair@$$CBEV?$map@EFU?$less@E@std@@V?$allocator@U?$pair@$$CBEF@std@@@2@@std@@@std@@PAX@std@@@std@@QAEPAU?$_Tree_node@U?$pair@$$CBEV?$map@EFU?$less@E@std@@V?$allocator@U?$pair@$$CBEF@std@@@2@@std@@@std@@PAX@2@I@Z 00591820 f i Unit.obj
 0002:0003a880       ?areNPCsFriendly@MAP@@QAE_NXZ 00591880 f i Unit.obj
 0002:0003a8f0       ?begin@?$_Tree@V?$_Tmap_traits@EFU?$less@E@std@@V?$allocator@U?$pair@$$CBEF@std@@@2@$0A@@std@@@std@@QAE?AV?$_Tree_iterator@V?$_Tree_val@U?$_Tree_simple_types@U?$pair@$$CBEF@std@@@std@@@std@@@2@XZ 005918f0 f i Unit.obj
 0002:0003a960       ?begin@?$_Tree@V?$_Tmap_traits@EU_BUFF_TYPE4_INFO@@U?$less@E@std@@V?$allocator@U?$pair@$$CBEU_BUFF_TYPE4_INFO@@@std@@@3@$0A@@std@@@std@@QAE?AV?$_Tree_iterator@V?$_Tree_val@U?$_Tree_simple_types@U?$pair@$$CBEU_BUFF_TYPE4_INFO@@@std@@@std@@@std@@@2@XZ 00591960 f i Unit.obj
 0002:0003a9d0       ?begin@?$_Tree@V?$_Tmap_traits@EU_BUFF_TYPE9_INFO@@U?$less@E@std@@V?$allocator@U?$pair@$$CBEU_BUFF_TYPE9_INFO@@@std@@@3@$0A@@std@@@std@@QAE?AV?$_Tree_iterator@V?$_Tree_val@U?$_Tree_simple_types@U?$pair@$$CBEU_BUFF_TYPE9_INFO@@@std@@@std@@@std@@@2@XZ 005919d0 f i Unit.obj
 0002:0003aa40       ?begin@?$_Tree@V?$_Tmap_traits@EV?$map@EFU?$less@E@std@@V?$allocator@U?$pair@$$CBEF@std@@@2@@std@@U?$less@E@2@V?$allocator@U?$pair@$$CBEV?$map@EFU?$less@E@std@@V?$allocator@U?$pair@$$CBEF@std@@@2@@std@@@std@@@2@$0A@@std@@@std@@QAE?AV?$_Tree_iterator@V?$_Tree_val@U?$_Tree_simple_types@U?$pair@$$CBEV?$map@EFU?$less@E@std@@V?$allocator@U?$pair@$$CBEF@std@@@2@@std@@@std@@@std@@@std@@@2@XZ 00591a40 f i Unit.obj
 0002:0003aab0       ?canAttackOtherNation@MAP@@QAE_NXZ 00591ab0 f i Unit.obj
 0002:0003ab20       ?clear@?$_Tree@V?$_Tmap_traits@EFU?$less@E@std@@V?$allocator@U?$pair@$$CBEF@std@@@2@$0A@@std@@@std@@QAEXXZ 00591b20 f i Unit.obj
 0002:0003abe0       ?clear@?$_Tree@V?$_Tmap_traits@EU_BUFF_TYPE4_INFO@@U?$less@E@std@@V?$allocator@U?$pair@$$CBEU_BUFF_TYPE4_INFO@@@std@@@3@$0A@@std@@@std@@QAEXXZ 00591be0 f i Unit.obj
 0002:0003aca0       ?clear@?$_Tree@V?$_Tmap_traits@EU_BUFF_TYPE9_INFO@@U?$less@E@std@@V?$allocator@U?$pair@$$CBEU_BUFF_TYPE9_INFO@@@std@@@3@$0A@@std@@@std@@QAEXXZ 00591ca0 f i Unit.obj
 0002:0003ad60       ?clear@?$_Tree@V?$_Tmap_traits@EV?$map@EFU?$less@E@std@@V?$allocator@U?$pair@$$CBEF@std@@@2@@std@@U?$less@E@2@V?$allocator@U?$pair@$$CBEV?$map@EFU?$less@E@std@@V?$allocator@U?$pair@$$CBEF@std@@@2@@std@@@std@@@2@$0A@@std@@@std@@QAEXXZ 00591d60 f i Unit.obj
 0002:0003ae20       ?deallocate@?$_Wrap_alloc@V?$allocator@U?$_Tree_node@U?$pair@$$CBEF@std@@PAX@std@@@std@@@std@@QAEXPAU?$_Tree_node@U?$pair@$$CBEF@std@@PAX@2@I@Z 00591e20 f i Unit.obj
 0002:0003ae80       ?deallocate@?$_Wrap_alloc@V?$allocator@U?$_Tree_node@U?$pair@$$CBEU_BUFF_TYPE9_INFO@@@std@@PAX@std@@@std@@@std@@QAEXPAU?$_Tree_node@U?$pair@$$CBEU_BUFF_TYPE9_INFO@@@std@@PAX@2@I@Z 00591e80 f i Unit.obj
 0002:0003aee0       ?deallocate@?$_Wrap_alloc@V?$allocator@U?$_Tree_node@U?$pair@$$CBEV?$map@EFU?$less@E@std@@V?$allocator@U?$pair@$$CBEF@std@@@2@@std@@@std@@PAX@std@@@std@@@std@@QAEXPAU?$_Tree_node@U?$pair@$$CBEV?$map@EFU?$less@E@std@@V?$allocator@U?$pair@$$CBEF@std@@@2@@std@@@std@@PAX@2@I@Z 00591ee0 f i Unit.obj
 0002:0003af40       ?deallocate@?$_Wrap_alloc@V?$allocator@U_Container_proxy@std@@@std@@@std@@QAEXPAU_Container_proxy@2@I@Z 00591f40 f i Unit.obj
 0002:0003afa0       ?deallocate@?$allocator@U?$_Tree_node@U?$pair@$$CBEF@std@@PAX@std@@@std@@QAEXPAU?$_Tree_node@U?$pair@$$CBEF@std@@PAX@2@I@Z 00591fa0 f i Unit.obj
 0002:0003b000       ?deallocate@?$allocator@U?$_Tree_node@U?$pair@$$CBEU_BUFF_TYPE9_INFO@@@std@@PAX@std@@@std@@QAEXPAU?$_Tree_node@U?$pair@$$CBEU_BUFF_TYPE9_INFO@@@std@@PAX@2@I@Z 00592000 f i Unit.obj
 0002:0003b060       ?deallocate@?$allocator@U?$_Tree_node@U?$pair@$$CBEV?$map@EFU?$less@E@std@@V?$allocator@U?$pair@$$CBEF@std@@@2@@std@@@std@@PAX@std@@@std@@QAEXPAU?$_Tree_node@U?$pair@$$CBEV?$map@EFU?$less@E@std@@V?$allocator@U?$pair@$$CBEF@std@@@2@@std@@@std@@PAX@2@I@Z 00592060 f i Unit.obj
 0002:0003b0c0       ?end@?$_Tree@V?$_Tmap_traits@EFU?$less@E@std@@V?$allocator@U?$pair@$$CBEF@std@@@2@$0A@@std@@@std@@QAE?AV?$_Tree_iterator@V?$_Tree_val@U?$_Tree_simple_types@U?$pair@$$CBEF@std@@@std@@@std@@@2@XZ 005920c0 f i Unit.obj
 0002:0003b130       ?end@?$_Tree@V?$_Tmap_traits@EU_BUFF_TYPE9_INFO@@U?$less@E@std@@V?$allocator@U?$pair@$$CBEU_BUFF_TYPE9_INFO@@@std@@@3@$0A@@std@@@std@@QAE?AV?$_Tree_iterator@V?$_Tree_val@U?$_Tree_simple_types@U?$pair@$$CBEU_BUFF_TYPE9_INFO@@@std@@@std@@@std@@@2@XZ 00592130 f i Unit.obj
 0002:0003b1a0       ?end@?$_Tree@V?$_Tmap_traits@EV?$map@EFU?$less@E@std@@V?$allocator@U?$pair@$$CBEF@std@@@2@@std@@U?$less@E@2@V?$allocator@U?$pair@$$CBEV?$map@EFU?$less@E@std@@V?$allocator@U?$pair@$$CBEF@std@@@2@@std@@@std@@@2@$0A@@std@@@std@@QAE?AV?$_Tree_iterator@V?$_Tree_val@U?$_Tree_simple_types@U?$pair@$$CBEV?$map@EFU?$less@E@std@@V?$allocator@U?$pair@$$CBEF@std@@@2@@std@@@std@@@std@@@std@@@2@XZ 005921a0 f i Unit.obj
 0002:0003b210       ?end@?$_Tree@V?$_Tmap_traits@IPAU_MAGIC_TYPE1@@U?$less@I@std@@V?$allocator@U?$pair@$$CBIPAU_MAGIC_TYPE1@@@std@@@3@$0A@@std@@@std@@QAE?AV?$_Tree_iterator@V?$_Tree_val@U?$_Tree_simple_types@U?$pair@$$CBIPAU_MAGIC_TYPE1@@@std@@@std@@@std@@@2@XZ 00592210 f i Unit.obj
 0002:0003b280       ?end@?$_Tree@V?$_Tmap_traits@IPAU_MAGIC_TYPE2@@U?$less@I@std@@V?$allocator@U?$pair@$$CBIPAU_MAGIC_TYPE2@@@std@@@3@$0A@@std@@@std@@QAE?AV?$_Tree_iterator@V?$_Tree_val@U?$_Tree_simple_types@U?$pair@$$CBIPAU_MAGIC_TYPE2@@@std@@@std@@@std@@@2@XZ 00592280 f i Unit.obj
 0002:0003b2f0       ?erase@?$_Tree@V?$_Tmap_traits@EFU?$less@E@std@@V?$allocator@U?$pair@$$CBEF@std@@@2@$0A@@std@@@std@@QAE?AV?$_Tree_iterator@V?$_Tree_val@U?$_Tree_simple_types@U?$pair@$$CBEF@std@@@std@@@std@@@2@V?$_Tree_const_iterator@V?$_Tree_val@U?$_Tree_simple_types@U?$pair@$$CBEF@std@@@std@@@std@@@2@0@Z 005922f0 f i Unit.obj
 0002:0003b610       ?erase@?$_Tree@V?$_Tmap_traits@EFU?$less@E@std@@V?$allocator@U?$pair@$$CBEF@std@@@2@$0A@@std@@@std@@QAE?AV?$_Tree_iterator@V?$_Tree_val@U?$_Tree_simple_types@U?$pair@$$CBEF@std@@@std@@@std@@@2@V?$_Tree_const_iterator@V?$_Tree_val@U?$_Tree_simple_types@U?$pair@$$CBEF@std@@@std@@@std@@@2@@Z 00592610 f i Unit.obj
 0002:0003c080       ?erase@?$_Tree@V?$_Tmap_traits@EU_BUFF_TYPE4_INFO@@U?$less@E@std@@V?$allocator@U?$pair@$$CBEU_BUFF_TYPE4_INFO@@@std@@@3@$0A@@std@@@std@@QAE?AV?$_Tree_iterator@V?$_Tree_val@U?$_Tree_simple_types@U?$pair@$$CBEU_BUFF_TYPE4_INFO@@@std@@@std@@@std@@@2@V?$_Tree_const_iterator@V?$_Tree_val@U?$_Tree_simple_types@U?$pair@$$CBEU_BUFF_TYPE4_INFO@@@std@@@std@@@std@@@2@0@Z 00593080 f i Unit.obj
 0002:0003c3a0       ?erase@?$_Tree@V?$_Tmap_traits@EU_BUFF_TYPE9_INFO@@U?$less@E@std@@V?$allocator@U?$pair@$$CBEU_BUFF_TYPE9_INFO@@@std@@@3@$0A@@std@@@std@@QAE?AV?$_Tree_iterator@V?$_Tree_val@U?$_Tree_simple_types@U?$pair@$$CBEU_BUFF_TYPE9_INFO@@@std@@@std@@@std@@@2@V?$_Tree_const_iterator@V?$_Tree_val@U?$_Tree_simple_types@U?$pair@$$CBEU_BUFF_TYPE9_INFO@@@std@@@std@@@std@@@2@0@Z 005933a0 f i Unit.obj
 0002:0003c6c0       ?erase@?$_Tree@V?$_Tmap_traits@EU_BUFF_TYPE9_INFO@@U?$less@E@std@@V?$allocator@U?$pair@$$CBEU_BUFF_TYPE9_INFO@@@std@@@3@$0A@@std@@@std@@QAE?AV?$_Tree_iterator@V?$_Tree_val@U?$_Tree_simple_types@U?$pair@$$CBEU_BUFF_TYPE9_INFO@@@std@@@std@@@std@@@2@V?$_Tree_const_iterator@V?$_Tree_val@U?$_Tree_simple_types@U?$pair@$$CBEU_BUFF_TYPE9_INFO@@@std@@@std@@@std@@@2@@Z 005936c0 f i Unit.obj
 0002:0003d130       ?erase@?$_Tree@V?$_Tmap_traits@EV?$map@EFU?$less@E@std@@V?$allocator@U?$pair@$$CBEF@std@@@2@@std@@U?$less@E@2@V?$allocator@U?$pair@$$CBEV?$map@EFU?$less@E@std@@V?$allocator@U?$pair@$$CBEF@std@@@2@@std@@@std@@@2@$0A@@std@@@std@@QAE?AV?$_Tree_iterator@V?$_Tree_val@U?$_Tree_simple_types@U?$pair@$$CBEV?$map@EFU?$less@E@std@@V?$allocator@U?$pair@$$CBEF@std@@@2@@std@@@std@@@std@@@std@@@2@V?$_Tree_const_iterator@V?$_Tree_val@U?$_Tree_simple_types@U?$pair@$$CBEV?$map@EFU?$less@E@std@@V?$allocator@U?$pair@$$CBEF@std@@@2@@std@@@std@@@std@@@std@@@2@0@Z 00594130 f i Unit.obj
 0002:0003d450       ?erase@?$_Tree@V?$_Tmap_traits@EV?$map@EFU?$less@E@std@@V?$allocator@U?$pair@$$CBEF@std@@@2@@std@@U?$less@E@2@V?$allocator@U?$pair@$$CBEV?$map@EFU?$less@E@std@@V?$allocator@U?$pair@$$CBEF@std@@@2@@std@@@std@@@2@$0A@@std@@@std@@QAE?AV?$_Tree_iterator@V?$_Tree_val@U?$_Tree_simple_types@U?$pair@$$CBEV?$map@EFU?$less@E@std@@V?$allocator@U?$pair@$$CBEF@std@@@2@@std@@@std@@@std@@@std@@@2@V?$_Tree_const_iterator@V?$_Tree_val@U?$_Tree_simple_types@U?$pair@$$CBEV?$map@EFU?$less@E@std@@V?$allocator@U?$pair@$$CBEF@std@@@2@@std@@@std@@@std@@@std@@@2@@Z 00594450 f i Unit.obj
 0002:0003dec0       ?find@?$_Tree@V?$_Tmap_traits@IPAU_MAGIC_TYPE1@@U?$less@I@std@@V?$allocator@U?$pair@$$CBIPAU_MAGIC_TYPE1@@@std@@@3@$0A@@std@@@std@@QAE?AV?$_Tree_iterator@V?$_Tree_val@U?$_Tree_simple_types@U?$pair@$$CBIPAU_MAGIC_TYPE1@@@std@@@std@@@std@@@2@ABI@Z 00594ec0 f i Unit.obj
 0002:0003e1d0       ?find@?$_Tree@V?$_Tmap_traits@IPAU_MAGIC_TYPE2@@U?$less@I@std@@V?$allocator@U?$pair@$$CBIPAU_MAGIC_TYPE2@@@std@@@3@$0A@@std@@@std@@QAE?AV?$_Tree_iterator@V?$_Tree_val@U?$_Tree_simple_types@U?$pair@$$CBIPAU_MAGIC_TYPE2@@@std@@@std@@@std@@@2@ABI@Z 005951d0 f i Unit.obj
 0002:0003e4e0       ?isAlive@Unit@@UAE_NXZ     005954e0 f i Unit.obj
 0002:0003e570       ?isAttackable@Unit@@UAE_NPAV1@@Z 00595570 f   Unit.obj
 0002:0003e5f0       ?isBlinded@Unit@@QAE_NXZ   005955f0 f i Unit.obj
 0002:0003e630       ?isBlinking@Unit@@UAE_NXZ  00595630 f i Unit.obj
 0002:0003e670       ?isHostileTo@CNpc@@UAE_NPAVUnit@@@Z 00595670 f   Unit.obj
 0002:0003e7a0       ?isHostileTo@CUser@@UAE_NPAVUnit@@@Z 005957a0 f   Unit.obj
 0002:0003e8e0       ?isInArena@CUser@@QAE_NXZ  005958e0 f   Unit.obj
 0002:0003ea80       ?isInPVPZone@CUser@@QAE_NXZ 00595a80 f   Unit.obj
 0002:0003eaf0       ?isInRange@Unit@@QAE_NMMM@Z 00595af0 f   Unit.obj
 0002:0003eba0       ?isInRange@Unit@@QAE_NPAV1@M@Z 00595ba0 f   Unit.obj
 0002:0003ec40       ?isInRange@Unit@@SA_NMMMMM@Z 00595c40 f   Unit.obj
 0002:0003ed00       ?isInRangeSlow@Unit@@QAE_NMMM@Z 00595d00 f   Unit.obj
 0002:0003eda0       ?isInRangeSlow@Unit@@QAE_NPAV1@M@Z 00595da0 f   Unit.obj
 0002:0003ee30       ?isInRangeSlow@Unit@@SA_NMMMMM@Z 00595e30 f   Unit.obj
 0002:0003eee0       ?isInSafetyArea@CUser@@QAE_NXZ 00595ee0 f   Unit.obj
 0002:0003fa40       ?isIncapacitated@Unit@@QAE_NXZ 00596a40 f i Unit.obj
 0002:0003fb20       ?isKaul@Unit@@QAE_NXZ      00596b20 f i Unit.obj
 0002:0003fb60       ?isMonster@CNpc@@QAE_NXZ   00596b60 f i Unit.obj
 0002:0003fba0       ?isSameEventRoom@Unit@@UAE_NPAV1@@Z 00596ba0 f   Unit.obj
 0002:0003fc20       ?key_comp@?$_Tree@V?$_Tmap_traits@EU_BUFF_TYPE4_INFO@@U?$less@E@std@@V?$allocator@U?$pair@$$CBEU_BUFF_TYPE4_INFO@@@std@@@3@$0A@@std@@@std@@QBE?AU?$less@E@2@XZ 00596c20 f i Unit.obj
 0002:0003fc80       ?lower_bound@?$_Tree@V?$_Tmap_traits@IPAU_MAGIC_TYPE1@@U?$less@I@std@@V?$allocator@U?$pair@$$CBIPAU_MAGIC_TYPE1@@@std@@@3@$0A@@std@@@std@@QAE?AV?$_Tree_iterator@V?$_Tree_val@U?$_Tree_simple_types@U?$pair@$$CBIPAU_MAGIC_TYPE1@@@std@@@std@@@std@@@2@ABI@Z 00596c80 f i Unit.obj
 0002:0003fd10       ?lower_bound@?$_Tree@V?$_Tmap_traits@IPAU_MAGIC_TYPE2@@U?$less@I@std@@V?$allocator@U?$pair@$$CBIPAU_MAGIC_TYPE2@@@std@@@3@$0A@@std@@@std@@QAE?AV?$_Tree_iterator@V?$_Tree_val@U?$_Tree_simple_types@U?$pair@$$CBIPAU_MAGIC_TYPE2@@@std@@@std@@@std@@@2@ABI@Z 00596d10 f i Unit.obj
 0002:0003fda0       ?max_size@?$_Tree@V?$_Tmap_traits@EU_BUFF_TYPE4_INFO@@U?$less@E@std@@V?$allocator@U?$pair@$$CBEU_BUFF_TYPE4_INFO@@@std@@@3@$0A@@std@@@std@@QBEIXZ 00596da0 f i Unit.obj
 0002:0003fe00       ?max_size@?$_Wrap_alloc@V?$allocator@U?$_Tree_node@U?$pair@$$CBEU_BUFF_TYPE4_INFO@@@std@@PAX@std@@@std@@@std@@QBEIXZ 00596e00 f i Unit.obj
 0002:0003fe60       ?max_size@?$allocator@U?$_Tree_node@U?$pair@$$CBEU_BUFF_TYPE4_INFO@@@std@@PAX@std@@@std@@QBEIXZ 00596e60 f i Unit.obj
 0002:0003fea0       ?max_size@?$allocator_traits@V?$allocator@U?$_Tree_node@U?$pair@$$CBEU_BUFF_TYPE4_INFO@@@std@@PAX@std@@@std@@@std@@SAIABV?$allocator@U?$_Tree_node@U?$pair@$$CBEU_BUFF_TYPE4_INFO@@@std@@PAX@std@@@2@@Z 00596ea0 f i Unit.obj
 0002:0003fef0       ?pointer_to@?$pointer_traits@PAU?$pair@$$CBEF@std@@@std@@SAPAU?$pair@$$CBEF@2@AAU32@@Z 00596ef0 f i Unit.obj
 0002:0003ff40       ?pointer_to@?$pointer_traits@PAU?$pair@$$CBEV?$map@EFU?$less@E@std@@V?$allocator@U?$pair@$$CBEF@std@@@2@@std@@@std@@@std@@SAPAU?$pair@$$CBEV?$map@EFU?$less@E@std@@V?$allocator@U?$pair@$$CBEF@std@@@2@@std@@@2@AAU32@@Z 00596f40 f i Unit.obj
 0002:0003ff90       ?pointer_to@?$pointer_traits@PAU?$pair@$$CBIPAU_MAGIC_TYPE1@@@std@@@std@@SAPAU?$pair@$$CBIPAU_MAGIC_TYPE1@@@2@AAU32@@Z 00596f90 f i Unit.obj
 0002:0003ffe0       ?pointer_to@?$pointer_traits@PAU?$pair@$$CBIPAU_MAGIC_TYPE2@@@std@@@std@@SAPAU?$pair@$$CBIPAU_MAGIC_TYPE2@@@2@AAU32@@Z 00596fe0 f i Unit.obj
 0002:00040030       ?pow@@YAMMM@Z              00597030 f i Unit.obj
 0002:000400a0       ?select_on_container_copy_construction@?$_Wrap_alloc@V?$allocator@U?$_Tree_node@U?$pair@$$CBEU_BUFF_TYPE4_INFO@@@std@@PAX@std@@@std@@@std@@QBE?AU12@XZ 005970a0 f i Unit.obj
 0002:00040110       ?select_on_container_copy_construction@?$allocator@U?$_Tree_node@U?$pair@$$CBEU_BUFF_TYPE4_INFO@@@std@@PAX@std@@@std@@QBE?AV12@XZ 00597110 f i Unit.obj
 0002:00040170       ?select_on_container_copy_construction@?$allocator_traits@V?$allocator@U?$_Tree_node@U?$pair@$$CBEU_BUFF_TYPE4_INFO@@@std@@PAX@std@@@std@@@std@@SA?AV?$allocator@U?$_Tree_node@U?$pair@$$CBEU_BUFF_TYPE4_INFO@@@std@@PAX@std@@@2@ABV32@@Z 00597170 f i Unit.obj
 0002:000401d0       ?size@?$_Tree@V?$_Tmap_traits@EFU?$less@E@std@@V?$allocator@U?$pair@$$CBEF@std@@@2@$0A@@std@@@std@@QBEIXZ 005971d0 f i Unit.obj
 0002:00040210       ?size@?$_Tree@V?$_Tmap_traits@EU_BUFF_TYPE4_INFO@@U?$less@E@std@@V?$allocator@U?$pair@$$CBEU_BUFF_TYPE4_INFO@@@std@@@3@$0A@@std@@@std@@QBEIXZ 00597210 f i Unit.obj
 0002:00040250       ?size@?$_Tree@V?$_Tmap_traits@EV?$map@EFU?$less@E@std@@V?$allocator@U?$pair@$$CBEF@std@@@2@@std@@U?$less@E@2@V?$allocator@U?$pair@$$CBEV?$map@EFU?$less@E@std@@V?$allocator@U?$pair@$$CBEF@std@@@2@@std@@@std@@@2@$0A@@std@@@std@@QBEIXZ 00597250 f i Unit.obj
 0002:00040290       _powf                      00597290 f i Unit.obj
 0002:00040330       _sqrtf                     00597330 f i Unit.obj
 0002:000403b0       ??$_Allocate@D@std@@YAPADIPAD@Z 005973b0 f i N3ShapeMgr.obj
 0002:00040430       ??$_Debug_pointer@D@std@@YAXPBDPB_WI@Z 00597430 f i N3ShapeMgr.obj
 0002:00040490       ??$addressof@D@std@@YAPADAAD@Z 00597490 f i N3ShapeMgr.obj
 0002:000404d0       ??$construct@PADAAPAD@?$_Wrap_alloc@V?$allocator@D@std@@@std@@QAEXPAPADAAPAD@Z 005974d0 f i N3ShapeMgr.obj
 0002:00040540       ??$construct@PADAAPAD@?$allocator@D@std@@QAEXPAPADAAPAD@Z 00597540 f i N3ShapeMgr.obj
 0002:00040640       ??$construct@PADAAPAD@?$allocator_traits@V?$allocator@D@std@@@std@@SAXAAV?$allocator@D@1@PAPADAAPAD@Z 00597640 f i N3ShapeMgr.obj
 0002:000406a0       ??$destroy@PAD@?$_Wrap_alloc@V?$allocator@D@std@@@std@@QAEXPAPAD@Z 005976a0 f i N3ShapeMgr.obj
 0002:00040700       ??$destroy@PAD@?$allocator@D@std@@QAEXPAPAD@Z 00597700 f i N3ShapeMgr.obj
 0002:00040740       ??$destroy@PAD@?$allocator_traits@V?$allocator@D@std@@@std@@SAXAAV?$allocator@D@1@PAPAD@Z 00597740 f i N3ShapeMgr.obj
 0002:00040790       ??$forward@AAPAD@std@@YAAAPADAAPAD@Z 00597790 f i N3ShapeMgr.obj
 0002:000407d0       ??0?$_String_alloc@$0A@U?$_String_base_types@DV?$allocator@D@std@@@std@@@std@@QAE@ABV?$allocator@D@1@@Z 005977d0 f i N3ShapeMgr.obj
 0002:00040880       ??0?$_String_val@U?$_Simple_types@D@std@@@std@@QAE@XZ 00597880 f i N3ShapeMgr.obj
 0002:000408f0       ??0?$_Wrap_alloc@V?$allocator@D@std@@@std@@QAE@XZ 005978f0 f i N3ShapeMgr.obj
 0002:00040950       ??0?$allocator@D@std@@QAE@XZ 00597950 f i N3ShapeMgr.obj
 0002:00040990       ??0?$basic_string@DU?$char_traits@D@std@@V?$allocator@D@2@@std@@QAE@PBD@Z 00597990 f i N3ShapeMgr.obj
 0002:00040a60       ??0CN3ShapeMgr@@QAE@XZ     00597a60 f   N3ShapeMgr.obj
 0002:00040b10       ??0_Generic_error_category@std@@QAE@XZ 00597b10 f i N3ShapeMgr.obj
 0002:00040b70       ??0_Ignore@std@@QAE@XZ     00597b70 f i N3ShapeMgr.obj
 0002:00040bb0       ??0_Iostream_error_category@std@@QAE@XZ 00597bb0 f i N3ShapeMgr.obj
 0002:00040c10       ??0_System_error_category@std@@QAE@XZ 00597c10 f i N3ShapeMgr.obj
 0002:00040c70       ??0__CellMain@CN3ShapeMgr@@QAE@XZ 00597c70 f i N3ShapeMgr.obj
 0002:00040cf0       ??0__CellSub@CN3ShapeMgr@@QAE@XZ 00597cf0 f i N3ShapeMgr.obj
 0002:00040d50       ??0__Vector3@@QAE@XZ       00597d50 f i N3ShapeMgr.obj
 0002:00040d90       ??0error_category@std@@QAE@XZ 00597d90 f i N3ShapeMgr.obj
 0002:00040de0       ??0error_condition@std@@QAE@HABVerror_category@1@@Z 00597de0 f i N3ShapeMgr.obj
 0002:00040e30       ??0id@locale@std@@QAE@I@Z  00597e30 f i N3ShapeMgr.obj
 0002:00040e80       ??1?$_String_alloc@$0A@U?$_String_base_types@DV?$allocator@D@std@@@std@@@std@@QAE@XZ 00597e80 f i N3ShapeMgr.obj
 0002:00040ee0       ??1?$_String_val@U?$_Simple_types@D@std@@@std@@QAE@XZ 00597ee0 f i N3ShapeMgr.obj
 0002:00040f30       ??1CN3ShapeMgr@@UAE@XZ     00597f30 f   N3ShapeMgr.obj
 0002:00041070       ??1_Generic_error_category@std@@UAE@XZ 00598070 f i N3ShapeMgr.obj
 0002:000410c0       ??1_Iostream_error_category@std@@UAE@XZ 005980c0 f i N3ShapeMgr.obj
 0002:00041110       ??1_System_error_category@std@@UAE@XZ 00598110 f i N3ShapeMgr.obj
 0002:00041160       ??1__CellMain@CN3ShapeMgr@@QAE@XZ 00598160 f i N3ShapeMgr.obj
 0002:000411f0       ??1__CellSub@CN3ShapeMgr@@QAE@XZ 005981f0 f i N3ShapeMgr.obj
 0002:00041260       ??1error_category@std@@UAE@XZ 00598260 f i N3ShapeMgr.obj
 0002:000412a0       ??8error_category@std@@QBE_NABV01@@Z 005982a0 f i N3ShapeMgr.obj
 0002:00041310       ??8error_condition@std@@QBE_NABV01@@Z 00598310 f i N3ShapeMgr.obj
 0002:000413c0       ??_GCN3ShapeMgr@@UAEPAXI@Z 005983c0 f i N3ShapeMgr.obj
 0002:000413c0       ??_ECN3ShapeMgr@@UAEPAXI@Z 005983c0 f i N3ShapeMgr.obj
 0002:00041430       ??_E_Generic_error_category@std@@UAEPAXI@Z 00598430 f i N3ShapeMgr.obj
 0002:00041430       ??_G_Generic_error_category@std@@UAEPAXI@Z 00598430 f i N3ShapeMgr.obj
 0002:000414a0       ??_E_Iostream_error_category@std@@UAEPAXI@Z 005984a0 f i N3ShapeMgr.obj
 0002:000414a0       ??_G_Iostream_error_category@std@@UAEPAXI@Z 005984a0 f i N3ShapeMgr.obj
 0002:00041510       ??_G_System_error_category@std@@UAEPAXI@Z 00598510 f i N3ShapeMgr.obj
 0002:00041510       ??_E_System_error_category@std@@UAEPAXI@Z 00598510 f i N3ShapeMgr.obj
 0002:00041580       ??_G__CellMain@CN3ShapeMgr@@QAEPAXI@Z 00598580 f i N3ShapeMgr.obj
 0002:000415f0       ??_Eerror_category@std@@UAEPAXI@Z 005985f0 f i N3ShapeMgr.obj
 0002:000415f0       ??_Gerror_category@std@@UAEPAXI@Z 005985f0 f i N3ShapeMgr.obj
 0002:00041660       ?Create@CN3ShapeMgr@@QAE_NMM@Z 00598660 f   N3ShapeMgr.obj
 0002:00041710       ?Load@__CellMain@CN3ShapeMgr@@QAEXPAU_iobuf@@@Z 00598710 f i N3ShapeMgr.obj
 0002:000418d0       ?Load@__CellSub@CN3ShapeMgr@@QAEXPAU_iobuf@@@Z 005988d0 f i N3ShapeMgr.obj
 0002:00041a30       ?LoadCollisionData@CN3ShapeMgr@@QAE_NPAU_iobuf@@@Z 00598a30 f   N3ShapeMgr.obj
 0002:00041fa0       ?_Alloc_proxy@?$_String_alloc@$0A@U?$_String_base_types@DV?$allocator@D@std@@@std@@@std@@QAEXXZ 00598fa0 f i N3ShapeMgr.obj
 0002:00042070       ?_Copy@?$basic_string@DU?$char_traits@D@std@@V?$allocator@D@2@@std@@QAEXII@Z 00599070 f i N3ShapeMgr.obj
 0002:00042330       ?_Eos@?$basic_string@DU?$char_traits@D@std@@V?$allocator@D@2@@std@@QAEXI@Z 00599330 f i N3ShapeMgr.obj
 0002:000423b0       ?_Free_proxy@?$_String_alloc@$0A@U?$_String_base_types@DV?$allocator@D@std@@@std@@@std@@QAEXXZ 005993b0 f i N3ShapeMgr.obj
 0002:00042480       ?_Getal@?$_String_alloc@$0A@U?$_String_base_types@DV?$allocator@D@std@@@std@@@std@@QBE?AU?$_Wrap_alloc@V?$allocator@D@std@@@2@XZ 00599480 f i N3ShapeMgr.obj
 0002:000424e0       ?_Grow@?$basic_string@DU?$char_traits@D@std@@V?$allocator@D@2@@std@@QAE_NI_N@Z 005994e0 f i N3ShapeMgr.obj
 0002:00042600       ?_Inside@?$basic_string@DU?$char_traits@D@std@@V?$allocator@D@2@@std@@QAE_NPBD@Z 00599600 f i N3ShapeMgr.obj
 0002:00042680       ?_Myptr@?$_String_val@U?$_Simple_types@D@std@@@std@@QAEPADXZ 00599680 f i N3ShapeMgr.obj
 0002:00042710       ?_Myptr@?$_String_val@U?$_Simple_types@D@std@@@std@@QBEPBDXZ 00599710 f i N3ShapeMgr.obj
 0002:000427a0       ?_Tidy@?$basic_string@DU?$char_traits@D@std@@V?$allocator@D@2@@std@@QAEX_NI@Z 005997a0 f i N3ShapeMgr.obj
 0002:000428b0       ?_Xlen@?$basic_string@DU?$char_traits@D@std@@V?$allocator@D@2@@std@@QBEXXZ 005998b0 f i N3ShapeMgr.obj
 0002:00042910       ?_Xran@?$basic_string@DU?$char_traits@D@std@@V?$allocator@D@2@@std@@QBEXXZ 00599910 f i N3ShapeMgr.obj
 0002:00042970       ?allocate@?$_Wrap_alloc@V?$allocator@D@std@@@std@@QAEPADI@Z 00599970 f i N3ShapeMgr.obj
 0002:000429d0       ?allocate@?$allocator@D@std@@QAEPADI@Z 005999d0 f i N3ShapeMgr.obj
 0002:00042a30       ?assign@?$basic_string@DU?$char_traits@D@std@@V?$allocator@D@2@@std@@QAEAAV12@ABV12@II@Z 00599a30 f i N3ShapeMgr.obj
 0002:00042b40       ?assign@?$basic_string@DU?$char_traits@D@std@@V?$allocator@D@2@@std@@QAEAAV12@PBD@Z 00599b40 f i N3ShapeMgr.obj
 0002:00042bd0       ?assign@?$basic_string@DU?$char_traits@D@std@@V?$allocator@D@2@@std@@QAEAAV12@PBDI@Z 00599bd0 f i N3ShapeMgr.obj
 0002:00042cd0       ?assign@?$char_traits@D@std@@SAXAADABD@Z 00599cd0 f i N3ShapeMgr.obj
 0002:00042d10       ?category@error_code@std@@QBEABVerror_category@2@XZ 00599d10 f i N3ShapeMgr.obj
 0002:00042d50       ?category@error_condition@std@@QBEABVerror_category@2@XZ 00599d50 f i N3ShapeMgr.obj
 0002:00042d90       ?copy@?$char_traits@D@std@@SAPADPADPBDI@Z 00599d90 f i N3ShapeMgr.obj
 0002:00042e10       ?deallocate@?$_Wrap_alloc@V?$allocator@D@std@@@std@@QAEXPADI@Z 00599e10 f i N3ShapeMgr.obj
 0002:00042e70       ?deallocate@?$allocator@D@std@@QAEXPADI@Z 00599e70 f i N3ShapeMgr.obj
 0002:00042ed0       ?default_error_condition@_System_error_category@std@@UBE?AVerror_condition@2@H@Z 00599ed0 f i N3ShapeMgr.obj
 0002:00042f70       ?default_error_condition@error_category@std@@UBE?AVerror_condition@2@H@Z 00599f70 f i N3ShapeMgr.obj
 0002:00042fd0       ?equivalent@error_category@std@@UBE_NABVerror_code@2@H@Z 00599fd0 f i N3ShapeMgr.obj
 0002:00043070       ?equivalent@error_category@std@@UBE_NHABVerror_condition@2@@Z 0059a070 f i N3ShapeMgr.obj
 0002:000430f0       ?erase@?$basic_string@DU?$char_traits@D@std@@V?$allocator@D@2@@std@@QAEAAV12@I@Z 0059a0f0 f i N3ShapeMgr.obj
 0002:00043170       ?erase@?$basic_string@DU?$char_traits@D@std@@V?$allocator@D@2@@std@@QAEAAV12@II@Z 0059a170 f i N3ShapeMgr.obj
 0002:00043250       ?generic_category@std@@YAABVerror_category@1@XZ 0059a250 f i N3ShapeMgr.obj
 0002:00043290       ?length@?$char_traits@D@std@@SAIPBD@Z 0059a290 f i N3ShapeMgr.obj
 0002:00043310       ?max_size@?$_Wrap_alloc@V?$allocator@D@std@@@std@@QBEIXZ 0059a310 f i N3ShapeMgr.obj
 0002:00043370       ?max_size@?$allocator@D@std@@QBEIXZ 0059a370 f i N3ShapeMgr.obj
 0002:000433b0       ?max_size@?$allocator_traits@V?$allocator@D@std@@@std@@SAIABV?$allocator@D@2@@Z 0059a3b0 f i N3ShapeMgr.obj
 0002:00043400       ?max_size@?$basic_string@DU?$char_traits@D@std@@V?$allocator@D@2@@std@@QBEIXZ 0059a400 f i N3ShapeMgr.obj
 0002:000434a0       ?message@_Generic_error_category@std@@UBE?AV?$basic_string@DU?$char_traits@D@std@@V?$allocator@D@2@@2@H@Z 0059a4a0 f i N3ShapeMgr.obj
 0002:00043560       ?message@_Iostream_error_category@std@@UBE?AV?$basic_string@DU?$char_traits@D@std@@V?$allocator@D@2@@2@H@Z 0059a560 f i N3ShapeMgr.obj
 0002:00043620       ?message@_System_error_category@std@@UBE?AV?$basic_string@DU?$char_traits@D@std@@V?$allocator@D@2@@2@H@Z 0059a620 f i N3ShapeMgr.obj
 0002:000436e0       ?move@?$char_traits@D@std@@SAPADPADPBDI@Z 0059a6e0 f i N3ShapeMgr.obj
 0002:00043760       ?name@_Generic_error_category@std@@UBEPBDXZ 0059a760 f i N3ShapeMgr.obj
 0002:000437a0       ?name@_Iostream_error_category@std@@UBEPBDXZ 0059a7a0 f i N3ShapeMgr.obj
 0002:000437e0       ?name@_System_error_category@std@@UBEPBDXZ 0059a7e0 f i N3ShapeMgr.obj
 0002:00043820       ?size@?$basic_string@DU?$char_traits@D@std@@V?$allocator@D@2@@std@@QBEIXZ 0059a820 f i N3ShapeMgr.obj
 0002:00043860       ?system_category@std@@YAABVerror_category@1@XZ 0059a860 f i N3ShapeMgr.obj
 0002:000438a0       ?unlock@CN3ShapeMgr@@QAEXXZ 0059a8a0 f   N3ShapeMgr.obj
 0002:00043a40       ?value@error_code@std@@QBEHXZ 0059aa40 f i N3ShapeMgr.obj
 0002:00043a80       ?value@error_condition@std@@QBEHXZ 0059aa80 f i N3ShapeMgr.obj
 0002:00043ac0       ??$?0$$CBEF@?$pair@$$CBEF@std@@QAE@$$QAU01@PAPAX@Z 0059aac0 f i GameSocket.obj
 0002:00043b50       ??$?0AAEAAF@?$pair@EF@std@@QAE@AAEAAFPAPAX@Z 0059ab50 f i GameSocket.obj
 0002:00043bd0       ??$?0AAIAAPAU_PARTY_GROUP@@@?$pair@IPAU_PARTY_GROUP@@@std@@QAE@AAIAAPAU_PARTY_GROUP@@PAPAX@Z 0059abd0 f i GameSocket.obj
 0002:00043c50       ??$?0AAV?$_Tree_iterator@V?$_Tree_val@U?$_Tree_simple_types@U?$pair@$$CBEF@std@@@std@@@std@@@std@@_N@?$pair@V?$_Tree_iterator@V?$_Tree_val@U?$_Tree_simple_types@U?$pair@$$CBEF@std@@@std@@@std@@@std@@_N@std@@QAE@AAV?$_Tree_iterator@V?$_Tree_val@U?$_Tree_simple_types@U?$pair@$$CBEF@std@@@std@@@std@@@1@$$QA_NPAPAX@Z 0059ac50 f i GameSocket.obj
 0002:00043d20       ??$?0AAV?$_Tree_iterator@V?$_Tree_val@U?$_Tree_simple_types@U?$pair@$$CBEV?$map@EFU?$less@E@std@@V?$allocator@U?$pair@$$CBEF@std@@@2@@std@@@std@@@std@@@std@@@std@@_N@?$pair@V?$_Tree_iterator@V?$_Tree_val@U?$_Tree_simple_types@U?$pair@$$CBEV?$map@EFU?$less@E@std@@V?$allocator@U?$pair@$$CBEF@std@@@2@@std@@@std@@@std@@@std@@@std@@_N@std@@QAE@AAV?$_Tree_iterator@V?$_Tree_val@U?$_Tree_simple_types@U?$pair@$$CBEV?$map@EFU?$less@E@std@@V?$allocator@U?$pair@$$CBEF@std@@@2@@std@@@std@@@std@@@std@@@1@$$QA_NPAPAX@Z 0059ad20 f i GameSocket.obj
 0002:00043df0       ??$?0AAV?$_Tree_iterator@V?$_Tree_val@U?$_Tree_simple_types@U?$pair@$$CBIPAU_PARTY_GROUP@@@std@@@std@@@std@@@std@@_N@?$pair@V?$_Tree_iterator@V?$_Tree_val@U?$_Tree_simple_types@U?$pair@$$CBIPAU_PARTY_GROUP@@@std@@@std@@@std@@@std@@_N@std@@QAE@AAV?$_Tree_iterator@V?$_Tree_val@U?$_Tree_simple_types@U?$pair@$$CBIPAU_PARTY_GROUP@@@std@@@std@@@std@@@1@$$QA_NPAPAX@Z 0059adf0 f i GameSocket.obj
 0002:00043ec0       ??$?0ABEV?$map@EFU?$less@E@std@@V?$allocator@U?$pair@$$CBEF@std@@@2@@std@@@?$pair@EV?$map@EFU?$less@E@std@@V?$allocator@U?$pair@$$CBEF@std@@@2@@std@@@std@@QAE@ABE$$QAV?$map@EFU?$less@E@std@@V?$allocator@U?$pair@$$CBEF@std@@@2@@1@PAPAX@Z 0059aec0 f i GameSocket.obj
 0002:00043f40       ??$?0EF@?$pair@$$CBEF@std@@QAE@$$QAU?$pair@EF@1@PAPAX@Z 0059af40 f i GameSocket.obj
 0002:00043fd0       ??$?0EF@?$pair@EF@std@@QAE@$$QAU01@PAPAX@Z 0059afd0 f i GameSocket.obj
 0002:00044060       ??$?0EV?$map@EFU?$less@E@std@@V?$allocator@U?$pair@$$CBEF@std@@@2@@std@@@?$pair@$$CBEV?$map@EFU?$less@E@std@@V?$allocator@U?$pair@$$CBEF@std@@@2@@std@@@std@@QAE@$$QAU?$pair@EV?$map@EFU?$less@E@std@@V?$allocator@U?$pair@$$CBEF@std@@@2@@std@@@1@PAPAX@Z 0059b060 f i GameSocket.obj
 0002:000440f0       ??$?0IPAU_PARTY_GROUP@@@?$pair@$$CBIPAU_PARTY_GROUP@@@std@@QAE@$$QAU?$pair@IPAU_PARTY_GROUP@@@1@PAPAX@Z 0059b0f0 f i GameSocket.obj
 0002:00044170       ??$?0IPAU_PARTY_GROUP@@@?$pair@IPAU_PARTY_GROUP@@@std@@QAE@$$QAU01@PAPAX@Z 0059b170 f i GameSocket.obj
 0002:000441f0       ??$?0U?$_Tree_node@U?$pair@$$CBEF@std@@PAX@std@@@?$allocator@U?$pair@$$CBEF@std@@@std@@QAE@ABV?$allocator@U?$_Tree_node@U?$pair@$$CBEF@std@@PAX@std@@@1@@Z 0059b1f0 f i GameSocket.obj
 0002:00044230       ??$?0V?$_Tree_iterator@V?$_Tree_val@U?$_Tree_simple_types@U?$pair@$$CBEF@std@@@std@@@std@@@std@@_N@?$pair@V?$_Tree_iterator@V?$_Tree_val@U?$_Tree_simple_types@U?$pair@$$CBEF@std@@@std@@@std@@@std@@_N@std@@QAE@$$QAU01@PAPAX@Z 0059b230 f i GameSocket.obj
 0002:00044300       ??$?0V?$_Tree_iterator@V?$_Tree_val@U?$_Tree_simple_types@U?$pair@$$CBEF@std@@@std@@@std@@@std@@_N@?$pair@V?$_Tree_iterator@V?$_Tree_val@U?$_Tree_simple_types@U?$pair@$$CBEF@std@@@std@@@std@@@std@@_N@std@@QAE@$$QAV?$_Tree_iterator@V?$_Tree_val@U?$_Tree_simple_types@U?$pair@$$CBEF@std@@@std@@@std@@@1@$$QA_NPAPAX@Z 0059b300 f i GameSocket.obj
 0002:000443d0       ??$?0V?$_Tree_iterator@V?$_Tree_val@U?$_Tree_simple_types@U?$pair@$$CBEV?$map@EFU?$less@E@std@@V?$allocator@U?$pair@$$CBEF@std@@@2@@std@@@std@@@std@@@std@@@std@@_N@?$pair@V?$_Tree_iterator@V?$_Tree_val@U?$_Tree_simple_types@U?$pair@$$CBEV?$map@EFU?$less@E@std@@V?$allocator@U?$pair@$$CBEF@std@@@2@@std@@@std@@@std@@@std@@@std@@_N@std@@QAE@$$QAU01@PAPAX@Z 0059b3d0 f i GameSocket.obj
 0002:000444a0       ??$?0V?$_Tree_iterator@V?$_Tree_val@U?$_Tree_simple_types@U?$pair@$$CBEV?$map@EFU?$less@E@std@@V?$allocator@U?$pair@$$CBEF@std@@@2@@std@@@std@@@std@@@std@@@std@@_N@?$pair@V?$_Tree_iterator@V?$_Tree_val@U?$_Tree_simple_types@U?$pair@$$CBEV?$map@EFU?$less@E@std@@V?$allocator@U?$pair@$$CBEF@std@@@2@@std@@@std@@@std@@@std@@@std@@_N@std@@QAE@$$QAV?$_Tree_iterator@V?$_Tree_val@U?$_Tree_simple_types@U?$pair@$$CBEV?$map@EFU?$less@E@std@@V?$allocator@U?$pair@$$CBEF@std@@@2@@std@@@std@@@std@@@std@@@1@$$QA_NPAPAX@Z 0059b4a0 f i GameSocket.obj
 0002:00044570       ??$?0V?$_Tree_iterator@V?$_Tree_val@U?$_Tree_simple_types@U?$pair@$$CBIPAU_PARTY_GROUP@@@std@@@std@@@std@@@std@@_N@?$pair@V?$_Tree_iterator@V?$_Tree_val@U?$_Tree_simple_types@U?$pair@$$CBIPAU_PARTY_GROUP@@@std@@@std@@@std@@@std@@_N@std@@QAE@$$QAU01@PAPAX@Z 0059b570 f i GameSocket.obj
 0002:00044640       ??$?0V?$_Tree_iterator@V?$_Tree_val@U?$_Tree_simple_types@U?$pair@$$CBIPAU_PARTY_GROUP@@@std@@@std@@@std@@@std@@_N@?$pair@V?$_Tree_iterator@V?$_Tree_val@U?$_Tree_simple_types@U?$pair@$$CBIPAU_PARTY_GROUP@@@std@@@std@@@std@@@std@@_N@std@@QAE@$$QAV?$_Tree_iterator@V?$_Tree_val@U?$_Tree_simple_types@U?$pair@$$CBIPAU_PARTY_GROUP@@@std@@@std@@@std@@@1@$$QA_NPAPAX@Z 0059b640 f i GameSocket.obj
 0002:00044710       ??$?8U?$_Tree_node@U?$pair@$$CBEF@std@@PAX@std@@U01@@std@@YA_NABV?$allocator@U?$_Tree_node@U?$pair@$$CBEF@std@@PAX@std@@@0@0@Z 0059b710 f i GameSocket.obj
 0002:00044740       ??$?8V?$allocator@U?$_Tree_node@U?$pair@$$CBEF@std@@PAX@std@@@std@@V01@@std@@YA_NABU?$_Wrap_alloc@V?$allocator@U?$_Tree_node@U?$pair@$$CBEF@std@@PAX@std@@@std@@@0@0@Z 0059b740 f i GameSocket.obj
 0002:000447b0       ??$?9V?$allocator@U?$_Tree_node@U?$pair@$$CBEF@std@@PAX@std@@@std@@V01@@std@@YA_NABU?$_Wrap_alloc@V?$allocator@U?$_Tree_node@U?$pair@$$CBEF@std@@PAX@std@@@std@@@0@0@Z 0059b7b0 f i GameSocket.obj
 0002:00044830       ??$_Allocate@U?$_Tree_node@U?$pair@$$CBEF@std@@PAX@std@@@std@@YAPAU?$_Tree_node@U?$pair@$$CBEF@std@@PAX@0@IPAU10@@Z 0059b830 f i GameSocket.obj
 0002:000448c0       ??$_Allocate@U?$_Tree_node@U?$pair@$$CBIPAU_PARTY_GROUP@@@std@@PAX@std@@@std@@YAPAU?$_Tree_node@U?$pair@$$CBIPAU_PARTY_GROUP@@@std@@PAX@0@IPAU10@@Z 0059b8c0 f i GameSocket.obj
 0002:00044950       ??$_Buynode@AAU?$pair@$$CBEF@std@@@?$_Tree_buy@U?$pair@$$CBEF@std@@V?$allocator@U?$pair@$$CBEF@std@@@2@@std@@QAEPAU?$_Tree_node@U?$pair@$$CBEF@std@@PAX@1@AAU?$pair@$$CBEF@1@@Z 0059b950 f i GameSocket.obj
 0002:00044ac0       ??$_Buynode@U?$pair@$$CBEF@std@@@?$_Tree_buy@U?$pair@$$CBEF@std@@V?$allocator@U?$pair@$$CBEF@std@@@2@@std@@QAEPAU?$_Tree_node@U?$pair@$$CBEF@std@@PAX@1@$$QAU?$pair@$$CBEF@1@@Z 0059bac0 f i GameSocket.obj
 0002:00044c30       ??$_Buynode@U?$pair@EF@std@@@?$_Tree_buy@U?$pair@$$CBEF@std@@V?$allocator@U?$pair@$$CBEF@std@@@2@@std@@QAEPAU?$_Tree_node@U?$pair@$$CBEF@std@@PAX@1@$$QAU?$pair@EF@1@@Z 0059bc30 f i GameSocket.obj
 0002:00044da0       ??$_Buynode@U?$pair@EV?$map@EFU?$less@E@std@@V?$allocator@U?$pair@$$CBEF@std@@@2@@std@@@std@@@?$_Tree_buy@U?$pair@$$CBEV?$map@EFU?$less@E@std@@V?$allocator@U?$pair@$$CBEF@std@@@2@@std@@@std@@V?$allocator@U?$pair@$$CBEV?$map@EFU?$less@E@std@@V?$allocator@U?$pair@$$CBEF@std@@@2@@std@@@std@@@2@@std@@QAEPAU?$_Tree_node@U?$pair@$$CBEV?$map@EFU?$less@E@std@@V?$allocator@U?$pair@$$CBEF@std@@@2@@std@@@std@@PAX@1@$$QAU?$pair@EV?$map@EFU?$less@E@std@@V?$allocator@U?$pair@$$CBEF@std@@@2@@std@@@1@@Z 0059bda0 f i GameSocket.obj
 0002:00044f10       ??$_Buynode@U?$pair@IPAU_PARTY_GROUP@@@std@@@?$_Tree_buy@U?$pair@$$CBIPAU_PARTY_GROUP@@@std@@V?$allocator@U?$pair@$$CBIPAU_PARTY_GROUP@@@std@@@2@@std@@QAEPAU?$_Tree_node@U?$pair@$$CBIPAU_PARTY_GROUP@@@std@@PAX@1@$$QAU?$pair@IPAU_PARTY_GROUP@@@1@@Z 0059bf10 f i GameSocket.obj
 0002:00045080       ??$_Buynode_if_nil@AAU?$pair@$$CBEF@std@@@?$_Tree@V?$_Tmap_traits@EFU?$less@E@std@@V?$allocator@U?$pair@$$CBEF@std@@@2@$0A@@std@@@std@@IAEPAU?$_Tree_node@U?$pair@$$CBEF@std@@PAX@1@PAU21@AAU?$pair@$$CBEF@1@@Z 0059c080 f i GameSocket.obj
 0002:000450c0       ??$_Buynode_if_nil@AAU?$pair@$$CBEV?$map@EFU?$less@E@std@@V?$allocator@U?$pair@$$CBEF@std@@@2@@std@@@std@@@?$_Tree@V?$_Tmap_traits@EV?$map@EFU?$less@E@std@@V?$allocator@U?$pair@$$CBEF@std@@@2@@std@@U?$less@E@2@V?$allocator@U?$pair@$$CBEV?$map@EFU?$less@E@std@@V?$allocator@U?$pair@$$CBEF@std@@@2@@std@@@std@@@2@$0A@@std@@@std@@IAEPAU?$_Tree_node@U?$pair@$$CBEV?$map@EFU?$less@E@std@@V?$allocator@U?$pair@$$CBEF@std@@@2@@std@@@std@@PAX@1@PAU21@AAU?$pair@$$CBEV?$map@EFU?$less@E@std@@V?$allocator@U?$pair@$$CBEF@std@@@2@@std@@@1@@Z 0059c0c0 f i GameSocket.obj
 0002:00045100       ??$_Buynode_if_nil@AAU?$pair@$$CBIPAU_PARTY_GROUP@@@std@@@?$_Tree@V?$_Tmap_traits@IPAU_PARTY_GROUP@@U?$less@I@std@@V?$allocator@U?$pair@$$CBIPAU_PARTY_GROUP@@@std@@@3@$0A@@std@@@std@@IAEPAU?$_Tree_node@U?$pair@$$CBIPAU_PARTY_GROUP@@@std@@PAX@1@PAU21@AAU?$pair@$$CBIPAU_PARTY_GROUP@@@1@@Z 0059c100 f i GameSocket.obj
 0002:00045140       ??$_Copy@U?$integral_constant@_N$00@std@@@?$_Tree@V?$_Tmap_traits@EFU?$less@E@std@@V?$allocator@U?$pair@$$CBEF@std@@@2@$0A@@std@@@std@@IAEXABV01@U?$integral_constant@_N$00@1@@Z 0059c140 f i GameSocket.obj
 0002:00045270       ??$_Copy@U?$integral_constant@_N$0A@@std@@@?$_Tree@V?$_Tmap_traits@EFU?$less@E@std@@V?$allocator@U?$pair@$$CBEF@std@@@2@$0A@@std@@@std@@IAEXABV01@U?$integral_constant@_N$0A@@1@@Z 0059c270 f i GameSocket.obj
 0002:000453a0       ??$_Copy_nodes@U?$integral_constant@_N$00@std@@@?$_Tree@V?$_Tmap_traits@EFU?$less@E@std@@V?$allocator@U?$pair@$$CBEF@std@@@2@$0A@@std@@@std@@IAEPAU?$_Tree_node@U?$pair@$$CBEF@std@@PAX@1@PAU21@0U?$integral_constant@_N$00@1@@Z 0059c3a0 f i GameSocket.obj
 0002:000455d0       ??$_Copy_nodes@U?$integral_constant@_N$0A@@std@@@?$_Tree@V?$_Tmap_traits@EFU?$less@E@std@@V?$allocator@U?$pair@$$CBEF@std@@@2@$0A@@std@@@std@@IAEPAU?$_Tree_node@U?$pair@$$CBEF@std@@PAX@1@PAU21@0U?$integral_constant@_N$0A@@1@@Z 0059c5d0 f i GameSocket.obj
 0002:00045800       ??$_Copy_or_move@U?$integral_constant@_N$0A@@std@@U?$integral_constant@_N$00@2@@?$_Tree@V?$_Tmap_traits@EFU?$less@E@std@@V?$allocator@U?$pair@$$CBEF@std@@@2@$0A@@std@@@std@@IAEPAU?$_Tree_node@U?$pair@$$CBEF@std@@PAX@1@PAU21@U?$integral_constant@_N$0A@@1@U?$integral_constant@_N$00@1@@Z 0059c800 f i GameSocket.obj
 0002:00045870       ??$_Insert_at@AAU?$pair@$$CBEF@std@@PAU?$_Tree_node@U?$pair@$$CBEF@std@@PAX@2@@?$_Tree@V?$_Tmap_traits@EFU?$less@E@std@@V?$allocator@U?$pair@$$CBEF@std@@@2@$0A@@std@@@std@@IAE?AV?$_Tree_iterator@V?$_Tree_val@U?$_Tree_simple_types@U?$pair@$$CBEF@std@@@std@@@std@@@1@_NPAU?$_Tree_node@U?$pair@$$CBEF@std@@PAX@1@AAU?$pair@$$CBEF@1@1@Z 0059c870 f i GameSocket.obj
 0002:00045df0       ??$_Insert_at@AAU?$pair@$$CBEV?$map@EFU?$less@E@std@@V?$allocator@U?$pair@$$CBEF@std@@@2@@std@@@std@@PAU?$_Tree_node@U?$pair@$$CBEV?$map@EFU?$less@E@std@@V?$allocator@U?$pair@$$CBEF@std@@@2@@std@@@std@@PAX@2@@?$_Tree@V?$_Tmap_traits@EV?$map@EFU?$less@E@std@@V?$allocator@U?$pair@$$CBEF@std@@@2@@std@@U?$less@E@2@V?$allocator@U?$pair@$$CBEV?$map@EFU?$less@E@std@@V?$allocator@U?$pair@$$CBEF@std@@@2@@std@@@std@@@2@$0A@@std@@@std@@IAE?AV?$_Tree_iterator@V?$_Tree_val@U?$_Tree_simple_types@U?$pair@$$CBEV?$map@EFU?$less@E@std@@V?$allocator@U?$pair@$$CBEF@std@@@2@@std@@@std@@@std@@@std@@@1@_NPAU?$_Tree_node@U?$pair@$$CBEV?$map@EFU?$less@E@std@@V?$allocator@U?$pair@$$CBEF@std@@@2@@std@@@std@@PAX@1@AAU?$pair@$$CBEV?$map@EFU?$less@E@std@@V?$allocator@U?$pair@$$CBEF@std@@@2@@std@@@1@1@Z 0059cdf0 f i GameSocket.obj
 0002:00046370       ??$_Insert_at@AAU?$pair@$$CBIPAU_PARTY_GROUP@@@std@@PAU?$_Tree_node@U?$pair@$$CBIPAU_PARTY_GROUP@@@std@@PAX@2@@?$_Tree@V?$_Tmap_traits@IPAU_PARTY_GROUP@@U?$less@I@std@@V?$allocator@U?$pair@$$CBIPAU_PARTY_GROUP@@@std@@@3@$0A@@std@@@std@@IAE?AV?$_Tree_iterator@V?$_Tree_val@U?$_Tree_simple_types@U?$pair@$$CBIPAU_PARTY_GROUP@@@std@@@std@@@std@@@1@_NPAU?$_Tree_node@U?$pair@$$CBIPAU_PARTY_GROUP@@@std@@PAX@1@AAU?$pair@$$CBIPAU_PARTY_GROUP@@@1@1@Z 0059d370 f i GameSocket.obj
 0002:000468f0       ??$_Insert_hint@AAU?$pair@$$CBEV?$map@EFU?$less@E@std@@V?$allocator@U?$pair@$$CBEF@std@@@2@@std@@@std@@PAU?$_Tree_node@U?$pair@$$CBEV?$map@EFU?$less@E@std@@V?$allocator@U?$pair@$$CBEF@std@@@2@@std@@@std@@PAX@2@@?$_Tree@V?$_Tmap_traits@EV?$map@EFU?$less@E@std@@V?$allocator@U?$pair@$$CBEF@std@@@2@@std@@U?$less@E@2@V?$allocator@U?$pair@$$CBEV?$map@EFU?$less@E@std@@V?$allocator@U?$pair@$$CBEF@std@@@2@@std@@@std@@@2@$0A@@std@@@std@@IAE?AV?$_Tree_iterator@V?$_Tree_val@U?$_Tree_simple_types@U?$pair@$$CBEV?$map@EFU?$less@E@std@@V?$allocator@U?$pair@$$CBEF@std@@@2@@std@@@std@@@std@@@std@@@1@V?$_Tree_const_iterator@V?$_Tree_val@U?$_Tree_simple_types@U?$pair@$$CBEV?$map@EFU?$less@E@std@@V?$allocator@U?$pair@$$CBEF@std@@@2@@std@@@std@@@std@@@std@@@1@AAU?$pair@$$CBEV?$map@EFU?$less@E@std@@V?$allocator@U?$pair@$$CBEF@std@@@2@@std@@@1@PAU?$_Tree_node@U?$pair@$$CBEV?$map@EFU?$less@E@std@@V?$allocator@U?$pair@$$CBEF@std@@@2@@std@@@std@@PAX@1@@Z 0059d8f0 f i GameSocket.obj
 0002:00048040       ??$_Insert_nohint@AAU?$pair@$$CBEF@std@@PAU?$_Tree_node@U?$pair@$$CBEF@std@@PAX@2@@?$_Tree@V?$_Tmap_traits@EFU?$less@E@std@@V?$allocator@U?$pair@$$CBEF@std@@@2@$0A@@std@@@std@@IAE?AU?$pair@V?$_Tree_iterator@V?$_Tree_val@U?$_Tree_simple_types@U?$pair@$$CBEF@std@@@std@@@std@@@std@@_N@1@_NAAU?$pair@$$CBEF@1@PAU?$_Tree_node@U?$pair@$$CBEF@std@@PAX@1@@Z 0059f040 f i GameSocket.obj
 0002:000488b0       ??$_Insert_nohint@AAU?$pair@$$CBEV?$map@EFU?$less@E@std@@V?$allocator@U?$pair@$$CBEF@std@@@2@@std@@@std@@PAU?$_Tree_node@U?$pair@$$CBEV?$map@EFU?$less@E@std@@V?$allocator@U?$pair@$$CBEF@std@@@2@@std@@@std@@PAX@2@@?$_Tree@V?$_Tmap_traits@EV?$map@EFU?$less@E@std@@V?$allocator@U?$pair@$$CBEF@std@@@2@@std@@U?$less@E@2@V?$allocator@U?$pair@$$CBEV?$map@EFU?$less@E@std@@V?$allocator@U?$pair@$$CBEF@std@@@2@@std@@@std@@@2@$0A@@std@@@std@@IAE?AU?$pair@V?$_Tree_iterator@V?$_Tree_val@U?$_Tree_simple_types@U?$pair@$$CBEV?$map@EFU?$less@E@std@@V?$allocator@U?$pair@$$CBEF@std@@@2@@std@@@std@@@std@@@std@@@std@@_N@1@_NAAU?$pair@$$CBEV?$map@EFU?$less@E@std@@V?$allocator@U?$pair@$$CBEF@std@@@2@@std@@@1@PAU?$_Tree_node@U?$pair@$$CBEV?$map@EFU?$less@E@std@@V?$allocator@U?$pair@$$CBEF@std@@@2@@std@@@std@@PAX@1@@Z 0059f8b0 f i GameSocket.obj
 0002:00049120       ??$_Insert_nohint@AAU?$pair@$$CBIPAU_PARTY_GROUP@@@std@@PAU?$_Tree_node@U?$pair@$$CBIPAU_PARTY_GROUP@@@std@@PAX@2@@?$_Tree@V?$_Tmap_traits@IPAU_PARTY_GROUP@@U?$less@I@std@@V?$allocator@U?$pair@$$CBIPAU_PARTY_GROUP@@@std@@@3@$0A@@std@@@std@@IAE?AU?$pair@V?$_Tree_iterator@V?$_Tree_val@U?$_Tree_simple_types@U?$pair@$$CBIPAU_PARTY_GROUP@@@std@@@std@@@std@@@std@@_N@1@_NAAU?$pair@$$CBIPAU_PARTY_GROUP@@@1@PAU?$_Tree_node@U?$pair@$$CBIPAU_PARTY_GROUP@@@std@@PAX@1@@Z 005a0120 f i GameSocket.obj
 0002:00049990       ??$_Kfn@$$CBEF@?$_Tmap_traits@EFU?$less@E@std@@V?$allocator@U?$pair@$$CBEF@std@@@2@$0A@@std@@SAABEABU?$pair@$$CBEF@1@@Z 005a0990 f i GameSocket.obj
 0002:000499d0       ??$_Kfn@$$CBEV?$map@EFU?$less@E@std@@V?$allocator@U?$pair@$$CBEF@std@@@2@@std@@@?$_Tmap_traits@EV?$map@EFU?$less@E@std@@V?$allocator@U?$pair@$$CBEF@std@@@2@@std@@U?$less@E@2@V?$allocator@U?$pair@$$CBEV?$map@EFU?$less@E@std@@V?$allocator@U?$pair@$$CBEF@std@@@2@@std@@@std@@@2@$0A@@std@@SAABEABU?$pair@$$CBEV?$map@EFU?$less@E@std@@V?$allocator@U?$pair@$$CBEF@std@@@2@@std@@@1@@Z 005a09d0 f i GameSocket.obj
 0002:00049a10       ??$_Kfn@$$CBIPAU_PARTY_GROUP@@@?$_Tmap_traits@IPAU_PARTY_GROUP@@U?$less@I@std@@V?$allocator@U?$pair@$$CBIPAU_PARTY_GROUP@@@std@@@3@$0A@@std@@SAABIABU?$pair@$$CBIPAU_PARTY_GROUP@@@1@@Z 005a0a10 f i GameSocket.obj
 0002:00049a50       ??$_Move@AAI@std@@YA$$QAIAAI@Z 005a0a50 f i GameSocket.obj
 0002:00049a90       ??$_Move@AAPAU?$_Tree_node@U?$pair@$$CBEF@std@@PAX@std@@@std@@YA$$QAPAU?$_Tree_node@U?$pair@$$CBEF@std@@PAX@0@AAPAU10@@Z 005a0a90 f i GameSocket.obj
 0002:00049ad0       ??$_Swap_adl@PAU?$_Tree_node@U?$pair@$$CBEF@std@@PAX@std@@@std@@YAXAAPAU?$_Tree_node@U?$pair@$$CBEF@std@@PAX@0@0@Z 005a0ad0 f i GameSocket.obj
 0002:00049b30       ??$addressof@PAU?$_Tree_node@U?$pair@$$CBIPAU_PARTY_GROUP@@@std@@PAX@std@@@std@@YAPAPAU?$_Tree_node@U?$pair@$$CBIPAU_PARTY_GROUP@@@std@@PAX@0@AAPAU10@@Z 005a0b30 f i GameSocket.obj
 0002:00049b70       ??$addressof@U?$pair@$$CBIPAU_PARTY_GROUP@@@std@@@std@@YAPAU?$pair@$$CBIPAU_PARTY_GROUP@@@0@AAU10@@Z 005a0b70 f i GameSocket.obj
 0002:00049bb0       ??$addressof@U?$pair@$$CBIPAVCNpc@@@std@@@std@@YAPAU?$pair@$$CBIPAVCNpc@@@0@AAU10@@Z 005a0bb0 f i GameSocket.obj
 0002:00049bf0       ??$construct@PAU?$_Tree_node@U?$pair@$$CBEF@std@@PAX@std@@AAPAU12@@?$_Wrap_alloc@V?$allocator@U?$_Tree_node@U?$pair@$$CBEF@std@@PAX@std@@@std@@@std@@QAEXPAPAU?$_Tree_node@U?$pair@$$CBEF@std@@PAX@1@AAPAU21@@Z 005a0bf0 f i GameSocket.obj
 0002:00049c60       ??$construct@PAU?$_Tree_node@U?$pair@$$CBEF@std@@PAX@std@@AAPAU12@@?$allocator@U?$_Tree_node@U?$pair@$$CBEF@std@@PAX@std@@@std@@QAEXPAPAU?$_Tree_node@U?$pair@$$CBEF@std@@PAX@1@AAPAU21@@Z 005a0c60 f i GameSocket.obj
 0002:00049d60       ??$construct@PAU?$_Tree_node@U?$pair@$$CBEF@std@@PAX@std@@AAPAU12@@?$allocator_traits@V?$allocator@U?$_Tree_node@U?$pair@$$CBEF@std@@PAX@std@@@std@@@std@@SAXAAV?$allocator@U?$_Tree_node@U?$pair@$$CBEF@std@@PAX@std@@@1@PAPAU?$_Tree_node@U?$pair@$$CBEF@std@@PAX@1@AAPAU31@@Z 005a0d60 f i GameSocket.obj
 0002:00049dc0       ??$construct@PAU?$_Tree_node@U?$pair@$$CBIPAU_PARTY_GROUP@@@std@@PAX@std@@AAPAU12@@?$_Wrap_alloc@V?$allocator@U?$_Tree_node@U?$pair@$$CBIPAU_PARTY_GROUP@@@std@@PAX@std@@@std@@@std@@QAEXPAPAU?$_Tree_node@U?$pair@$$CBIPAU_PARTY_GROUP@@@std@@PAX@1@AAPAU21@@Z 005a0dc0 f i GameSocket.obj
 0002:00049e30       ??$construct@PAU?$_Tree_node@U?$pair@$$CBIPAU_PARTY_GROUP@@@std@@PAX@std@@AAPAU12@@?$allocator@U?$_Tree_node@U?$pair@$$CBIPAU_PARTY_GROUP@@@std@@PAX@std@@@std@@QAEXPAPAU?$_Tree_node@U?$pair@$$CBIPAU_PARTY_GROUP@@@std@@PAX@1@AAPAU21@@Z 005a0e30 f i GameSocket.obj
 0002:00049f30       ??$construct@PAU?$_Tree_node@U?$pair@$$CBIPAU_PARTY_GROUP@@@std@@PAX@std@@AAPAU12@@?$allocator_traits@V?$allocator@U?$_Tree_node@U?$pair@$$CBIPAU_PARTY_GROUP@@@std@@PAX@std@@@std@@@std@@SAXAAV?$allocator@U?$_Tree_node@U?$pair@$$CBIPAU_PARTY_GROUP@@@std@@PAX@std@@@1@PAPAU?$_Tree_node@U?$pair@$$CBIPAU_PARTY_GROUP@@@std@@PAX@1@AAPAU31@@Z 005a0f30 f i GameSocket.obj
 0002:00049f90       ??$construct@U?$pair@$$CBEF@std@@AAU12@@?$_Wrap_alloc@V?$allocator@U?$_Tree_node@U?$pair@$$CBEF@std@@PAX@std@@@std@@@std@@QAEXPAU?$pair@$$CBEF@1@AAU21@@Z 005a0f90 f i GameSocket.obj
 0002:0004a000       ??$construct@U?$pair@$$CBEF@std@@AAU12@@?$allocator@U?$_Tree_node@U?$pair@$$CBEF@std@@PAX@std@@@std@@QAEXPAU?$pair@$$CBEF@1@AAU21@@Z 005a1000 f i GameSocket.obj
 0002:0004a100       ??$construct@U?$pair@$$CBEF@std@@AAU12@@?$allocator_traits@V?$allocator@U?$_Tree_node@U?$pair@$$CBEF@std@@PAX@std@@@std@@@std@@SAXAAV?$allocator@U?$_Tree_node@U?$pair@$$CBEF@std@@PAX@std@@@1@PAU?$pair@$$CBEF@1@AAU31@@Z 005a1100 f i GameSocket.obj
 0002:0004a160       ??$construct@U?$pair@$$CBEF@std@@U12@@?$_Wrap_alloc@V?$allocator@U?$_Tree_node@U?$pair@$$CBEF@std@@PAX@std@@@std@@@std@@QAEXPAU?$pair@$$CBEF@1@$$QAU21@@Z 005a1160 f i GameSocket.obj
 0002:0004a1d0       ??$construct@U?$pair@$$CBEF@std@@U12@@?$allocator@U?$_Tree_node@U?$pair@$$CBEF@std@@PAX@std@@@std@@QAEXPAU?$pair@$$CBEF@1@$$QAU21@@Z 005a11d0 f i GameSocket.obj
 0002:0004a2d0       ??$construct@U?$pair@$$CBEF@std@@U12@@?$allocator_traits@V?$allocator@U?$_Tree_node@U?$pair@$$CBEF@std@@PAX@std@@@std@@@std@@SAXAAV?$allocator@U?$_Tree_node@U?$pair@$$CBEF@std@@PAX@std@@@1@PAU?$pair@$$CBEF@1@$$QAU31@@Z 005a12d0 f i GameSocket.obj
 0002:0004a330       ??$construct@U?$pair@$$CBEF@std@@U?$pair@EF@2@@?$_Wrap_alloc@V?$allocator@U?$_Tree_node@U?$pair@$$CBEF@std@@PAX@std@@@std@@@std@@QAEXPAU?$pair@$$CBEF@1@$$QAU?$pair@EF@1@@Z 005a1330 f i GameSocket.obj
 0002:0004a3a0       ??$construct@U?$pair@$$CBEF@std@@U?$pair@EF@2@@?$allocator@U?$_Tree_node@U?$pair@$$CBEF@std@@PAX@std@@@std@@QAEXPAU?$pair@$$CBEF@1@$$QAU?$pair@EF@1@@Z 005a13a0 f i GameSocket.obj
 0002:0004a4a0       ??$construct@U?$pair@$$CBEF@std@@U?$pair@EF@2@@?$allocator_traits@V?$allocator@U?$_Tree_node@U?$pair@$$CBEF@std@@PAX@std@@@std@@@std@@SAXAAV?$allocator@U?$_Tree_node@U?$pair@$$CBEF@std@@PAX@std@@@1@PAU?$pair@$$CBEF@1@$$QAU?$pair@EF@1@@Z 005a14a0 f i GameSocket.obj
 0002:0004a500       ??$construct@U?$pair@$$CBEV?$map@EFU?$less@E@std@@V?$allocator@U?$pair@$$CBEF@std@@@2@@std@@@std@@U?$pair@EV?$map@EFU?$less@E@std@@V?$allocator@U?$pair@$$CBEF@std@@@2@@std@@@2@@?$_Wrap_alloc@V?$allocator@U?$_Tree_node@U?$pair@$$CBEV?$map@EFU?$less@E@std@@V?$allocator@U?$pair@$$CBEF@std@@@2@@std@@@std@@PAX@std@@@std@@@std@@QAEXPAU?$pair@$$CBEV?$map@EFU?$less@E@std@@V?$allocator@U?$pair@$$CBEF@std@@@2@@std@@@1@$$QAU?$pair@EV?$map@EFU?$less@E@std@@V?$allocator@U?$pair@$$CBEF@std@@@2@@std@@@1@@Z 005a1500 f i GameSocket.obj
 0002:0004a570       ??$construct@U?$pair@$$CBEV?$map@EFU?$less@E@std@@V?$allocator@U?$pair@$$CBEF@std@@@2@@std@@@std@@U?$pair@EV?$map@EFU?$less@E@std@@V?$allocator@U?$pair@$$CBEF@std@@@2@@std@@@2@@?$allocator@U?$_Tree_node@U?$pair@$$CBEV?$map@EFU?$less@E@std@@V?$allocator@U?$pair@$$CBEF@std@@@2@@std@@@std@@PAX@std@@@std@@QAEXPAU?$pair@$$CBEV?$map@EFU?$less@E@std@@V?$allocator@U?$pair@$$CBEF@std@@@2@@std@@@1@$$QAU?$pair@EV?$map@EFU?$less@E@std@@V?$allocator@U?$pair@$$CBEF@std@@@2@@std@@@1@@Z 005a1570 f i GameSocket.obj
 0002:0004a670       ??$construct@U?$pair@$$CBEV?$map@EFU?$less@E@std@@V?$allocator@U?$pair@$$CBEF@std@@@2@@std@@@std@@U?$pair@EV?$map@EFU?$less@E@std@@V?$allocator@U?$pair@$$CBEF@std@@@2@@std@@@2@@?$allocator_traits@V?$allocator@U?$_Tree_node@U?$pair@$$CBEV?$map@EFU?$less@E@std@@V?$allocator@U?$pair@$$CBEF@std@@@2@@std@@@std@@PAX@std@@@std@@@std@@SAXAAV?$allocator@U?$_Tree_node@U?$pair@$$CBEV?$map@EFU?$less@E@std@@V?$allocator@U?$pair@$$CBEF@std@@@2@@std@@@std@@PAX@std@@@1@PAU?$pair@$$CBEV?$map@EFU?$less@E@std@@V?$allocator@U?$pair@$$CBEF@std@@@2@@std@@@1@$$QAU?$pair@EV?$map@EFU?$less@E@std@@V?$allocator@U?$pair@$$CBEF@std@@@2@@std@@@1@@Z 005a1670 f i GameSocket.obj
 0002:0004a6d0       ??$construct@U?$pair@$$CBIPAU_PARTY_GROUP@@@std@@U?$pair@IPAU_PARTY_GROUP@@@2@@?$_Wrap_alloc@V?$allocator@U?$_Tree_node@U?$pair@$$CBIPAU_PARTY_GROUP@@@std@@PAX@std@@@std@@@std@@QAEXPAU?$pair@$$CBIPAU_PARTY_GROUP@@@1@$$QAU?$pair@IPAU_PARTY_GROUP@@@1@@Z 005a16d0 f i GameSocket.obj
 0002:0004a740       ??$construct@U?$pair@$$CBIPAU_PARTY_GROUP@@@std@@U?$pair@IPAU_PARTY_GROUP@@@2@@?$allocator@U?$_Tree_node@U?$pair@$$CBIPAU_PARTY_GROUP@@@std@@PAX@std@@@std@@QAEXPAU?$pair@$$CBIPAU_PARTY_GROUP@@@1@$$QAU?$pair@IPAU_PARTY_GROUP@@@1@@Z 005a1740 f i GameSocket.obj
 0002:0004a840       ??$construct@U?$pair@$$CBIPAU_PARTY_GROUP@@@std@@U?$pair@IPAU_PARTY_GROUP@@@2@@?$allocator_traits@V?$allocator@U?$_Tree_node@U?$pair@$$CBIPAU_PARTY_GROUP@@@std@@PAX@std@@@std@@@std@@SAXAAV?$allocator@U?$_Tree_node@U?$pair@$$CBIPAU_PARTY_GROUP@@@std@@PAX@std@@@1@PAU?$pair@$$CBIPAU_PARTY_GROUP@@@1@$$QAU?$pair@IPAU_PARTY_GROUP@@@1@@Z 005a1840 f i GameSocket.obj
 0002:0004a8a0       ??$destroy@PAU?$_Tree_node@U?$pair@$$CBIPAU_PARTY_GROUP@@@std@@PAX@std@@@?$_Wrap_alloc@V?$allocator@U?$_Tree_node@U?$pair@$$CBIPAU_PARTY_GROUP@@@std@@PAX@std@@@std@@@std@@QAEXPAPAU?$_Tree_node@U?$pair@$$CBIPAU_PARTY_GROUP@@@std@@PAX@1@@Z 005a18a0 f i GameSocket.obj
 0002:0004a900       ??$destroy@PAU?$_Tree_node@U?$pair@$$CBIPAU_PARTY_GROUP@@@std@@PAX@std@@@?$allocator@U?$_Tree_node@U?$pair@$$CBIPAU_PARTY_GROUP@@@std@@PAX@std@@@std@@QAEXPAPAU?$_Tree_node@U?$pair@$$CBIPAU_PARTY_GROUP@@@std@@PAX@1@@Z 005a1900 f i GameSocket.obj
 0002:0004a940       ??$destroy@PAU?$_Tree_node@U?$pair@$$CBIPAU_PARTY_GROUP@@@std@@PAX@std@@@?$allocator_traits@V?$allocator@U?$_Tree_node@U?$pair@$$CBIPAU_PARTY_GROUP@@@std@@PAX@std@@@std@@@std@@SAXAAV?$allocator@U?$_Tree_node@U?$pair@$$CBIPAU_PARTY_GROUP@@@std@@PAX@std@@@1@PAPAU?$_Tree_node@U?$pair@$$CBIPAU_PARTY_GROUP@@@std@@PAX@1@@Z 005a1940 f i GameSocket.obj
 0002:0004a990       ??$destroy@U?$pair@$$CBIPAU_PARTY_GROUP@@@std@@@?$_Wrap_alloc@V?$allocator@U?$_Tree_node@U?$pair@$$CBIPAU_PARTY_GROUP@@@std@@PAX@std@@@std@@@std@@QAEXPAU?$pair@$$CBIPAU_PARTY_GROUP@@@1@@Z 005a1990 f i GameSocket.obj
 0002:0004a9f0       ??$destroy@U?$pair@$$CBIPAU_PARTY_GROUP@@@std@@@?$allocator@U?$_Tree_node@U?$pair@$$CBIPAU_PARTY_GROUP@@@std@@PAX@std@@@std@@QAEXPAU?$pair@$$CBIPAU_PARTY_GROUP@@@1@@Z 005a19f0 f i GameSocket.obj
 0002:0004aa30       ??$destroy@U?$pair@$$CBIPAU_PARTY_GROUP@@@std@@@?$allocator_traits@V?$allocator@U?$_Tree_node@U?$pair@$$CBIPAU_PARTY_GROUP@@@std@@PAX@std@@@std@@@std@@SAXAAV?$allocator@U?$_Tree_node@U?$pair@$$CBIPAU_PARTY_GROUP@@@std@@PAX@std@@@1@PAU?$pair@$$CBIPAU_PARTY_GROUP@@@1@@Z 005a1a30 f i GameSocket.obj
 0002:0004aa80       ??$forward@$$CBE@std@@YA$$QBEABE@Z 005a1a80 f i GameSocket.obj
 0002:0004aac0       ??$forward@AAF@std@@YAAAFAAF@Z 005a1ac0 f i GameSocket.obj
 0002:0004ab00       ??$forward@AAI@std@@YAAAIAAI@Z 005a1b00 f i GameSocket.obj
 0002:0004ab40       ??$forward@AAPAU?$_Tree_node@U?$pair@$$CBEF@std@@PAX@std@@@std@@YAAAPAU?$_Tree_node@U?$pair@$$CBEF@std@@PAX@0@AAPAU10@@Z 005a1b40 f i GameSocket.obj
 0002:0004ab80       ??$forward@AAPAU?$_Tree_node@U?$pair@$$CBIPAU_PARTY_GROUP@@@std@@PAX@std@@@std@@YAAAPAU?$_Tree_node@U?$pair@$$CBIPAU_PARTY_GROUP@@@std@@PAX@0@AAPAU10@@Z 005a1b80 f i GameSocket.obj
 0002:0004abc0       ??$forward@AAPAU_PARTY_GROUP@@@std@@YAAAPAU_PARTY_GROUP@@AAPAU1@@Z 005a1bc0 f i GameSocket.obj
 0002:0004ac00       ??$forward@AAU?$pair@$$CBEF@std@@@std@@YAAAU?$pair@$$CBEF@0@AAU10@@Z 005a1c00 f i GameSocket.obj
 0002:0004ac40       ??$forward@AAU?$pair@$$CBEV?$map@EFU?$less@E@std@@V?$allocator@U?$pair@$$CBEF@std@@@2@@std@@@std@@@std@@YAAAU?$pair@$$CBEV?$map@EFU?$less@E@std@@V?$allocator@U?$pair@$$CBEF@std@@@2@@std@@@0@AAU10@@Z 005a1c40 f i GameSocket.obj
 0002:0004ac80       ??$forward@AAU?$pair@$$CBIPAU_PARTY_GROUP@@@std@@@std@@YAAAU?$pair@$$CBIPAU_PARTY_GROUP@@@0@AAU10@@Z 005a1c80 f i GameSocket.obj
 0002:0004acc0       ??$forward@AAV?$_Tree_iterator@V?$_Tree_val@U?$_Tree_simple_types@U?$pair@$$CBEF@std@@@std@@@std@@@std@@@std@@YAAAV?$_Tree_iterator@V?$_Tree_val@U?$_Tree_simple_types@U?$pair@$$CBEF@std@@@std@@@std@@@0@AAV10@@Z 005a1cc0 f i GameSocket.obj
 0002:0004ad00       ??$forward@AAV?$_Tree_iterator@V?$_Tree_val@U?$_Tree_simple_types@U?$pair@$$CBEV?$map@EFU?$less@E@std@@V?$allocator@U?$pair@$$CBEF@std@@@2@@std@@@std@@@std@@@std@@@std@@@std@@YAAAV?$_Tree_iterator@V?$_Tree_val@U?$_Tree_simple_types@U?$pair@$$CBEV?$map@EFU?$less@E@std@@V?$allocator@U?$pair@$$CBEF@std@@@2@@std@@@std@@@std@@@std@@@0@AAV10@@Z 005a1d00 f i GameSocket.obj
 0002:0004ad40       ??$forward@AAV?$_Tree_iterator@V?$_Tree_val@U?$_Tree_simple_types@U?$pair@$$CBIPAU_PARTY_GROUP@@@std@@@std@@@std@@@std@@@std@@YAAAV?$_Tree_iterator@V?$_Tree_val@U?$_Tree_simple_types@U?$pair@$$CBIPAU_PARTY_GROUP@@@std@@@std@@@std@@@0@AAV10@@Z 005a1d40 f i GameSocket.obj
 0002:0004ad80       ??$forward@ABE@std@@YAABEABE@Z 005a1d80 f i GameSocket.obj
 0002:0004adc0       ??$forward@F@std@@YA$$QAFAAF@Z 005a1dc0 f i GameSocket.obj
 0002:0004ae00       ??$forward@I@std@@YA$$QAIAAI@Z 005a1e00 f i GameSocket.obj
 0002:0004ae40       ??$forward@PAU_PARTY_GROUP@@@std@@YA$$QAPAU_PARTY_GROUP@@AAPAU1@@Z 005a1e40 f i GameSocket.obj
 0002:0004ae80       ??$forward@U?$pair@$$CBEF@std@@@std@@YA$$QAU?$pair@$$CBEF@0@AAU10@@Z 005a1e80 f i GameSocket.obj
 0002:0004aec0       ??$forward@U?$pair@EF@std@@@std@@YA$$QAU?$pair@EF@0@AAU10@@Z 005a1ec0 f i GameSocket.obj
 0002:0004af00       ??$forward@U?$pair@EV?$map@EFU?$less@E@std@@V?$allocator@U?$pair@$$CBEF@std@@@2@@std@@@std@@@std@@YA$$QAU?$pair@EV?$map@EFU?$less@E@std@@V?$allocator@U?$pair@$$CBEF@std@@@2@@std@@@0@AAU10@@Z 005a1f00 f i GameSocket.obj
 0002:0004af40       ??$forward@U?$pair@IPAU_PARTY_GROUP@@@std@@@std@@YA$$QAU?$pair@IPAU_PARTY_GROUP@@@0@AAU10@@Z 005a1f40 f i GameSocket.obj
 0002:0004af80       ??$forward@V?$_Tree@V?$_Tmap_traits@EFU?$less@E@std@@V?$allocator@U?$pair@$$CBEF@std@@@2@$0A@@std@@@std@@@std@@YA$$QAV?$_Tree@V?$_Tmap_traits@EFU?$less@E@std@@V?$allocator@U?$pair@$$CBEF@std@@@2@$0A@@std@@@0@AAV10@@Z 005a1f80 f i GameSocket.obj
 0002:0004afc0       ??$forward@V?$_Tree_iterator@V?$_Tree_val@U?$_Tree_simple_types@U?$pair@$$CBEF@std@@@std@@@std@@@std@@@std@@YA$$QAV?$_Tree_iterator@V?$_Tree_val@U?$_Tree_simple_types@U?$pair@$$CBEF@std@@@std@@@std@@@0@AAV10@@Z 005a1fc0 f i GameSocket.obj
 0002:0004b000       ??$forward@V?$_Tree_iterator@V?$_Tree_val@U?$_Tree_simple_types@U?$pair@$$CBEV?$map@EFU?$less@E@std@@V?$allocator@U?$pair@$$CBEF@std@@@2@@std@@@std@@@std@@@std@@@std@@@std@@YA$$QAV?$_Tree_iterator@V?$_Tree_val@U?$_Tree_simple_types@U?$pair@$$CBEV?$map@EFU?$less@E@std@@V?$allocator@U?$pair@$$CBEF@std@@@2@@std@@@std@@@std@@@std@@@0@AAV10@@Z 005a2000 f i GameSocket.obj
 0002:0004b040       ??$forward@V?$_Tree_iterator@V?$_Tree_val@U?$_Tree_simple_types@U?$pair@$$CBIPAU_PARTY_GROUP@@@std@@@std@@@std@@@std@@@std@@YA$$QAV?$_Tree_iterator@V?$_Tree_val@U?$_Tree_simple_types@U?$pair@$$CBIPAU_PARTY_GROUP@@@std@@@std@@@std@@@0@AAV10@@Z 005a2040 f i GameSocket.obj
 0002:0004b080       ??$forward@V?$map@EFU?$less@E@std@@V?$allocator@U?$pair@$$CBEF@std@@@2@@std@@@std@@YA$$QAV?$map@EFU?$less@E@std@@V?$allocator@U?$pair@$$CBEF@std@@@2@@0@AAV10@@Z 005a2080 f i GameSocket.obj
 0002:0004b0c0       ??$insert@U?$pair@EF@std@@@?$_Tree@V?$_Tmap_traits@EFU?$less@E@std@@V?$allocator@U?$pair@$$CBEF@std@@@2@$0A@@std@@@std@@QAE?AU?$pair@V?$_Tree_iterator@V?$_Tree_val@U?$_Tree_simple_types@U?$pair@$$CBEF@std@@@std@@@std@@@std@@_N@1@$$QAU?$pair@EF@1@@Z 005a20c0 f i GameSocket.obj
 0002:0004b200       ??$insert@U?$pair@EV?$map@EFU?$less@E@std@@V?$allocator@U?$pair@$$CBEF@std@@@2@@std@@@std@@@?$_Tree@V?$_Tmap_traits@EV?$map@EFU?$less@E@std@@V?$allocator@U?$pair@$$CBEF@std@@@2@@std@@U?$less@E@2@V?$allocator@U?$pair@$$CBEV?$map@EFU?$less@E@std@@V?$allocator@U?$pair@$$CBEF@std@@@2@@std@@@std@@@2@$0A@@std@@@std@@QAE?AV?$_Tree_iterator@V?$_Tree_val@U?$_Tree_simple_types@U?$pair@$$CBEV?$map@EFU?$less@E@std@@V?$allocator@U?$pair@$$CBEF@std@@@2@@std@@@std@@@std@@@std@@@1@V?$_Tree_const_iterator@V?$_Tree_val@U?$_Tree_simple_types@U?$pair@$$CBEV?$map@EFU?$less@E@std@@V?$allocator@U?$pair@$$CBEF@std@@@2@@std@@@std@@@std@@@std@@@1@$$QAU?$pair@EV?$map@EFU?$less@E@std@@V?$allocator@U?$pair@$$CBEF@std@@@2@@std@@@1@@Z 005a2200 f i GameSocket.obj
 0002:0004b330       ??$insert@U?$pair@IPAU_PARTY_GROUP@@@std@@@?$_Tree@V?$_Tmap_traits@IPAU_PARTY_GROUP@@U?$less@I@std@@V?$allocator@U?$pair@$$CBIPAU_PARTY_GROUP@@@std@@@3@$0A@@std@@@std@@QAE?AU?$pair@V?$_Tree_iterator@V?$_Tree_val@U?$_Tree_simple_types@U?$pair@$$CBIPAU_PARTY_GROUP@@@std@@@std@@@std@@@std@@_N@1@$$QAU?$pair@IPAU_PARTY_GROUP@@@1@@Z 005a2330 f i GameSocket.obj
 0002:0004b470       ??$make_pair@AAEAAF@std@@YA?AU?$pair@EF@0@AAEAAF@Z 005a2470 f i GameSocket.obj
 0002:0004b4f0       ??$make_pair@AAIAAPAU_PARTY_GROUP@@@std@@YA?AU?$pair@IPAU_PARTY_GROUP@@@0@AAIAAPAU_PARTY_GROUP@@@Z 005a24f0 f i GameSocket.obj
 0002:0004b570       ??$move@AAV?$map@EFU?$less@E@std@@V?$allocator@U?$pair@$$CBEF@std@@@2@@std@@@std@@YA$$QAV?$map@EFU?$less@E@std@@V?$allocator@U?$pair@$$CBEF@std@@@2@@0@AAV10@@Z 005a2570 f i GameSocket.obj
 0002:0004b5b0       ??$read@F@ByteBuffer@@QAEFXZ 005a25b0 f i GameSocket.obj
 0002:0004b630       ??$read@F@ByteBuffer@@QBEFI@Z 005a2630 f i GameSocket.obj
 0002:0004b6b0       ??$read@H@ByteBuffer@@QAEHXZ 005a26b0 f i GameSocket.obj
 0002:0004b730       ??$read@H@ByteBuffer@@QBEHI@Z 005a2730 f i GameSocket.obj
 0002:0004b7b0       ??$read@M@ByteBuffer@@QAEMXZ 005a27b0 f i GameSocket.obj
 0002:0004b830       ??$read@M@ByteBuffer@@QBEMI@Z 005a2830 f i GameSocket.obj
 0002:0004b8b0       ??$swap@I@std@@YAXAAI0@Z   005a28b0 f i GameSocket.obj
 0002:0004b970       ??$swap@PAU?$_Tree_node@U?$pair@$$CBEF@std@@PAX@std@@@std@@YAXAAPAU?$_Tree_node@U?$pair@$$CBEF@std@@PAX@0@0@Z 005a2970 f i GameSocket.obj
 0002:0004ba30       ??0?$_Iterator012@Ubidirectional_iterator_tag@std@@U?$pair@$$CBIPAU_PARTY_GROUP@@@2@HPBU32@ABU32@U_Iterator_base12@2@@std@@QAE@ABU01@@Z 005a2a30 f i GameSocket.obj
 0002:0004ba90       ??0?$_Iterator012@Ubidirectional_iterator_tag@std@@U?$pair@$$CBIPAU_PARTY_GROUP@@@2@HPBU32@ABU32@U_Iterator_base12@2@@std@@QAE@XZ 005a2a90 f i GameSocket.obj
 0002:0004baf0       ??0?$_Iterator012@Ubidirectional_iterator_tag@std@@U?$pair@$$CBIPAVCNpc@@@2@HPBU32@ABU32@U_Iterator_base12@2@@std@@QAE@ABU01@@Z 005a2af0 f i GameSocket.obj
 0002:0004bb50       ??0?$_Iterator012@Ubidirectional_iterator_tag@std@@U?$pair@$$CBIPAVCNpc@@@2@HPBU32@ABU32@U_Iterator_base12@2@@std@@QAE@XZ 005a2b50 f i GameSocket.obj
 0002:0004bbb0       ??0?$_Iterator012@Urandom_access_iterator_tag@std@@DHPBDABDU_Iterator_base12@2@@std@@QAE@ABU01@@Z 005a2bb0 f i GameSocket.obj
 0002:0004bc10       ??0?$_Iterator012@Urandom_access_iterator_tag@std@@DHPBDABDU_Iterator_base12@2@@std@@QAE@XZ 005a2c10 f i GameSocket.obj
 0002:0004bc70       ??0?$_String_const_iterator@V?$_String_val@U?$_Simple_types@D@std@@@std@@@std@@QAE@ABV01@@Z 005a2c70 f i GameSocket.obj
 0002:0004bce0       ??0?$_String_const_iterator@V?$_String_val@U?$_Simple_types@D@std@@@std@@@std@@QAE@PBDPBU_Container_base12@1@@Z 005a2ce0 f i GameSocket.obj
 0002:0004bda0       ??0?$_String_iterator@V?$_String_val@U?$_Simple_types@D@std@@@std@@@std@@QAE@ABV01@@Z 005a2da0 f i GameSocket.obj
 0002:0004be00       ??0?$_String_iterator@V?$_String_val@U?$_Simple_types@D@std@@@std@@@std@@QAE@PADPBU_Container_base12@1@@Z 005a2e00 f i GameSocket.obj
 0002:0004be60       ??0?$_Tree@V?$_Tmap_traits@EFU?$less@E@std@@V?$allocator@U?$pair@$$CBEF@std@@@2@$0A@@std@@@std@@QAE@$$QAV01@ABV?$allocator@U?$pair@$$CBEF@std@@@1@@Z 005a2e60 f i GameSocket.obj
 0002:0004bf90       ??0?$_Tree@V?$_Tmap_traits@EFU?$less@E@std@@V?$allocator@U?$pair@$$CBEF@std@@@2@$0A@@std@@@std@@QAE@ABU?$less@E@1@ABV?$allocator@U?$pair@$$CBEF@std@@@1@@Z 005a2f90 f i GameSocket.obj
 0002:0004bff0       ??0?$_Tree_alloc@$0A@U?$_Tree_base_types@U?$pair@$$CBEF@std@@V?$allocator@U?$pair@$$CBEF@std@@@2@@std@@@std@@QAE@ABV?$allocator@U?$pair@$$CBEF@std@@@1@@Z 005a2ff0 f i GameSocket.obj
 0002:0004c0f0       ??0?$_Tree_buy@U?$pair@$$CBEF@std@@V?$allocator@U?$pair@$$CBEF@std@@@2@@std@@QAE@ABV?$allocator@U?$pair@$$CBEF@std@@@1@@Z 005a30f0 f i GameSocket.obj
 0002:0004c150       ??0?$_Tree_comp@$0A@V?$_Tmap_traits@EFU?$less@E@std@@V?$allocator@U?$pair@$$CBEF@std@@@2@$0A@@std@@@std@@QAE@ABU?$less@E@1@ABV?$allocator@U?$pair@$$CBEF@std@@@1@@Z 005a3150 f i GameSocket.obj
 0002:0004c1b0       ??0?$_Tree_const_iterator@V?$_Tree_val@U?$_Tree_simple_types@U?$pair@$$CBEV?$map@EFU?$less@E@std@@V?$allocator@U?$pair@$$CBEF@std@@@2@@std@@@std@@@std@@@std@@@std@@QAE@XZ 005a31b0 f i GameSocket.obj
 0002:0004c210       ??0?$_Tree_const_iterator@V?$_Tree_val@U?$_Tree_simple_types@U?$pair@$$CBIPAU_PARTY_GROUP@@@std@@@std@@@std@@@std@@QAE@ABV01@@Z 005a3210 f i GameSocket.obj
 0002:0004c270       ??0?$_Tree_const_iterator@V?$_Tree_val@U?$_Tree_simple_types@U?$pair@$$CBIPAU_PARTY_GROUP@@@std@@@std@@@std@@@std@@QAE@PAU?$_Tree_node@U?$pair@$$CBIPAU_PARTY_GROUP@@@std@@PAX@1@PBV?$_Tree_val@U?$_Tree_simple_types@U?$pair@$$CBIPAU_PARTY_GROUP@@@std@@@std@@@1@@Z 005a3270 f i GameSocket.obj
 0002:0004c2d0       ??0?$_Tree_const_iterator@V?$_Tree_val@U?$_Tree_simple_types@U?$pair@$$CBIPAVCNpc@@@std@@@std@@@std@@@std@@QAE@ABV01@@Z 005a32d0 f i GameSocket.obj
 0002:0004c330       ??0?$_Tree_const_iterator@V?$_Tree_val@U?$_Tree_simple_types@U?$pair@$$CBIPAVCNpc@@@std@@@std@@@std@@@std@@QAE@PAU?$_Tree_node@U?$pair@$$CBIPAVCNpc@@@std@@PAX@1@PBV?$_Tree_val@U?$_Tree_simple_types@U?$pair@$$CBIPAVCNpc@@@std@@@std@@@1@@Z 005a3330 f i GameSocket.obj
 0002:0004c390       ??0?$_Tree_iterator@V?$_Tree_val@U?$_Tree_simple_types@U?$pair@$$CBIPAU_PARTY_GROUP@@@std@@@std@@@std@@@std@@QAE@ABV01@@Z 005a3390 f i GameSocket.obj
 0002:0004c3f0       ??0?$_Tree_iterator@V?$_Tree_val@U?$_Tree_simple_types@U?$pair@$$CBIPAU_PARTY_GROUP@@@std@@@std@@@std@@@std@@QAE@PAU?$_Tree_node@U?$pair@$$CBIPAU_PARTY_GROUP@@@std@@PAX@1@PBV?$_Tree_val@U?$_Tree_simple_types@U?$pair@$$CBIPAU_PARTY_GROUP@@@std@@@std@@@1@@Z 005a33f0 f i GameSocket.obj
 0002:0004c450       ??0?$_Tree_iterator@V?$_Tree_val@U?$_Tree_simple_types@U?$pair@$$CBIPAVCNpc@@@std@@@std@@@std@@@std@@QAE@ABV01@@Z 005a3450 f i GameSocket.obj
 0002:0004c4b0       ??0?$_Tree_iterator@V?$_Tree_val@U?$_Tree_simple_types@U?$pair@$$CBIPAVCNpc@@@std@@@std@@@std@@@std@@QAE@PAU?$_Tree_node@U?$pair@$$CBIPAVCNpc@@@std@@PAX@1@PBV?$_Tree_val@U?$_Tree_simple_types@U?$pair@$$CBIPAVCNpc@@@std@@@std@@@1@@Z 005a34b0 f i GameSocket.obj
 0002:0004c510       ??0?$_Tree_unchecked_const_iterator@V?$_Tree_val@U?$_Tree_simple_types@U?$pair@$$CBEV?$map@EFU?$less@E@std@@V?$allocator@U?$pair@$$CBEF@std@@@2@@std@@@std@@@std@@@std@@U_Iterator_base12@2@@std@@QAE@XZ 005a3510 f i GameSocket.obj
 0002:0004c570       ??0?$_Tree_unchecked_const_iterator@V?$_Tree_val@U?$_Tree_simple_types@U?$pair@$$CBIPAU_PARTY_GROUP@@@std@@@std@@@std@@U_Iterator_base12@2@@std@@QAE@ABV01@@Z 005a3570 f i GameSocket.obj
 0002:0004c5e0       ??0?$_Tree_unchecked_const_iterator@V?$_Tree_val@U?$_Tree_simple_types@U?$pair@$$CBIPAU_PARTY_GROUP@@@std@@@std@@@std@@U_Iterator_base12@2@@std@@QAE@PAU?$_Tree_node@U?$pair@$$CBIPAU_PARTY_GROUP@@@std@@PAX@1@PBV?$_Tree_val@U?$_Tree_simple_types@U?$pair@$$CBIPAU_PARTY_GROUP@@@std@@@std@@@1@@Z 005a35e0 f i GameSocket.obj
 0002:0004c6a0       ??0?$_Tree_unchecked_const_iterator@V?$_Tree_val@U?$_Tree_simple_types@U?$pair@$$CBIPAVCNpc@@@std@@@std@@@std@@U_Iterator_base12@2@@std@@QAE@ABV01@@Z 005a36a0 f i GameSocket.obj
 0002:0004c710       ??0?$_Tree_unchecked_const_iterator@V?$_Tree_val@U?$_Tree_simple_types@U?$pair@$$CBIPAVCNpc@@@std@@@std@@@std@@U_Iterator_base12@2@@std@@QAE@PAU?$_Tree_node@U?$pair@$$CBIPAVCNpc@@@std@@PAX@1@PBV?$_Tree_val@U?$_Tree_simple_types@U?$pair@$$CBIPAVCNpc@@@std@@@std@@@1@@Z 005a3710 f i GameSocket.obj
 0002:0004c7d0       ??0?$_Tree_val@U?$_Tree_simple_types@U?$pair@$$CBEF@std@@@std@@@std@@QAE@XZ 005a37d0 f i GameSocket.obj
 0002:0004c840       ??0?$_Wrap_alloc@V?$allocator@U?$_Tree_node@U?$pair@$$CBIPAU_PARTY_GROUP@@@std@@PAX@std@@@std@@@std@@QAE@XZ 005a3840 f i GameSocket.obj
 0002:0004c8a0       ??0?$allocator@U?$_Tree_node@U?$pair@$$CBEF@std@@PAX@std@@@std@@QAE@ABV01@@Z 005a38a0 f i GameSocket.obj
 0002:0004c8e0       ??0?$allocator@U?$_Tree_node@U?$pair@$$CBIPAU_PARTY_GROUP@@@std@@PAX@std@@@std@@QAE@XZ 005a38e0 f i GameSocket.obj
 0002:0004c920       ??0?$allocator@U?$pair@$$CBEF@std@@@std@@QAE@XZ 005a3920 f i GameSocket.obj
 0002:0004c960       ??0?$basic_string@DU?$char_traits@D@std@@V?$allocator@D@2@@std@@QAE@XZ 005a3960 f i GameSocket.obj
 0002:0004ca20       ??0?$map@EFU?$less@E@std@@V?$allocator@U?$pair@$$CBEF@std@@@2@@std@@QAE@$$QAV01@@Z 005a3a20 f i GameSocket.obj
 0002:0004cab0       ??0?$map@EFU?$less@E@std@@V?$allocator@U?$pair@$$CBEF@std@@@2@@std@@QAE@XZ 005a3ab0 f i GameSocket.obj
 0002:0004cb20       ??0_PARTY_GROUP@@QAE@XZ    005a3b20 f i GameSocket.obj
 0002:0004cb90       ??1?$_Iterator012@Ubidirectional_iterator_tag@std@@U?$pair@$$CBIPAU_PARTY_GROUP@@@2@HPBU32@ABU32@U_Iterator_base12@2@@std@@QAE@XZ 005a3b90 f i GameSocket.obj
 0002:0004cbe0       ??1?$_Iterator012@Ubidirectional_iterator_tag@std@@U?$pair@$$CBIPAVCNpc@@@2@HPBU32@ABU32@U_Iterator_base12@2@@std@@QAE@XZ 005a3be0 f i GameSocket.obj
 0002:0004cc30       ??1?$_Iterator012@Urandom_access_iterator_tag@std@@DHPBDABDU_Iterator_base12@2@@std@@QAE@XZ 005a3c30 f i GameSocket.obj
 0002:0004cc80       ??1?$_String_const_iterator@V?$_String_val@U?$_Simple_types@D@std@@@std@@@std@@QAE@XZ 005a3c80 f i GameSocket.obj
 0002:0004ccd0       ??1?$_String_iterator@V?$_String_val@U?$_Simple_types@D@std@@@std@@@std@@QAE@XZ 005a3cd0 f i GameSocket.obj
 0002:0004cd20       ??1?$_Tree_const_iterator@V?$_Tree_val@U?$_Tree_simple_types@U?$pair@$$CBIPAU_PARTY_GROUP@@@std@@@std@@@std@@@std@@QAE@XZ 005a3d20 f i GameSocket.obj
 0002:0004cd70       ??1?$_Tree_const_iterator@V?$_Tree_val@U?$_Tree_simple_types@U?$pair@$$CBIPAVCNpc@@@std@@@std@@@std@@@std@@QAE@XZ 005a3d70 f i GameSocket.obj
 0002:0004cdc0       ??1?$_Tree_iterator@V?$_Tree_val@U?$_Tree_simple_types@U?$pair@$$CBIPAU_PARTY_GROUP@@@std@@@std@@@std@@@std@@QAE@XZ 005a3dc0 f i GameSocket.obj
 0002:0004ce10       ??1?$_Tree_iterator@V?$_Tree_val@U?$_Tree_simple_types@U?$pair@$$CBIPAVCNpc@@@std@@@std@@@std@@@std@@QAE@XZ 005a3e10 f i GameSocket.obj
 0002:0004ce60       ??1?$_Tree_unchecked_const_iterator@V?$_Tree_val@U?$_Tree_simple_types@U?$pair@$$CBIPAU_PARTY_GROUP@@@std@@@std@@@std@@U_Iterator_base12@2@@std@@QAE@XZ 005a3e60 f i GameSocket.obj
 0002:0004ceb0       ??1?$_Tree_unchecked_const_iterator@V?$_Tree_val@U?$_Tree_simple_types@U?$pair@$$CBIPAVCNpc@@@std@@@std@@@std@@U_Iterator_base12@2@@std@@QAE@XZ 005a3eb0 f i GameSocket.obj
 0002:0004cf00       ??1?$basic_string@DU?$char_traits@D@std@@V?$allocator@D@2@@std@@QAE@XZ 005a3f00 f i GameSocket.obj
 0002:0004cf60       ??1?$pair@EV?$map@EFU?$less@E@std@@V?$allocator@U?$pair@$$CBEF@std@@@2@@std@@@std@@QAE@XZ 005a3f60 f i GameSocket.obj
 0002:0004cfc0       ??1?$pair@V?$_Tree_iterator@V?$_Tree_val@U?$_Tree_simple_types@U?$pair@$$CBEF@std@@@std@@@std@@@std@@_N@std@@QAE@XZ 005a3fc0 f i GameSocket.obj
 0002:0004d010       ??1?$pair@V?$_Tree_iterator@V?$_Tree_val@U?$_Tree_simple_types@U?$pair@$$CBEV?$map@EFU?$less@E@std@@V?$allocator@U?$pair@$$CBEF@std@@@2@@std@@@std@@@std@@@std@@@std@@_N@std@@QAE@XZ 005a4010 f i GameSocket.obj
 0002:0004d060       ??1?$pair@V?$_Tree_iterator@V?$_Tree_val@U?$_Tree_simple_types@U?$pair@$$CBIPAU_PARTY_GROUP@@@std@@@std@@@std@@@std@@_N@std@@QAE@XZ 005a4060 f i GameSocket.obj
 0002:0004d0b0       ??1CGameSocket@@UAE@XZ     005a40b0 f   GameSocket.obj
 0002:0004d170       ??1KOSocket@@UAE@XZ        005a4170 f i GameSocket.obj
 0002:0004d1c0       ??4?$_Iterator012@Ubidirectional_iterator_tag@std@@U?$pair@$$CBEV?$map@EFU?$less@E@std@@V?$allocator@U?$pair@$$CBEF@std@@@2@@std@@@2@HPBU32@ABU32@U_Iterator_base12@2@@std@@QAEAAU01@ABU01@@Z 005a41c0 f i GameSocket.obj
 0002:0004d220       ??4?$_Tree@V?$_Tmap_traits@EFU?$less@E@std@@V?$allocator@U?$pair@$$CBEF@std@@@2@$0A@@std@@@std@@QAEAAV01@ABV01@@Z 005a4220 f i GameSocket.obj
 0002:0004d330       ??4?$_Tree_const_iterator@V?$_Tree_val@U?$_Tree_simple_types@U?$pair@$$CBEV?$map@EFU?$less@E@std@@V?$allocator@U?$pair@$$CBEF@std@@@2@@std@@@std@@@std@@@std@@@std@@QAEAAV01@ABV01@@Z 005a4330 f i GameSocket.obj
 0002:0004d390       ??4?$_Tree_iterator@V?$_Tree_val@U?$_Tree_simple_types@U?$pair@$$CBEV?$map@EFU?$less@E@std@@V?$allocator@U?$pair@$$CBEF@std@@@2@@std@@@std@@@std@@@std@@@std@@QAEAAV01@ABV01@@Z 005a4390 f i GameSocket.obj
 0002:0004d3f0       ??4?$_Tree_unchecked_const_iterator@V?$_Tree_val@U?$_Tree_simple_types@U?$pair@$$CBEV?$map@EFU?$less@E@std@@V?$allocator@U?$pair@$$CBEF@std@@@2@@std@@@std@@@std@@@std@@U_Iterator_base12@2@@std@@QAEAAV01@ABV01@@Z 005a43f0 f i GameSocket.obj
 0002:0004d460       ??4?$map@EFU?$less@E@std@@V?$allocator@U?$pair@$$CBEF@std@@@2@@std@@QAEAAV01@ABV01@@Z 005a4460 f i GameSocket.obj
 0002:0004d4c0       ??5ByteBuffer@@QAEAAV0@AAF@Z 005a44c0 f i GameSocket.obj
 0002:0004d520       ??5ByteBuffer@@QAEAAV0@AAH@Z 005a4520 f i GameSocket.obj
 0002:0004d580       ??5ByteBuffer@@QAEAAV0@AAM@Z 005a4580 f i GameSocket.obj
 0002:0004d5e0       ??5ByteBuffer@@QAEAAV0@AAV?$basic_string@DU?$char_traits@D@std@@V?$allocator@D@2@@std@@@Z 005a45e0 f i GameSocket.obj
 0002:0004d6d0       ??8?$_Tree_const_iterator@V?$_Tree_val@U?$_Tree_simple_types@U?$pair@$$CBIPAU_PARTY_GROUP@@@std@@@std@@@std@@@std@@QBE_NABV01@@Z 005a46d0 f i GameSocket.obj
 0002:0004d800       ??8?$_Tree_const_iterator@V?$_Tree_val@U?$_Tree_simple_types@U?$pair@$$CBIPAVCNpc@@@std@@@std@@@std@@@std@@QBE_NABV01@@Z 005a4800 f i GameSocket.obj
 0002:0004d930       ??9?$_Tree_const_iterator@V?$_Tree_val@U?$_Tree_simple_types@U?$pair@$$CBIPAVCNpc@@@std@@@std@@@std@@@std@@QBE_NABV01@@Z 005a4930 f i GameSocket.obj
 0002:0004d9c0       ??A?$map@EV?$map@EFU?$less@E@std@@V?$allocator@U?$pair@$$CBEF@std@@@2@@std@@U?$less@E@2@V?$allocator@U?$pair@$$CBEV?$map@EFU?$less@E@std@@V?$allocator@U?$pair@$$CBEF@std@@@2@@std@@@std@@@2@@std@@QAEAAV?$map@EFU?$less@E@std@@V?$allocator@U?$pair@$$CBEF@std@@@2@@1@ABE@Z 005a49c0 f i GameSocket.obj
 0002:0004dce0       ??C?$_Tree_iterator@V?$_Tree_val@U?$_Tree_simple_types@U?$pair@$$CBIPAVCNpc@@@std@@@std@@@std@@@std@@QBEPAU?$pair@$$CBIPAVCNpc@@@1@XZ 005a4ce0 f i GameSocket.obj
 0002:0004dd40       ??D?$_Tree_const_iterator@V?$_Tree_val@U?$_Tree_simple_types@U?$pair@$$CBIPAVCNpc@@@std@@@std@@@std@@@std@@QBEABU?$pair@$$CBIPAVCNpc@@@1@XZ 005a4d40 f i GameSocket.obj
 0002:0004de50       ??D?$_Tree_iterator@V?$_Tree_val@U?$_Tree_simple_types@U?$pair@$$CBIPAVCNpc@@@std@@@std@@@std@@@std@@QBEAAU?$pair@$$CBIPAVCNpc@@@1@XZ 005a4e50 f i GameSocket.obj
 0002:0004dea0       ??E?$_Tree_const_iterator@V?$_Tree_val@U?$_Tree_simple_types@U?$pair@$$CBIPAVCNpc@@@std@@@std@@@std@@@std@@QAEAAV01@XZ 005a4ea0 f i GameSocket.obj
 0002:0004dfb0       ??E?$_Tree_iterator@V?$_Tree_val@U?$_Tree_simple_types@U?$pair@$$CBIPAVCNpc@@@std@@@std@@@std@@@std@@QAE?AV01@H@Z 005a4fb0 f i GameSocket.obj
 0002:0004e0d0       ??E?$_Tree_iterator@V?$_Tree_val@U?$_Tree_simple_types@U?$pair@$$CBIPAVCNpc@@@std@@@std@@@std@@@std@@QAEAAV01@XZ 005a50d0 f i GameSocket.obj
 0002:0004e130       ??E?$_Tree_unchecked_const_iterator@V?$_Tree_val@U?$_Tree_simple_types@U?$pair@$$CBIPAVCNpc@@@std@@@std@@@std@@U_Iterator_base12@2@@std@@QAEAAV01@XZ 005a5130 f i GameSocket.obj
 0002:0004e260       ??F?$_Tree_const_iterator@V?$_Tree_val@U?$_Tree_simple_types@U?$pair@$$CBEF@std@@@std@@@std@@@std@@QAEAAV01@XZ 005a5260 f i GameSocket.obj
 0002:0004e3f0       ??F?$_Tree_const_iterator@V?$_Tree_val@U?$_Tree_simple_types@U?$pair@$$CBEV?$map@EFU?$less@E@std@@V?$allocator@U?$pair@$$CBEF@std@@@2@@std@@@std@@@std@@@std@@@std@@QAEAAV01@XZ 005a53f0 f i GameSocket.obj
 0002:0004e580       ??F?$_Tree_const_iterator@V?$_Tree_val@U?$_Tree_simple_types@U?$pair@$$CBIPAU_PARTY_GROUP@@@std@@@std@@@std@@@std@@QAEAAV01@XZ 005a5580 f i GameSocket.obj
 0002:0004e710       ??F?$_Tree_iterator@V?$_Tree_val@U?$_Tree_simple_types@U?$pair@$$CBEF@std@@@std@@@std@@@std@@QAEAAV01@XZ 005a5710 f i GameSocket.obj
 0002:0004e770       ??F?$_Tree_iterator@V?$_Tree_val@U?$_Tree_simple_types@U?$pair@$$CBEV?$map@EFU?$less@E@std@@V?$allocator@U?$pair@$$CBEF@std@@@2@@std@@@std@@@std@@@std@@@std@@QAEAAV01@XZ 005a5770 f i GameSocket.obj
 0002:0004e7d0       ??F?$_Tree_iterator@V?$_Tree_val@U?$_Tree_simple_types@U?$pair@$$CBIPAU_PARTY_GROUP@@@std@@@std@@@std@@@std@@QAEAAV01@XZ 005a57d0 f i GameSocket.obj
 0002:0004e830       ??F?$_Tree_unchecked_const_iterator@V?$_Tree_val@U?$_Tree_simple_types@U?$pair@$$CBEF@std@@@std@@@std@@U_Iterator_base12@2@@std@@QAEAAV01@XZ 005a5830 f i GameSocket.obj
 0002:0004e990       ??F?$_Tree_unchecked_const_iterator@V?$_Tree_val@U?$_Tree_simple_types@U?$pair@$$CBEV?$map@EFU?$less@E@std@@V?$allocator@U?$pair@$$CBEF@std@@@2@@std@@@std@@@std@@@std@@U_Iterator_base12@2@@std@@QAEAAV01@XZ 005a5990 f i GameSocket.obj
 0002:0004eaf0       ??F?$_Tree_unchecked_const_iterator@V?$_Tree_val@U?$_Tree_simple_types@U?$pair@$$CBIPAU_PARTY_GROUP@@@std@@@std@@@std@@U_Iterator_base12@2@@std@@QAEAAV01@XZ 005a5af0 f i GameSocket.obj
 0002:0004ec50       ??G?$_String_const_iterator@V?$_String_val@U?$_Simple_types@D@std@@@std@@@std@@QBEHABV01@@Z 005a5c50 f i GameSocket.obj
 0002:0004ecc0       ??H?$_String_iterator@V?$_String_val@U?$_Simple_types@D@std@@@std@@@std@@QBE?AV01@H@Z 005a5cc0 f i GameSocket.obj
 0002:0004ede0       ??Y?$_String_const_iterator@V?$_String_val@U?$_Simple_types@D@std@@@std@@@std@@QAEAAV01@H@Z 005a5de0 f i GameSocket.obj
 0002:0004ef30       ??Y?$_String_iterator@V?$_String_val@U?$_Simple_types@D@std@@@std@@@std@@QAEAAV01@H@Z 005a5f30 f i GameSocket.obj
 0002:0004ef90       ??_ECGameSocket@@UAEPAXI@Z 005a5f90 f i GameSocket.obj
 0002:0004ef90       ??_GCGameSocket@@UAEPAXI@Z 005a5f90 f i GameSocket.obj
 0002:0004f000       ?GetOpcode@Packet@@QBEEXZ  005a6000 f i GameSocket.obj
 0002:0004f040       ?GetSocketID@KOSocket@@QAEGXZ 005a6040 f i GameSocket.obj
 0002:0004f090       ?HandlePacket@CGameSocket@@UAE_NAAVPacket@@@Z 005a6090 f   GameSocket.obj
 0002:0004f3f0       ?Initialize@CGameSocket@@QAEXXZ 005a63f0 f   GameSocket.obj
 0002:0004f450       ?OnConnect@CGameSocket@@UAEXXZ 005a6450 f   GameSocket.obj
 0002:0004f4b0       ?OnDisconnect@CGameSocket@@UAEXXZ 005a64b0 f   GameSocket.obj
 0002:0004f5d0       ?PutData@?$CSTLMap@U_PARTY_GROUP@@@@QAE_NIPAU_PARTY_GROUP@@@Z 005a65d0 f i GameSocket.obj
 0002:0004f720       ?ReadUserInfo@CGameSocket@@QAEXAAVPacket@@PAVCUser@@@Z 005a6720 f   GameSocket.obj
 0002:0004fb30       ?RecvBattleEvent@CGameSocket@@QAEXAAVPacket@@@Z 005a6b30 f   GameSocket.obj
 0002:0004fdf0       ?RecvGateOpen@CGameSocket@@QAEXAAVPacket@@@Z 005a6df0 f   GameSocket.obj
 0002:0004ff50       ?RecvHealMagic@CGameSocket@@QAEXAAVPacket@@@Z 005a6f50 f   GameSocket.obj
 0002:00050000       ?RecvNpcHpChange@CGameSocket@@QAEXAAVPacket@@@Z 005a7000 f   GameSocket.obj
 0002:000501d0       ?RecvNpcKillRequest@CGameSocket@@QAEXAAVPacket@@@Z 005a71d0 f   GameSocket.obj
 0002:00050450       ?RecvNpcSpawnRequest@CGameSocket@@QAEXAAVPacket@@@Z 005a7450 f   GameSocket.obj
 0002:000507f0       ?RecvNpcUpdate@CGameSocket@@QAEXAAVPacket@@@Z 005a77f0 f   GameSocket.obj
 0002:00050930       ?RecvPartyInfoAllData@CGameSocket@@QAEXAAVPacket@@@Z 005a7930 f   GameSocket.obj
 0002:00050ae0       ?RecvServerConnect@CGameSocket@@QAEXAAVPacket@@@Z 005a7ae0 f   GameSocket.obj
 0002:00050d50       ?RecvTimeAndWeather@CGameSocket@@QAEXAAVPacket@@@Z 005a7d50 f   GameSocket.obj
 0002:00050ea0       ?RecvUserInOut@CGameSocket@@QAEXAAVPacket@@@Z 005a7ea0 f   GameSocket.obj
 0002:000513e0       ?RecvUserInfo@CGameSocket@@QAEXAAVPacket@@@Z 005a83e0 f   GameSocket.obj
 0002:000516f0       ?RecvUserInfoAllData@CGameSocket@@QAEXAAVPacket@@@Z 005a86f0 f   GameSocket.obj
 0002:00051780       ?RecvUserLogOut@CGameSocket@@QAEXAAVPacket@@@Z 005a8780 f   GameSocket.obj
 0002:000518e0       ?RecvUserMove@CGameSocket@@QAEXAAVPacket@@@Z 005a88e0 f   GameSocket.obj
 0002:00051a30       ?RecvUserRegene@CGameSocket@@QAEXAAVPacket@@@Z 005a8a30 f   GameSocket.obj
 0002:00051b80       ?RecvUserSetHP@CGameSocket@@QAEXAAVPacket@@@Z 005a8b80 f   GameSocket.obj
 0002:00051cd0       ?RecvUserUpdate@CGameSocket@@QAEXAAVPacket@@@Z 005a8cd0 f   GameSocket.obj
 0002:00051d60       ?RecvUserVisibility@CGameSocket@@QAEXAAVPacket@@@Z 005a8d60 f   GameSocket.obj
 0002:00051e50       ?RecvZoneChange@CGameSocket@@QAEXAAVPacket@@@Z 005a8e50 f   GameSocket.obj
 0002:00051f60       ?SByte@ByteBuffer@@QAEXXZ  005a8f60 f i GameSocket.obj
 0002:00051fa0       ?SetUid@CGameSocket@@QAE_NMMHH@Z 005a8fa0 f   GameSocket.obj
 0002:00052320       ?_Alloc_proxy@?$_Tree_alloc@$0A@U?$_Tree_base_types@U?$pair@$$CBEF@std@@V?$allocator@U?$pair@$$CBEF@std@@@2@@std@@@std@@QAEXXZ 005a9320 f i GameSocket.obj
 0002:00052400       ?_Assign_rv@?$_Tree@V?$_Tmap_traits@EFU?$less@E@std@@V?$allocator@U?$pair@$$CBEF@std@@@2@$0A@@std@@@std@@QAEX$$QAV12@@Z 005a9400 f i GameSocket.obj
 0002:000524b0       ?_Buyheadnode@?$_Tree_alloc@$0A@U?$_Tree_base_types@U?$pair@$$CBEF@std@@V?$allocator@U?$pair@$$CBEF@std@@@2@@std@@@std@@QAEPAU?$_Tree_node@U?$pair@$$CBEF@std@@PAX@2@XZ 005a94b0 f i GameSocket.obj
 0002:00052710       ?_Buynode0@?$_Tree_buy@U?$pair@$$CBEF@std@@V?$allocator@U?$pair@$$CBEF@std@@@2@@std@@QAEPAU?$_Tree_node@U?$pair@$$CBEF@std@@PAX@2@XZ 005a9710 f i GameSocket.obj
 0002:00052920       ?_Buynode0@?$_Tree_buy@U?$pair@$$CBEV?$map@EFU?$less@E@std@@V?$allocator@U?$pair@$$CBEF@std@@@2@@std@@@std@@V?$allocator@U?$pair@$$CBEV?$map@EFU?$less@E@std@@V?$allocator@U?$pair@$$CBEF@std@@@2@@std@@@std@@@2@@std@@QAEPAU?$_Tree_node@U?$pair@$$CBEV?$map@EFU?$less@E@std@@V?$allocator@U?$pair@$$CBEF@std@@@2@@std@@@std@@PAX@2@XZ 005a9920 f i GameSocket.obj
 0002:00052b30       ?_Buynode0@?$_Tree_buy@U?$pair@$$CBIPAU_PARTY_GROUP@@@std@@V?$allocator@U?$pair@$$CBIPAU_PARTY_GROUP@@@std@@@2@@std@@QAEPAU?$_Tree_node@U?$pair@$$CBIPAU_PARTY_GROUP@@@std@@PAX@2@XZ 005a9b30 f i GameSocket.obj
 0002:00052d40       ?_Change_alloc@?$_Tree_alloc@$0A@U?$_Tree_base_types@U?$pair@$$CBEF@std@@V?$allocator@U?$pair@$$CBEF@std@@@2@@std@@@std@@QAEXABU?$_Wrap_alloc@V?$allocator@U?$_Tree_node@U?$pair@$$CBEF@std@@PAX@std@@@std@@@2@@Z 005a9d40 f i GameSocket.obj
 0002:00052d80       ?_Chassign@?$basic_string@DU?$char_traits@D@std@@V?$allocator@D@2@@std@@QAEXIID@Z 005a9d80 f i GameSocket.obj
 0002:00052e20       ?_Color@?$_Tree_val@U?$_Tree_simple_types@U?$pair@$$CBIPAU_PARTY_GROUP@@@std@@@std@@@std@@SAAADPAU?$_Tree_node@U?$pair@$$CBIPAU_PARTY_GROUP@@@std@@PAX@2@@Z 005a9e20 f i GameSocket.obj
 0002:00052e60       ?_Compat@?$_String_const_iterator@V?$_String_val@U?$_Simple_types@D@std@@@std@@@std@@QBEXABV12@@Z 005a9e60 f i GameSocket.obj
 0002:00052f60       ?_Copy_or_move@?$_Tree@V?$_Tmap_traits@EFU?$less@E@std@@V?$allocator@U?$pair@$$CBEF@std@@@2@$0A@@std@@@std@@IAEPAU?$_Tree_node@U?$pair@$$CBEF@std@@PAX@2@PAU32@U?$integral_constant@_N$00@2@1@Z 005a9f60 f i GameSocket.obj
 0002:00052fd0       ?_Destroy_if_not_nil@?$_Tree@V?$_Tmap_traits@EFU?$less@E@std@@V?$allocator@U?$pair@$$CBEF@std@@@2@$0A@@std@@@std@@IAEXPAU?$_Tree_node@U?$pair@$$CBEF@std@@PAX@2@@Z 005a9fd0 f i GameSocket.obj
 0002:00053080       ?_Destroy_if_not_nil@?$_Tree@V?$_Tmap_traits@EV?$map@EFU?$less@E@std@@V?$allocator@U?$pair@$$CBEF@std@@@2@@std@@U?$less@E@2@V?$allocator@U?$pair@$$CBEV?$map@EFU?$less@E@std@@V?$allocator@U?$pair@$$CBEF@std@@@2@@std@@@std@@@2@$0A@@std@@@std@@IAEXPAU?$_Tree_node@U?$pair@$$CBEV?$map@EFU?$less@E@std@@V?$allocator@U?$pair@$$CBEF@std@@@2@@std@@@std@@PAX@2@@Z 005aa080 f i GameSocket.obj
 0002:00053130       ?_Destroy_if_not_nil@?$_Tree@V?$_Tmap_traits@IPAU_PARTY_GROUP@@U?$less@I@std@@V?$allocator@U?$pair@$$CBIPAU_PARTY_GROUP@@@std@@@3@$0A@@std@@@std@@IAEXPAU?$_Tree_node@U?$pair@$$CBIPAU_PARTY_GROUP@@@std@@PAX@2@@Z 005aa130 f i GameSocket.obj
 0002:000531e0       ?_Freenode0@?$_Tree_buy@U?$pair@$$CBEF@std@@V?$allocator@U?$pair@$$CBEF@std@@@2@@std@@QAEXPAU?$_Tree_node@U?$pair@$$CBEF@std@@PAX@2@@Z 005aa1e0 f i GameSocket.obj
 0002:000532f0       ?_Freenode0@?$_Tree_buy@U?$pair@$$CBEV?$map@EFU?$less@E@std@@V?$allocator@U?$pair@$$CBEF@std@@@2@@std@@@std@@V?$allocator@U?$pair@$$CBEV?$map@EFU?$less@E@std@@V?$allocator@U?$pair@$$CBEF@std@@@2@@std@@@std@@@2@@std@@QAEXPAU?$_Tree_node@U?$pair@$$CBEV?$map@EFU?$less@E@std@@V?$allocator@U?$pair@$$CBEF@std@@@2@@std@@@std@@PAX@2@@Z 005aa2f0 f i GameSocket.obj
 0002:00053400       ?_Freenode0@?$_Tree_buy@U?$pair@$$CBIPAU_PARTY_GROUP@@@std@@V?$allocator@U?$pair@$$CBIPAU_PARTY_GROUP@@@std@@@2@@std@@QAEXPAU?$_Tree_node@U?$pair@$$CBIPAU_PARTY_GROUP@@@std@@PAX@2@@Z 005aa400 f i GameSocket.obj
 0002:00053510       ?_Getal@?$_Tree_alloc@$0A@U?$_Tree_base_types@U?$pair@$$CBIPAU_PARTY_GROUP@@@std@@V?$allocator@U?$pair@$$CBIPAU_PARTY_GROUP@@@std@@@2@@std@@@std@@QBE?AU?$_Wrap_alloc@V?$allocator@U?$_Tree_node@U?$pair@$$CBIPAU_PARTY_GROUP@@@std@@PAX@std@@@std@@@2@XZ 005aa510 f i GameSocket.obj
 0002:00053570       ?_Getcomp@?$_Tree_comp@$0A@V?$_Tmap_traits@EFU?$less@E@std@@V?$allocator@U?$pair@$$CBEF@std@@@2@$0A@@std@@@std@@QBE?AU?$less@E@2@XZ 005aa570 f i GameSocket.obj
 0002:000535b0       ?_Getcomp@?$_Tree_comp@$0A@V?$_Tmap_traits@EV?$map@EFU?$less@E@std@@V?$allocator@U?$pair@$$CBEF@std@@@2@@std@@U?$less@E@2@V?$allocator@U?$pair@$$CBEV?$map@EFU?$less@E@std@@V?$allocator@U?$pair@$$CBEF@std@@@2@@std@@@std@@@2@$0A@@std@@@std@@QBE?AU?$less@E@2@XZ 005aa5b0 f i GameSocket.obj
 0002:000535f0       ?_Getcomp@?$_Tree_comp@$0A@V?$_Tmap_traits@IPAU_PARTY_GROUP@@U?$less@I@std@@V?$allocator@U?$pair@$$CBIPAU_PARTY_GROUP@@@std@@@3@$0A@@std@@@std@@QBE?AU?$less@I@2@XZ 005aa5f0 f i GameSocket.obj
 0002:00053630       ?_Isnil@?$_Tree_val@U?$_Tree_simple_types@U?$pair@$$CBIPAU_PARTY_GROUP@@@std@@@std@@@std@@SAAADPAU?$_Tree_node@U?$pair@$$CBIPAU_PARTY_GROUP@@@std@@PAX@2@@Z 005aa630 f i GameSocket.obj
 0002:00053670       ?_Isnil@?$_Tree_val@U?$_Tree_simple_types@U?$pair@$$CBIPAVCNpc@@@std@@@std@@@std@@SAAADPAU?$_Tree_node@U?$pair@$$CBIPAVCNpc@@@std@@PAX@2@@Z 005aa670 f i GameSocket.obj
 0002:000536b0       ?_Key@?$_Tree@V?$_Tmap_traits@EFU?$less@E@std@@V?$allocator@U?$pair@$$CBEF@std@@@2@$0A@@std@@@std@@IBEABEPAU?$_Tree_node@U?$pair@$$CBEF@std@@PAX@2@@Z 005aa6b0 f i GameSocket.obj
 0002:00053720       ?_Key@?$_Tree@V?$_Tmap_traits@EV?$map@EFU?$less@E@std@@V?$allocator@U?$pair@$$CBEF@std@@@2@@std@@U?$less@E@2@V?$allocator@U?$pair@$$CBEV?$map@EFU?$less@E@std@@V?$allocator@U?$pair@$$CBEF@std@@@2@@std@@@std@@@2@$0A@@std@@@std@@IBEABEPAU?$_Tree_node@U?$pair@$$CBEV?$map@EFU?$less@E@std@@V?$allocator@U?$pair@$$CBEF@std@@@2@@std@@@std@@PAX@2@@Z 005aa720 f i GameSocket.obj
 0002:00053790       ?_Key@?$_Tree@V?$_Tmap_traits@IPAU_PARTY_GROUP@@U?$less@I@std@@V?$allocator@U?$pair@$$CBIPAU_PARTY_GROUP@@@std@@@3@$0A@@std@@@std@@IBEABIPAU?$_Tree_node@U?$pair@$$CBIPAU_PARTY_GROUP@@@std@@PAX@2@@Z 005aa790 f i GameSocket.obj
 0002:00053800       ?_Kfn@?$_Tree@V?$_Tmap_traits@EFU?$less@E@std@@V?$allocator@U?$pair@$$CBEF@std@@@2@$0A@@std@@@std@@IBEABEABU?$pair@$$CBEF@2@@Z 005aa800 f i GameSocket.obj
 0002:00053860       ?_Kfn@?$_Tree@V?$_Tmap_traits@EV?$map@EFU?$less@E@std@@V?$allocator@U?$pair@$$CBEF@std@@@2@@std@@U?$less@E@2@V?$allocator@U?$pair@$$CBEV?$map@EFU?$less@E@std@@V?$allocator@U?$pair@$$CBEF@std@@@2@@std@@@std@@@2@$0A@@std@@@std@@IBEABEABU?$pair@$$CBEV?$map@EFU?$less@E@std@@V?$allocator@U?$pair@$$CBEF@std@@@2@@std@@@2@@Z 005aa860 f i GameSocket.obj
 0002:000538c0       ?_Kfn@?$_Tree@V?$_Tmap_traits@IPAU_PARTY_GROUP@@U?$less@I@std@@V?$allocator@U?$pair@$$CBIPAU_PARTY_GROUP@@@std@@@3@$0A@@std@@@std@@IBEABIABU?$pair@$$CBIPAU_PARTY_GROUP@@@2@@Z 005aa8c0 f i GameSocket.obj
 0002:00053920       ?_Lbound@?$_Tree@V?$_Tmap_traits@EV?$map@EFU?$less@E@std@@V?$allocator@U?$pair@$$CBEF@std@@@2@@std@@U?$less@E@2@V?$allocator@U?$pair@$$CBEV?$map@EFU?$less@E@std@@V?$allocator@U?$pair@$$CBEF@std@@@2@@std@@@std@@@2@$0A@@std@@@std@@IAEPAU?$_Tree_node@U?$pair@$$CBEV?$map@EFU?$less@E@std@@V?$allocator@U?$pair@$$CBEF@std@@@2@@std@@@std@@PAX@2@ABE@Z 005aa920 f i GameSocket.obj
 0002:00053a30       ?_Left@?$_Tree_val@U?$_Tree_simple_types@U?$pair@$$CBIPAU_PARTY_GROUP@@@std@@@std@@@std@@SAAAPAU?$_Tree_node@U?$pair@$$CBIPAU_PARTY_GROUP@@@std@@PAX@2@PAU32@@Z 005aaa30 f i GameSocket.obj
 0002:00053a70       ?_Left@?$_Tree_val@U?$_Tree_simple_types@U?$pair@$$CBIPAVCNpc@@@std@@@std@@@std@@SAAAPAU?$_Tree_node@U?$pair@$$CBIPAVCNpc@@@std@@PAX@2@PAU32@@Z 005aaa70 f i GameSocket.obj
 0002:00053ab0       ?_Lmost@?$_Tree@V?$_Tmap_traits@IPAU_PARTY_GROUP@@U?$less@I@std@@V?$allocator@U?$pair@$$CBIPAU_PARTY_GROUP@@@std@@@3@$0A@@std@@@std@@IBEAAPAU?$_Tree_node@U?$pair@$$CBIPAU_PARTY_GROUP@@@std@@PAX@2@XZ 005aaab0 f i GameSocket.obj
 0002:00053b10       ?_Lmost@?$_Tree@V?$_Tmap_traits@IPAVCNpc@@U?$less@I@std@@V?$allocator@U?$pair@$$CBIPAVCNpc@@@std@@@3@$0A@@std@@@std@@IBEAAPAU?$_Tree_node@U?$pair@$$CBIPAVCNpc@@@std@@PAX@2@XZ 005aab10 f i GameSocket.obj
 0002:00053b70       ?_Lrotate@?$_Tree@V?$_Tmap_traits@IPAU_PARTY_GROUP@@U?$less@I@std@@V?$allocator@U?$pair@$$CBIPAU_PARTY_GROUP@@@std@@@3@$0A@@std@@@std@@IAEXPAU?$_Tree_node@U?$pair@$$CBIPAU_PARTY_GROUP@@@std@@PAX@2@@Z 005aab70 f i GameSocket.obj
 0002:00053d20       ?_Max@?$_Tree_val@U?$_Tree_simple_types@U?$pair@$$CBIPAU_PARTY_GROUP@@@std@@@std@@@std@@SAPAU?$_Tree_node@U?$pair@$$CBIPAU_PARTY_GROUP@@@std@@PAX@2@PAU32@@Z 005aad20 f i GameSocket.obj
 0002:00053da0       ?_Min@?$_Tree_val@U?$_Tree_simple_types@U?$pair@$$CBIPAVCNpc@@@std@@@std@@@std@@SAPAU?$_Tree_node@U?$pair@$$CBIPAVCNpc@@@std@@PAX@2@PAU32@@Z 005aada0 f i GameSocket.obj
 0002:00053e20       ?_Mynode@?$_Tree_unchecked_const_iterator@V?$_Tree_val@U?$_Tree_simple_types@U?$pair@$$CBIPAU_PARTY_GROUP@@@std@@@std@@@std@@U_Iterator_base12@2@@std@@QBEPAU?$_Tree_node@U?$pair@$$CBIPAU_PARTY_GROUP@@@std@@PAX@2@XZ 005aae20 f i GameSocket.obj
 0002:00053e60       ?_Myval@?$_Tree_val@U?$_Tree_simple_types@U?$pair@$$CBIPAU_PARTY_GROUP@@@std@@@std@@@std@@SAAAU?$pair@$$CBIPAU_PARTY_GROUP@@@2@PAU?$_Tree_node@U?$pair@$$CBIPAU_PARTY_GROUP@@@std@@PAX@2@@Z 005aae60 f i GameSocket.obj
 0002:00053ea0       ?_Myval@?$_Tree_val@U?$_Tree_simple_types@U?$pair@$$CBIPAVCNpc@@@std@@@std@@@std@@SAAAU?$pair@$$CBIPAVCNpc@@@2@PAU?$_Tree_node@U?$pair@$$CBIPAVCNpc@@@std@@PAX@2@@Z 005aaea0 f i GameSocket.obj
 0002:00053ee0       ?_Parent@?$_Tree_val@U?$_Tree_simple_types@U?$pair@$$CBIPAU_PARTY_GROUP@@@std@@@std@@@std@@SAAAPAU?$_Tree_node@U?$pair@$$CBIPAU_PARTY_GROUP@@@std@@PAX@2@PAU32@@Z 005aaee0 f i GameSocket.obj
 0002:00053f20       ?_Parent@?$_Tree_val@U?$_Tree_simple_types@U?$pair@$$CBIPAVCNpc@@@std@@@std@@@std@@SAAAPAU?$_Tree_node@U?$pair@$$CBIPAVCNpc@@@std@@PAX@2@PAU32@@Z 005aaf20 f i GameSocket.obj
 0002:00053f60       ?_Pdif@?$basic_string@DU?$char_traits@D@std@@V?$allocator@D@2@@std@@SAIV?$_String_const_iterator@V?$_String_val@U?$_Simple_types@D@std@@@std@@@2@0@Z 005aaf60 f i GameSocket.obj
 0002:00054050       ?_Right@?$_Tree_val@U?$_Tree_simple_types@U?$pair@$$CBIPAU_PARTY_GROUP@@@std@@@std@@@std@@SAAAPAU?$_Tree_node@U?$pair@$$CBIPAU_PARTY_GROUP@@@std@@PAX@2@PAU32@@Z 005ab050 f i GameSocket.obj
 0002:00054090       ?_Right@?$_Tree_val@U?$_Tree_simple_types@U?$pair@$$CBIPAVCNpc@@@std@@@std@@@std@@SAAAPAU?$_Tree_node@U?$pair@$$CBIPAVCNpc@@@std@@PAX@2@PAU32@@Z 005ab090 f i GameSocket.obj
 0002:000540d0       ?_Rmost@?$_Tree@V?$_Tmap_traits@IPAU_PARTY_GROUP@@U?$less@I@std@@V?$allocator@U?$pair@$$CBIPAU_PARTY_GROUP@@@std@@@3@$0A@@std@@@std@@IBEAAPAU?$_Tree_node@U?$pair@$$CBIPAU_PARTY_GROUP@@@std@@PAX@2@XZ 005ab0d0 f i GameSocket.obj
 0002:00054130       ?_Root@?$_Tree@V?$_Tmap_traits@IPAU_PARTY_GROUP@@U?$less@I@std@@V?$allocator@U?$pair@$$CBIPAU_PARTY_GROUP@@@std@@@3@$0A@@std@@@std@@IBEAAPAU?$_Tree_node@U?$pair@$$CBIPAU_PARTY_GROUP@@@std@@PAX@2@XZ 005ab130 f i GameSocket.obj
 0002:00054190       ?_Rrotate@?$_Tree@V?$_Tmap_traits@IPAU_PARTY_GROUP@@U?$less@I@std@@V?$allocator@U?$pair@$$CBIPAU_PARTY_GROUP@@@std@@@3@$0A@@std@@@std@@IAEXPAU?$_Tree_node@U?$pair@$$CBIPAU_PARTY_GROUP@@@std@@PAX@2@@Z 005ab190 f i GameSocket.obj
 0002:00054340       ?_Setcomp@?$_Tree_comp@$0A@V?$_Tmap_traits@EFU?$less@E@std@@V?$allocator@U?$pair@$$CBEF@std@@@2@$0A@@std@@@std@@QAEXABU?$less@E@2@@Z 005ab340 f i GameSocket.obj
 0002:00054380       ?_Swap_all@_Container_base12@std@@QAEXAAU12@@Z 005ab380 f i GameSocket.obj
 0002:00054470       ?_Swapcomp@?$_Tree_comp@$0A@V?$_Tmap_traits@EFU?$less@E@std@@V?$allocator@U?$pair@$$CBEF@std@@@2@$0A@@std@@@std@@QAEXABU?$less@E@2@@Z 005ab470 f i GameSocket.obj
 0002:000544b0       ?allocate@?$_Wrap_alloc@V?$allocator@U?$_Tree_node@U?$pair@$$CBEF@std@@PAX@std@@@std@@@std@@QAEPAU?$_Tree_node@U?$pair@$$CBEF@std@@PAX@2@I@Z 005ab4b0 f i GameSocket.obj
 0002:00054510       ?allocate@?$_Wrap_alloc@V?$allocator@U?$_Tree_node@U?$pair@$$CBIPAU_PARTY_GROUP@@@std@@PAX@std@@@std@@@std@@QAEPAU?$_Tree_node@U?$pair@$$CBIPAU_PARTY_GROUP@@@std@@PAX@2@I@Z 005ab510 f i GameSocket.obj
 0002:00054570       ?allocate@?$allocator@U?$_Tree_node@U?$pair@$$CBEF@std@@PAX@std@@@std@@QAEPAU?$_Tree_node@U?$pair@$$CBEF@std@@PAX@2@I@Z 005ab570 f i GameSocket.obj
 0002:000545d0       ?allocate@?$allocator@U?$_Tree_node@U?$pair@$$CBIPAU_PARTY_GROUP@@@std@@PAX@std@@@std@@QAEPAU?$_Tree_node@U?$pair@$$CBIPAU_PARTY_GROUP@@@std@@PAX@2@I@Z 005ab5d0 f i GameSocket.obj
 0002:00054630       ?assign@?$char_traits@D@std@@SAPADPADID@Z 005ab630 f i GameSocket.obj
 0002:00054690       ?begin@?$_Tree@V?$_Tmap_traits@IPAU_PARTY_GROUP@@U?$less@I@std@@V?$allocator@U?$pair@$$CBIPAU_PARTY_GROUP@@@std@@@3@$0A@@std@@@std@@QAE?AV?$_Tree_iterator@V?$_Tree_val@U?$_Tree_simple_types@U?$pair@$$CBIPAU_PARTY_GROUP@@@std@@@std@@@std@@@2@XZ 005ab690 f i GameSocket.obj
 0002:00054700       ?begin@?$_Tree@V?$_Tmap_traits@IPAVCNpc@@U?$less@I@std@@V?$allocator@U?$pair@$$CBIPAVCNpc@@@std@@@3@$0A@@std@@@std@@QAE?AV?$_Tree_iterator@V?$_Tree_val@U?$_Tree_simple_types@U?$pair@$$CBIPAVCNpc@@@std@@@std@@@std@@@2@XZ 005ab700 f i GameSocket.obj
 0002:00054770       ?begin@?$basic_string@DU?$char_traits@D@std@@V?$allocator@D@2@@std@@QAE?AV?$_String_iterator@V?$_String_val@U?$_Simple_types@D@std@@@std@@@2@XZ 005ab770 f i GameSocket.obj
 0002:000547e0       ?c_str@?$basic_string@DU?$char_traits@D@std@@V?$allocator@D@2@@std@@QBEPBDXZ 005ab7e0 f i GameSocket.obj
 0002:00054830       ?clear@?$basic_string@DU?$char_traits@D@std@@V?$allocator@D@2@@std@@QAEXXZ 005ab830 f i GameSocket.obj
 0002:00054890       ?deallocate@?$_Wrap_alloc@V?$allocator@U?$_Tree_node@U?$pair@$$CBIPAU_PARTY_GROUP@@@std@@PAX@std@@@std@@@std@@QAEXPAU?$_Tree_node@U?$pair@$$CBIPAU_PARTY_GROUP@@@std@@PAX@2@I@Z 005ab890 f i GameSocket.obj
 0002:000548f0       ?deallocate@?$allocator@U?$_Tree_node@U?$pair@$$CBIPAU_PARTY_GROUP@@@std@@PAX@std@@@std@@QAEXPAU?$_Tree_node@U?$pair@$$CBIPAU_PARTY_GROUP@@@std@@PAX@2@I@Z 005ab8f0 f i GameSocket.obj
 0002:00054950       ?empty@?$basic_string@DU?$char_traits@D@std@@V?$allocator@D@2@@std@@QBE_NXZ 005ab950 f i GameSocket.obj
 0002:000549c0       ?end@?$_Tree@V?$_Tmap_traits@IPAVCNpc@@U?$less@I@std@@V?$allocator@U?$pair@$$CBIPAVCNpc@@@std@@@3@$0A@@std@@@std@@QAE?AV?$_Tree_iterator@V?$_Tree_val@U?$_Tree_simple_types@U?$pair@$$CBIPAVCNpc@@@std@@@std@@@std@@@2@XZ 005ab9c0 f i GameSocket.obj
 0002:00054a30       ?end@?$basic_string@DU?$char_traits@D@std@@V?$allocator@D@2@@std@@QAE?AV?$_String_iterator@V?$_String_val@U?$_Simple_types@D@std@@@std@@@2@XZ 005aba30 f i GameSocket.obj
 0002:00054aa0       ?insert@?$basic_string@DU?$char_traits@D@std@@V?$allocator@D@2@@std@@QAE?AV?$_String_iterator@V?$_String_val@U?$_Simple_types@D@std@@@std@@@2@V?$_String_const_iterator@V?$_String_val@U?$_Simple_types@D@std@@@std@@@2@D@Z 005abaa0 f i GameSocket.obj
 0002:00054c90       ?insert@?$basic_string@DU?$char_traits@D@std@@V?$allocator@D@2@@std@@QAEAAV12@IID@Z 005abc90 f i GameSocket.obj
 0002:00054db0       ?isGate@CNpc@@QAE_NXZ      005abdb0 f i GameSocket.obj
 0002:00054ea0       ?key_comp@?$_Tree@V?$_Tmap_traits@EFU?$less@E@std@@V?$allocator@U?$pair@$$CBEF@std@@@2@$0A@@std@@@std@@QBE?AU?$less@E@2@XZ 005abea0 f i GameSocket.obj
 0002:00054f00       ?length@?$basic_string@DU?$char_traits@D@std@@V?$allocator@D@2@@std@@QBEIXZ 005abf00 f i GameSocket.obj
 0002:00054f40       ?lower_bound@?$_Tree@V?$_Tmap_traits@EV?$map@EFU?$less@E@std@@V?$allocator@U?$pair@$$CBEF@std@@@2@@std@@U?$less@E@2@V?$allocator@U?$pair@$$CBEV?$map@EFU?$less@E@std@@V?$allocator@U?$pair@$$CBEF@std@@@2@@std@@@std@@@2@$0A@@std@@@std@@QAE?AV?$_Tree_iterator@V?$_Tree_val@U?$_Tree_simple_types@U?$pair@$$CBEV?$map@EFU?$less@E@std@@V?$allocator@U?$pair@$$CBEF@std@@@2@@std@@@std@@@std@@@std@@@2@ABE@Z 005abf40 f i GameSocket.obj
 0002:00054fd0       ?max_size@?$_Tree@V?$_Tmap_traits@EFU?$less@E@std@@V?$allocator@U?$pair@$$CBEF@std@@@2@$0A@@std@@@std@@QBEIXZ 005abfd0 f i GameSocket.obj
 0002:00055030       ?max_size@?$_Tree@V?$_Tmap_traits@EV?$map@EFU?$less@E@std@@V?$allocator@U?$pair@$$CBEF@std@@@2@@std@@U?$less@E@2@V?$allocator@U?$pair@$$CBEV?$map@EFU?$less@E@std@@V?$allocator@U?$pair@$$CBEF@std@@@2@@std@@@std@@@2@$0A@@std@@@std@@QBEIXZ 005ac030 f i GameSocket.obj
 0002:00055090       ?max_size@?$_Tree@V?$_Tmap_traits@IPAU_PARTY_GROUP@@U?$less@I@std@@V?$allocator@U?$pair@$$CBIPAU_PARTY_GROUP@@@std@@@3@$0A@@std@@@std@@QBEIXZ 005ac090 f i GameSocket.obj
 0002:000550f0       ?max_size@?$_Wrap_alloc@V?$allocator@U?$_Tree_node@U?$pair@$$CBEF@std@@PAX@std@@@std@@@std@@QBEIXZ 005ac0f0 f i GameSocket.obj
 0002:00055150       ?max_size@?$_Wrap_alloc@V?$allocator@U?$_Tree_node@U?$pair@$$CBEV?$map@EFU?$less@E@std@@V?$allocator@U?$pair@$$CBEF@std@@@2@@std@@@std@@PAX@std@@@std@@@std@@QBEIXZ 005ac150 f i GameSocket.obj
 0002:000551b0       ?max_size@?$_Wrap_alloc@V?$allocator@U?$_Tree_node@U?$pair@$$CBIPAU_PARTY_GROUP@@@std@@PAX@std@@@std@@@std@@QBEIXZ 005ac1b0 f i GameSocket.obj
 0002:00055210       ?max_size@?$allocator@U?$_Tree_node@U?$pair@$$CBEF@std@@PAX@std@@@std@@QBEIXZ 005ac210 f i GameSocket.obj
 0002:00055250       ?max_size@?$allocator@U?$_Tree_node@U?$pair@$$CBEV?$map@EFU?$less@E@std@@V?$allocator@U?$pair@$$CBEF@std@@@2@@std@@@std@@PAX@std@@@std@@QBEIXZ 005ac250 f i GameSocket.obj
 0002:00055290       ?max_size@?$allocator@U?$_Tree_node@U?$pair@$$CBIPAU_PARTY_GROUP@@@std@@PAX@std@@@std@@QBEIXZ 005ac290 f i GameSocket.obj
 0002:000552d0       ?max_size@?$allocator_traits@V?$allocator@U?$_Tree_node@U?$pair@$$CBEF@std@@PAX@std@@@std@@@std@@SAIABV?$allocator@U?$_Tree_node@U?$pair@$$CBEF@std@@PAX@std@@@2@@Z 005ac2d0 f i GameSocket.obj
 0002:00055320       ?max_size@?$allocator_traits@V?$allocator@U?$_Tree_node@U?$pair@$$CBEV?$map@EFU?$less@E@std@@V?$allocator@U?$pair@$$CBEF@std@@@2@@std@@@std@@PAX@std@@@std@@@std@@SAIABV?$allocator@U?$_Tree_node@U?$pair@$$CBEV?$map@EFU?$less@E@std@@V?$allocator@U?$pair@$$CBEF@std@@@2@@std@@@std@@PAX@std@@@2@@Z 005ac320 f i GameSocket.obj
 0002:00055370       ?max_size@?$allocator_traits@V?$allocator@U?$_Tree_node@U?$pair@$$CBIPAU_PARTY_GROUP@@@std@@PAX@std@@@std@@@std@@SAIABV?$allocator@U?$_Tree_node@U?$pair@$$CBIPAU_PARTY_GROUP@@@std@@PAX@std@@@2@@Z 005ac370 f i GameSocket.obj
 0002:000553c0       ?pointer_to@?$pointer_traits@PAU?$pair@$$CBIPAVCNpc@@@std@@@std@@SAPAU?$pair@$$CBIPAVCNpc@@@2@AAU32@@Z 005ac3c0 f i GameSocket.obj
 0002:00055410       ?push_back@?$basic_string@DU?$char_traits@D@std@@V?$allocator@D@2@@std@@QAEXD@Z 005ac410 f i GameSocket.obj
 0002:00055530       ??_GCServerDlg@@QAEPAXI@Z  005ac530 f i main.obj
 0002:000555a0       ?_ConsoleHandler@@YGHK@Z   005ac5a0 f   main.obj
 0002:00055630       _main                      005ac630 f   main.obj
 0002:00055830       ??$?0AAIAAPAH@?$pair@IPAH@std@@QAE@AAIAAPAHPAPAX@Z 005ac830 f i MAP.obj
 0002:000558b0       ??$?0AAIAAPAVCRoomEvent@@@?$pair@IPAVCRoomEvent@@@std@@QAE@AAIAAPAVCRoomEvent@@PAPAX@Z 005ac8b0 f i MAP.obj
 0002:00055930       ??$?0AAV?$_Tree_iterator@V?$_Tree_val@U?$_Tree_simple_types@U?$pair@$$CBIPAH@std@@@std@@@std@@@std@@_N@?$pair@V?$_Tree_iterator@V?$_Tree_val@U?$_Tree_simple_types@U?$pair@$$CBIPAH@std@@@std@@@std@@@std@@_N@std@@QAE@AAV?$_Tree_iterator@V?$_Tree_val@U?$_Tree_simple_types@U?$pair@$$CBIPAH@std@@@std@@@std@@@1@$$QA_NPAPAX@Z 005ac930 f i MAP.obj
 0002:00055a00       ??$?0AAV?$_Tree_iterator@V?$_Tree_val@U?$_Tree_simple_types@U?$pair@$$CBIPAVCRoomEvent@@@std@@@std@@@std@@@std@@_N@?$pair@V?$_Tree_iterator@V?$_Tree_val@U?$_Tree_simple_types@U?$pair@$$CBIPAVCRoomEvent@@@std@@@std@@@std@@@std@@_N@std@@QAE@AAV?$_Tree_iterator@V?$_Tree_val@U?$_Tree_simple_types@U?$pair@$$CBIPAVCRoomEvent@@@std@@@std@@@std@@@1@$$QA_NPAPAX@Z 005aca00 f i MAP.obj
 0002:00055ad0       ??$?0IPAH@?$pair@$$CBIPAH@std@@QAE@$$QAU?$pair@IPAH@1@PAPAX@Z 005acad0 f i MAP.obj
 0002:00055b50       ??$?0IPAH@?$pair@IPAH@std@@QAE@$$QAU01@PAPAX@Z 005acb50 f i MAP.obj
 0002:00055bd0       ??$?0IPAVCRoomEvent@@@?$pair@$$CBIPAVCRoomEvent@@@std@@QAE@$$QAU?$pair@IPAVCRoomEvent@@@1@PAPAX@Z 005acbd0 f i MAP.obj
 0002:00055c50       ??$?0IPAVCRoomEvent@@@?$pair@IPAVCRoomEvent@@@std@@QAE@$$QAU01@PAPAX@Z 005acc50 f i MAP.obj
 0002:00055cd0       ??$?0U?$_Tree_node@U?$pair@$$CBIPAH@std@@PAX@std@@@?$allocator@U_Container_proxy@std@@@std@@QAE@ABV?$allocator@U?$_Tree_node@U?$pair@$$CBIPAH@std@@PAX@std@@@1@@Z 005accd0 f i MAP.obj
 0002:00055d10       ??$?0U?$_Tree_node@U?$pair@$$CBIPAVCRoomEvent@@@std@@PAX@std@@@?$allocator@U_Container_proxy@std@@@std@@QAE@ABV?$allocator@U?$_Tree_node@U?$pair@$$CBIPAVCRoomEvent@@@std@@PAX@std@@@1@@Z 005acd10 f i MAP.obj
 0002:00055d50       ??$?0U?$_Wrap_alloc@V?$allocator@U?$_Tree_node@U?$pair@$$CBIPAH@std@@PAX@std@@@std@@@std@@@?$_Wrap_alloc@V?$allocator@U_Container_proxy@std@@@std@@@std@@QAE@ABU?$_Wrap_alloc@V?$allocator@U?$_Tree_node@U?$pair@$$CBIPAH@std@@PAX@std@@@std@@@1@@Z 005acd50 f i MAP.obj
 0002:00055db0       ??$?0U?$_Wrap_alloc@V?$allocator@U?$_Tree_node@U?$pair@$$CBIPAVCRoomEvent@@@std@@PAX@std@@@std@@@std@@@?$_Wrap_alloc@V?$allocator@U_Container_proxy@std@@@std@@@std@@QAE@ABU?$_Wrap_alloc@V?$allocator@U?$_Tree_node@U?$pair@$$CBIPAVCRoomEvent@@@std@@PAX@std@@@std@@@1@@Z 005acdb0 f i MAP.obj
 0002:00055e10       ??$?0V?$_Tree_iterator@V?$_Tree_val@U?$_Tree_simple_types@U?$pair@$$CBIPAH@std@@@std@@@std@@@std@@_N@?$pair@V?$_Tree_iterator@V?$_Tree_val@U?$_Tree_simple_types@U?$pair@$$CBIPAH@std@@@std@@@std@@@std@@_N@std@@QAE@$$QAU01@PAPAX@Z 005ace10 f i MAP.obj
 0002:00055ee0       ??$?0V?$_Tree_iterator@V?$_Tree_val@U?$_Tree_simple_types@U?$pair@$$CBIPAH@std@@@std@@@std@@@std@@_N@?$pair@V?$_Tree_iterator@V?$_Tree_val@U?$_Tree_simple_types@U?$pair@$$CBIPAH@std@@@std@@@std@@@std@@_N@std@@QAE@$$QAV?$_Tree_iterator@V?$_Tree_val@U?$_Tree_simple_types@U?$pair@$$CBIPAH@std@@@std@@@std@@@1@$$QA_NPAPAX@Z 005acee0 f i MAP.obj
 0002:00055fb0       ??$?0V?$_Tree_iterator@V?$_Tree_val@U?$_Tree_simple_types@U?$pair@$$CBIPAVCRoomEvent@@@std@@@std@@@std@@@std@@_N@?$pair@V?$_Tree_iterator@V?$_Tree_val@U?$_Tree_simple_types@U?$pair@$$CBIPAVCRoomEvent@@@std@@@std@@@std@@@std@@_N@std@@QAE@$$QAU01@PAPAX@Z 005acfb0 f i MAP.obj
 0002:00056080       ??$?0V?$_Tree_iterator@V?$_Tree_val@U?$_Tree_simple_types@U?$pair@$$CBIPAVCRoomEvent@@@std@@@std@@@std@@@std@@_N@?$pair@V?$_Tree_iterator@V?$_Tree_val@U?$_Tree_simple_types@U?$pair@$$CBIPAVCRoomEvent@@@std@@@std@@@std@@@std@@_N@std@@QAE@$$QAV?$_Tree_iterator@V?$_Tree_val@U?$_Tree_simple_types@U?$pair@$$CBIPAVCRoomEvent@@@std@@@std@@@std@@@1@$$QA_NPAPAX@Z 005ad080 f i MAP.obj
 0002:00056150       ??$_Allocate@U?$_Tree_node@U?$pair@$$CBIPAH@std@@PAX@std@@@std@@YAPAU?$_Tree_node@U?$pair@$$CBIPAH@std@@PAX@0@IPAU10@@Z 005ad150 f i MAP.obj
 0002:000561e0       ??$_Allocate@U?$_Tree_node@U?$pair@$$CBIPAVCRoomEvent@@@std@@PAX@std@@@std@@YAPAU?$_Tree_node@U?$pair@$$CBIPAVCRoomEvent@@@std@@PAX@0@IPAU10@@Z 005ad1e0 f i MAP.obj
 0002:00056270       ??$_Buynode@U?$pair@IPAH@std@@@?$_Tree_buy@U?$pair@$$CBIPAH@std@@V?$allocator@U?$pair@$$CBIPAH@std@@@2@@std@@QAEPAU?$_Tree_node@U?$pair@$$CBIPAH@std@@PAX@1@$$QAU?$pair@IPAH@1@@Z 005ad270 f i MAP.obj
 0002:000563e0       ??$_Buynode@U?$pair@IPAVCRoomEvent@@@std@@@?$_Tree_buy@U?$pair@$$CBIPAVCRoomEvent@@@std@@V?$allocator@U?$pair@$$CBIPAVCRoomEvent@@@std@@@2@@std@@QAEPAU?$_Tree_node@U?$pair@$$CBIPAVCRoomEvent@@@std@@PAX@1@$$QAU?$pair@IPAVCRoomEvent@@@1@@Z 005ad3e0 f i MAP.obj
 0002:00056550       ??$_Buynode_if_nil@AAU?$pair@$$CBIPAH@std@@@?$_Tree@V?$_Tmap_traits@IPAHU?$less@I@std@@V?$allocator@U?$pair@$$CBIPAH@std@@@2@$0A@@std@@@std@@IAEPAU?$_Tree_node@U?$pair@$$CBIPAH@std@@PAX@1@PAU21@AAU?$pair@$$CBIPAH@1@@Z 005ad550 f i MAP.obj
 0002:00056590       ??$_Buynode_if_nil@AAU?$pair@$$CBIPAVCRoomEvent@@@std@@@?$_Tree@V?$_Tmap_traits@IPAVCRoomEvent@@U?$less@I@std@@V?$allocator@U?$pair@$$CBIPAVCRoomEvent@@@std@@@3@$0A@@std@@@std@@IAEPAU?$_Tree_node@U?$pair@$$CBIPAVCRoomEvent@@@std@@PAX@1@PAU21@AAU?$pair@$$CBIPAVCRoomEvent@@@1@@Z 005ad590 f i MAP.obj
 0002:000565d0       ??$_DebugHeapDelete@V_Facet_base@std@@@std@@YAXPAV_Facet_base@0@@Z 005ad5d0 f i MAP.obj
 0002:00056650       ??$_DebugHeapDelete@Vfacet@locale@std@@@std@@YAXPAVfacet@locale@0@@Z 005ad650 f i MAP.obj
 0002:000566d0       ??$_DebugHeapDelete@Vlocale@std@@@std@@YAXPAVlocale@0@@Z 005ad6d0 f i MAP.obj
 0002:00056740       ??$_Debug_pointer@D@std@@YAXPADPB_WI@Z 005ad740 f i MAP.obj
 0002:000567a0       ??$_Debug_range2@PBD@std@@YAXPBD0PB_WIUrandom_access_iterator_tag@0@@Z 005ad7a0 f i MAP.obj
 0002:00056840       ??$_Debug_range@PBD@std@@YAXPBD0PB_WI@Z 005ad840 f i MAP.obj
 0002:000568c0       ??$_Fgetc@D@std@@YA_NAADPAU_iobuf@@@Z 005ad8c0 f i MAP.obj
 0002:00056930       ??$_Fputc@D@std@@YA_NDPAU_iobuf@@@Z 005ad930 f i MAP.obj
 0002:000569b0       ??$_Insert_at@AAU?$pair@$$CBIPAH@std@@PAU?$_Tree_node@U?$pair@$$CBIPAH@std@@PAX@2@@?$_Tree@V?$_Tmap_traits@IPAHU?$less@I@std@@V?$allocator@U?$pair@$$CBIPAH@std@@@2@$0A@@std@@@std@@IAE?AV?$_Tree_iterator@V?$_Tree_val@U?$_Tree_simple_types@U?$pair@$$CBIPAH@std@@@std@@@std@@@1@_NPAU?$_Tree_node@U?$pair@$$CBIPAH@std@@PAX@1@AAU?$pair@$$CBIPAH@1@1@Z 005ad9b0 f i MAP.obj
 0002:00056f30       ??$_Insert_at@AAU?$pair@$$CBIPAVCRoomEvent@@@std@@PAU?$_Tree_node@U?$pair@$$CBIPAVCRoomEvent@@@std@@PAX@2@@?$_Tree@V?$_Tmap_traits@IPAVCRoomEvent@@U?$less@I@std@@V?$allocator@U?$pair@$$CBIPAVCRoomEvent@@@std@@@3@$0A@@std@@@std@@IAE?AV?$_Tree_iterator@V?$_Tree_val@U?$_Tree_simple_types@U?$pair@$$CBIPAVCRoomEvent@@@std@@@std@@@std@@@1@_NPAU?$_Tree_node@U?$pair@$$CBIPAVCRoomEvent@@@std@@PAX@1@AAU?$pair@$$CBIPAVCRoomEvent@@@1@1@Z 005adf30 f i MAP.obj
 0002:000574b0       ??$_Insert_nohint@AAU?$pair@$$CBIPAH@std@@PAU?$_Tree_node@U?$pair@$$CBIPAH@std@@PAX@2@@?$_Tree@V?$_Tmap_traits@IPAHU?$less@I@std@@V?$allocator@U?$pair@$$CBIPAH@std@@@2@$0A@@std@@@std@@IAE?AU?$pair@V?$_Tree_iterator@V?$_Tree_val@U?$_Tree_simple_types@U?$pair@$$CBIPAH@std@@@std@@@std@@@std@@_N@1@_NAAU?$pair@$$CBIPAH@1@PAU?$_Tree_node@U?$pair@$$CBIPAH@std@@PAX@1@@Z 005ae4b0 f i MAP.obj
 0002:00057d20       ??$_Insert_nohint@AAU?$pair@$$CBIPAVCRoomEvent@@@std@@PAU?$_Tree_node@U?$pair@$$CBIPAVCRoomEvent@@@std@@PAX@2@@?$_Tree@V?$_Tmap_traits@IPAVCRoomEvent@@U?$less@I@std@@V?$allocator@U?$pair@$$CBIPAVCRoomEvent@@@std@@@3@$0A@@std@@@std@@IAE?AU?$pair@V?$_Tree_iterator@V?$_Tree_val@U?$_Tree_simple_types@U?$pair@$$CBIPAVCRoomEvent@@@std@@@std@@@std@@@std@@_N@1@_NAAU?$pair@$$CBIPAVCRoomEvent@@@1@PAU?$_Tree_node@U?$pair@$$CBIPAVCRoomEvent@@@std@@PAX@1@@Z 005aed20 f i MAP.obj
 0002:00058590       ??$_Iter_cat@PBD@std@@YA?AUrandom_access_iterator_tag@0@ABQBD@Z 005af590 f i MAP.obj
 0002:00058610       ??$_Kfn@$$CBIPAH@?$_Tmap_traits@IPAHU?$less@I@std@@V?$allocator@U?$pair@$$CBIPAH@std@@@2@$0A@@std@@SAABIABU?$pair@$$CBIPAH@1@@Z 005af610 f i MAP.obj
 0002:00058650       ??$_Kfn@$$CBIPAVCRoomEvent@@@?$_Tmap_traits@IPAVCRoomEvent@@U?$less@I@std@@V?$allocator@U?$pair@$$CBIPAVCRoomEvent@@@std@@@3@$0A@@std@@SAABIABU?$pair@$$CBIPAVCRoomEvent@@@1@@Z 005af650 f i MAP.obj
 0002:00058690       ??$_Ungetc@D@std@@YA_NABDPAU_iobuf@@@Z 005af690 f i MAP.obj
 0002:00058710       ??$addressof@PAU?$_Tree_node@U?$pair@$$CBIPAH@std@@PAX@std@@@std@@YAPAPAU?$_Tree_node@U?$pair@$$CBIPAH@std@@PAX@0@AAPAU10@@Z 005af710 f i MAP.obj
 0002:00058750       ??$addressof@PAU?$_Tree_node@U?$pair@$$CBIPAVCRoomEvent@@@std@@PAX@std@@@std@@YAPAPAU?$_Tree_node@U?$pair@$$CBIPAVCRoomEvent@@@std@@PAX@0@AAPAU10@@Z 005af750 f i MAP.obj
 0002:00058790       ??$addressof@U?$pair@$$CBIPAH@std@@@std@@YAPAU?$pair@$$CBIPAH@0@AAU10@@Z 005af790 f i MAP.obj
 0002:000587d0       ??$addressof@U?$pair@$$CBIPAU_OBJECT_EVENT@@@std@@@std@@YAPAU?$pair@$$CBIPAU_OBJECT_EVENT@@@0@AAU10@@Z 005af7d0 f i MAP.obj
 0002:00058810       ??$addressof@U?$pair@$$CBIPAVCRoomEvent@@@std@@@std@@YAPAU?$pair@$$CBIPAVCRoomEvent@@@0@AAU10@@Z 005af810 f i MAP.obj
 0002:00058850       ??$construct@PAU?$_Tree_node@U?$pair@$$CBIPAH@std@@PAX@std@@AAPAU12@@?$_Wrap_alloc@V?$allocator@U?$_Tree_node@U?$pair@$$CBIPAH@std@@PAX@std@@@std@@@std@@QAEXPAPAU?$_Tree_node@U?$pair@$$CBIPAH@std@@PAX@1@AAPAU21@@Z 005af850 f i MAP.obj
 0002:000588c0       ??$construct@PAU?$_Tree_node@U?$pair@$$CBIPAH@std@@PAX@std@@AAPAU12@@?$allocator@U?$_Tree_node@U?$pair@$$CBIPAH@std@@PAX@std@@@std@@QAEXPAPAU?$_Tree_node@U?$pair@$$CBIPAH@std@@PAX@1@AAPAU21@@Z 005af8c0 f i MAP.obj
 0002:000589c0       ??$construct@PAU?$_Tree_node@U?$pair@$$CBIPAH@std@@PAX@std@@AAPAU12@@?$allocator_traits@V?$allocator@U?$_Tree_node@U?$pair@$$CBIPAH@std@@PAX@std@@@std@@@std@@SAXAAV?$allocator@U?$_Tree_node@U?$pair@$$CBIPAH@std@@PAX@std@@@1@PAPAU?$_Tree_node@U?$pair@$$CBIPAH@std@@PAX@1@AAPAU31@@Z 005af9c0 f i MAP.obj
 0002:00058a20       ??$construct@PAU?$_Tree_node@U?$pair@$$CBIPAVCRoomEvent@@@std@@PAX@std@@AAPAU12@@?$_Wrap_alloc@V?$allocator@U?$_Tree_node@U?$pair@$$CBIPAVCRoomEvent@@@std@@PAX@std@@@std@@@std@@QAEXPAPAU?$_Tree_node@U?$pair@$$CBIPAVCRoomEvent@@@std@@PAX@1@AAPAU21@@Z 005afa20 f i MAP.obj
 0002:00058a90       ??$construct@PAU?$_Tree_node@U?$pair@$$CBIPAVCRoomEvent@@@std@@PAX@std@@AAPAU12@@?$allocator@U?$_Tree_node@U?$pair@$$CBIPAVCRoomEvent@@@std@@PAX@std@@@std@@QAEXPAPAU?$_Tree_node@U?$pair@$$CBIPAVCRoomEvent@@@std@@PAX@1@AAPAU21@@Z 005afa90 f i MAP.obj
 0002:00058b90       ??$construct@PAU?$_Tree_node@U?$pair@$$CBIPAVCRoomEvent@@@std@@PAX@std@@AAPAU12@@?$allocator_traits@V?$allocator@U?$_Tree_node@U?$pair@$$CBIPAVCRoomEvent@@@std@@PAX@std@@@std@@@std@@SAXAAV?$allocator@U?$_Tree_node@U?$pair@$$CBIPAVCRoomEvent@@@std@@PAX@std@@@1@PAPAU?$_Tree_node@U?$pair@$$CBIPAVCRoomEvent@@@std@@PAX@1@AAPAU31@@Z 005afb90 f i MAP.obj
 0002:00058bf0       ??$construct@U?$pair@$$CBIPAH@std@@U?$pair@IPAH@2@@?$_Wrap_alloc@V?$allocator@U?$_Tree_node@U?$pair@$$CBIPAH@std@@PAX@std@@@std@@@std@@QAEXPAU?$pair@$$CBIPAH@1@$$QAU?$pair@IPAH@1@@Z 005afbf0 f i MAP.obj
 0002:00058c60       ??$construct@U?$pair@$$CBIPAH@std@@U?$pair@IPAH@2@@?$allocator@U?$_Tree_node@U?$pair@$$CBIPAH@std@@PAX@std@@@std@@QAEXPAU?$pair@$$CBIPAH@1@$$QAU?$pair@IPAH@1@@Z 005afc60 f i MAP.obj
 0002:00058d60       ??$construct@U?$pair@$$CBIPAH@std@@U?$pair@IPAH@2@@?$allocator_traits@V?$allocator@U?$_Tree_node@U?$pair@$$CBIPAH@std@@PAX@std@@@std@@@std@@SAXAAV?$allocator@U?$_Tree_node@U?$pair@$$CBIPAH@std@@PAX@std@@@1@PAU?$pair@$$CBIPAH@1@$$QAU?$pair@IPAH@1@@Z 005afd60 f i MAP.obj
 0002:00058dc0       ??$construct@U?$pair@$$CBIPAVCRoomEvent@@@std@@U?$pair@IPAVCRoomEvent@@@2@@?$_Wrap_alloc@V?$allocator@U?$_Tree_node@U?$pair@$$CBIPAVCRoomEvent@@@std@@PAX@std@@@std@@@std@@QAEXPAU?$pair@$$CBIPAVCRoomEvent@@@1@$$QAU?$pair@IPAVCRoomEvent@@@1@@Z 005afdc0 f i MAP.obj
 0002:00058e30       ??$construct@U?$pair@$$CBIPAVCRoomEvent@@@std@@U?$pair@IPAVCRoomEvent@@@2@@?$allocator@U?$_Tree_node@U?$pair@$$CBIPAVCRoomEvent@@@std@@PAX@std@@@std@@QAEXPAU?$pair@$$CBIPAVCRoomEvent@@@1@$$QAU?$pair@IPAVCRoomEvent@@@1@@Z 005afe30 f i MAP.obj
 0002:00058f30       ??$construct@U?$pair@$$CBIPAVCRoomEvent@@@std@@U?$pair@IPAVCRoomEvent@@@2@@?$allocator_traits@V?$allocator@U?$_Tree_node@U?$pair@$$CBIPAVCRoomEvent@@@std@@PAX@std@@@std@@@std@@SAXAAV?$allocator@U?$_Tree_node@U?$pair@$$CBIPAVCRoomEvent@@@std@@PAX@std@@@1@PAU?$pair@$$CBIPAVCRoomEvent@@@1@$$QAU?$pair@IPAVCRoomEvent@@@1@@Z 005aff30 f i MAP.obj
 0002:00058f90       ??$destroy@PAU?$_Tree_node@U?$pair@$$CBIPAH@std@@PAX@std@@@?$_Wrap_alloc@V?$allocator@U?$_Tree_node@U?$pair@$$CBIPAH@std@@PAX@std@@@std@@@std@@QAEXPAPAU?$_Tree_node@U?$pair@$$CBIPAH@std@@PAX@1@@Z 005aff90 f i MAP.obj
 0002:00058ff0       ??$destroy@PAU?$_Tree_node@U?$pair@$$CBIPAH@std@@PAX@std@@@?$allocator@U?$_Tree_node@U?$pair@$$CBIPAH@std@@PAX@std@@@std@@QAEXPAPAU?$_Tree_node@U?$pair@$$CBIPAH@std@@PAX@1@@Z 005afff0 f i MAP.obj
 0002:00059030       ??$destroy@PAU?$_Tree_node@U?$pair@$$CBIPAH@std@@PAX@std@@@?$allocator_traits@V?$allocator@U?$_Tree_node@U?$pair@$$CBIPAH@std@@PAX@std@@@std@@@std@@SAXAAV?$allocator@U?$_Tree_node@U?$pair@$$CBIPAH@std@@PAX@std@@@1@PAPAU?$_Tree_node@U?$pair@$$CBIPAH@std@@PAX@1@@Z 005b0030 f i MAP.obj
 0002:00059080       ??$destroy@PAU?$_Tree_node@U?$pair@$$CBIPAVCRoomEvent@@@std@@PAX@std@@@?$_Wrap_alloc@V?$allocator@U?$_Tree_node@U?$pair@$$CBIPAVCRoomEvent@@@std@@PAX@std@@@std@@@std@@QAEXPAPAU?$_Tree_node@U?$pair@$$CBIPAVCRoomEvent@@@std@@PAX@1@@Z 005b0080 f i MAP.obj
 0002:000590e0       ??$destroy@PAU?$_Tree_node@U?$pair@$$CBIPAVCRoomEvent@@@std@@PAX@std@@@?$allocator@U?$_Tree_node@U?$pair@$$CBIPAVCRoomEvent@@@std@@PAX@std@@@std@@QAEXPAPAU?$_Tree_node@U?$pair@$$CBIPAVCRoomEvent@@@std@@PAX@1@@Z 005b00e0 f i MAP.obj
 0002:00059120       ??$destroy@PAU?$_Tree_node@U?$pair@$$CBIPAVCRoomEvent@@@std@@PAX@std@@@?$allocator_traits@V?$allocator@U?$_Tree_node@U?$pair@$$CBIPAVCRoomEvent@@@std@@PAX@std@@@std@@@std@@SAXAAV?$allocator@U?$_Tree_node@U?$pair@$$CBIPAVCRoomEvent@@@std@@PAX@std@@@1@PAPAU?$_Tree_node@U?$pair@$$CBIPAVCRoomEvent@@@std@@PAX@1@@Z 005b0120 f i MAP.obj
 0002:00059170       ??$destroy@U?$pair@$$CBIPAH@std@@@?$_Wrap_alloc@V?$allocator@U?$_Tree_node@U?$pair@$$CBIPAH@std@@PAX@std@@@std@@@std@@QAEXPAU?$pair@$$CBIPAH@1@@Z 005b0170 f i MAP.obj
 0002:000591d0       ??$destroy@U?$pair@$$CBIPAH@std@@@?$allocator@U?$_Tree_node@U?$pair@$$CBIPAH@std@@PAX@std@@@std@@QAEXPAU?$pair@$$CBIPAH@1@@Z 005b01d0 f i MAP.obj
 0002:00059210       ??$destroy@U?$pair@$$CBIPAH@std@@@?$allocator_traits@V?$allocator@U?$_Tree_node@U?$pair@$$CBIPAH@std@@PAX@std@@@std@@@std@@SAXAAV?$allocator@U?$_Tree_node@U?$pair@$$CBIPAH@std@@PAX@std@@@1@PAU?$pair@$$CBIPAH@1@@Z 005b0210 f i MAP.obj
 0002:00059260       ??$destroy@U?$pair@$$CBIPAVCRoomEvent@@@std@@@?$_Wrap_alloc@V?$allocator@U?$_Tree_node@U?$pair@$$CBIPAVCRoomEvent@@@std@@PAX@std@@@std@@@std@@QAEXPAU?$pair@$$CBIPAVCRoomEvent@@@1@@Z 005b0260 f i MAP.obj
 0002:000592c0       ??$destroy@U?$pair@$$CBIPAVCRoomEvent@@@std@@@?$allocator@U?$_Tree_node@U?$pair@$$CBIPAVCRoomEvent@@@std@@PAX@std@@@std@@QAEXPAU?$pair@$$CBIPAVCRoomEvent@@@1@@Z 005b02c0 f i MAP.obj
 0002:00059300       ??$destroy@U?$pair@$$CBIPAVCRoomEvent@@@std@@@?$allocator_traits@V?$allocator@U?$_Tree_node@U?$pair@$$CBIPAVCRoomEvent@@@std@@PAX@std@@@std@@@std@@SAXAAV?$allocator@U?$_Tree_node@U?$pair@$$CBIPAVCRoomEvent@@@std@@PAX@std@@@1@PAU?$pair@$$CBIPAVCRoomEvent@@@1@@Z 005b0300 f i MAP.obj
 0002:00059350       ??$forward@AAPAH@std@@YAAAPAHAAPAH@Z 005b0350 f i MAP.obj
 0002:00059390       ??$forward@AAPAU?$_Tree_node@U?$pair@$$CBIPAH@std@@PAX@std@@@std@@YAAAPAU?$_Tree_node@U?$pair@$$CBIPAH@std@@PAX@0@AAPAU10@@Z 005b0390 f i MAP.obj
 0002:000593d0       ??$forward@AAPAU?$_Tree_node@U?$pair@$$CBIPAVCRoomEvent@@@std@@PAX@std@@@std@@YAAAPAU?$_Tree_node@U?$pair@$$CBIPAVCRoomEvent@@@std@@PAX@0@AAPAU10@@Z 005b03d0 f i MAP.obj
 0002:00059410       ??$forward@AAPAVCRoomEvent@@@std@@YAAAPAVCRoomEvent@@AAPAV1@@Z 005b0410 f i MAP.obj
 0002:00059450       ??$forward@AAU?$pair@$$CBIPAH@std@@@std@@YAAAU?$pair@$$CBIPAH@0@AAU10@@Z 005b0450 f i MAP.obj
 0002:00059490       ??$forward@AAU?$pair@$$CBIPAVCRoomEvent@@@std@@@std@@YAAAU?$pair@$$CBIPAVCRoomEvent@@@0@AAU10@@Z 005b0490 f i MAP.obj
 0002:000594d0       ??$forward@AAV?$_Tree_iterator@V?$_Tree_val@U?$_Tree_simple_types@U?$pair@$$CBIPAH@std@@@std@@@std@@@std@@@std@@YAAAV?$_Tree_iterator@V?$_Tree_val@U?$_Tree_simple_types@U?$pair@$$CBIPAH@std@@@std@@@std@@@0@AAV10@@Z 005b04d0 f i MAP.obj
 0002:00059510       ??$forward@AAV?$_Tree_iterator@V?$_Tree_val@U?$_Tree_simple_types@U?$pair@$$CBIPAVCRoomEvent@@@std@@@std@@@std@@@std@@@std@@YAAAV?$_Tree_iterator@V?$_Tree_val@U?$_Tree_simple_types@U?$pair@$$CBIPAVCRoomEvent@@@std@@@std@@@std@@@0@AAV10@@Z 005b0510 f i MAP.obj
 0002:00059550       ??$forward@PAH@std@@YA$$QAPAHAAPAH@Z 005b0550 f i MAP.obj
 0002:00059590       ??$forward@PAVCRoomEvent@@@std@@YA$$QAPAVCRoomEvent@@AAPAV1@@Z 005b0590 f i MAP.obj
 0002:000595d0       ??$forward@U?$pair@IPAH@std@@@std@@YA$$QAU?$pair@IPAH@0@AAU10@@Z 005b05d0 f i MAP.obj
 0002:00059610       ??$forward@U?$pair@IPAVCRoomEvent@@@std@@@std@@YA$$QAU?$pair@IPAVCRoomEvent@@@0@AAU10@@Z 005b0610 f i MAP.obj
 0002:00059650       ??$forward@V?$_Tree_iterator@V?$_Tree_val@U?$_Tree_simple_types@U?$pair@$$CBIPAH@std@@@std@@@std@@@std@@@std@@YA$$QAV?$_Tree_iterator@V?$_Tree_val@U?$_Tree_simple_types@U?$pair@$$CBIPAH@std@@@std@@@std@@@0@AAV10@@Z 005b0650 f i MAP.obj
 0002:00059690       ??$forward@V?$_Tree_iterator@V?$_Tree_val@U?$_Tree_simple_types@U?$pair@$$CBIPAVCRoomEvent@@@std@@@std@@@std@@@std@@@std@@YA$$QAV?$_Tree_iterator@V?$_Tree_val@U?$_Tree_simple_types@U?$pair@$$CBIPAVCRoomEvent@@@std@@@std@@@std@@@0@AAV10@@Z 005b0690 f i MAP.obj
 0002:000596d0       ??$insert@U?$pair@IPAH@std@@@?$_Tree@V?$_Tmap_traits@IPAHU?$less@I@std@@V?$allocator@U?$pair@$$CBIPAH@std@@@2@$0A@@std@@@std@@QAE?AU?$pair@V?$_Tree_iterator@V?$_Tree_val@U?$_Tree_simple_types@U?$pair@$$CBIPAH@std@@@std@@@std@@@std@@_N@1@$$QAU?$pair@IPAH@1@@Z 005b06d0 f i MAP.obj
 0002:00059810       ??$insert@U?$pair@IPAVCRoomEvent@@@std@@@?$_Tree@V?$_Tmap_traits@IPAVCRoomEvent@@U?$less@I@std@@V?$allocator@U?$pair@$$CBIPAVCRoomEvent@@@std@@@3@$0A@@std@@@std@@QAE?AU?$pair@V?$_Tree_iterator@V?$_Tree_val@U?$_Tree_simple_types@U?$pair@$$CBIPAVCRoomEvent@@@std@@@std@@@std@@@std@@_N@1@$$QAU?$pair@IPAVCRoomEvent@@@1@@Z 005b0810 f i MAP.obj
 0002:00059950       ??$make_pair@AAIAAPAH@std@@YA?AU?$pair@IPAH@0@AAIAAPAH@Z 005b0950 f i MAP.obj
 0002:000599d0       ??$make_pair@AAIAAPAVCRoomEvent@@@std@@YA?AU?$pair@IPAVCRoomEvent@@@0@AAIAAPAVCRoomEvent@@@Z 005b09d0 f i MAP.obj
 0002:00059a50       ??$use_facet@V?$codecvt@DDH@std@@@std@@YAABV?$codecvt@DDH@0@ABVlocale@0@@Z 005b0a50 f i MAP.obj
 0002:00059c20       ??$use_facet@V?$ctype@D@std@@@std@@YAABV?$ctype@D@0@ABVlocale@0@@Z 005b0c20 f i MAP.obj
 0002:00059df0       ??0?$CSTLMap@H@@QAE@XZ     005b0df0 f i MAP.obj
 0002:00059ea0       ??0?$CSTLMap@VCRoomEvent@@@@QAE@XZ 005b0ea0 f i MAP.obj
 0002:00059f50       ??0?$_Iterator012@Ubidirectional_iterator_tag@std@@U?$pair@$$CBIPAH@2@HPBU32@ABU32@U_Iterator_base12@2@@std@@QAE@ABU01@@Z 005b0f50 f i MAP.obj
 0002:00059fb0       ??0?$_Iterator012@Ubidirectional_iterator_tag@std@@U?$pair@$$CBIPAH@2@HPBU32@ABU32@U_Iterator_base12@2@@std@@QAE@XZ 005b0fb0 f i MAP.obj
 0002:0005a010       ??0?$_Iterator012@Ubidirectional_iterator_tag@std@@U?$pair@$$CBIPAU_OBJECT_EVENT@@@2@HPBU32@ABU32@U_Iterator_base12@2@@std@@QAE@ABU01@@Z 005b1010 f i MAP.obj
 0002:0005a070       ??0?$_Iterator012@Ubidirectional_iterator_tag@std@@U?$pair@$$CBIPAU_OBJECT_EVENT@@@2@HPBU32@ABU32@U_Iterator_base12@2@@std@@QAE@XZ 005b1070 f i MAP.obj
 0002:0005a0d0       ??0?$_Iterator012@Ubidirectional_iterator_tag@std@@U?$pair@$$CBIPAVCRoomEvent@@@2@HPBU32@ABU32@U_Iterator_base12@2@@std@@QAE@ABU01@@Z 005b10d0 f i MAP.obj
 0002:0005a130       ??0?$_Iterator012@Ubidirectional_iterator_tag@std@@U?$pair@$$CBIPAVCRoomEvent@@@2@HPBU32@ABU32@U_Iterator_base12@2@@std@@QAE@XZ 005b1130 f i MAP.obj
 0002:0005a190       ??0?$_Tree@V?$_Tmap_traits@IPAHU?$less@I@std@@V?$allocator@U?$pair@$$CBIPAH@std@@@2@$0A@@std@@@std@@QAE@ABU?$less@I@1@ABV?$allocator@U?$pair@$$CBIPAH@std@@@1@@Z 005b1190 f i MAP.obj
 0002:0005a1f0       ??0?$_Tree@V?$_Tmap_traits@IPAVCRoomEvent@@U?$less@I@std@@V?$allocator@U?$pair@$$CBIPAVCRoomEvent@@@std@@@3@$0A@@std@@@std@@QAE@ABU?$less@I@1@ABV?$allocator@U?$pair@$$CBIPAVCRoomEvent@@@std@@@1@@Z 005b11f0 f i MAP.obj
 0002:0005a250       ??0?$_Tree_alloc@$0A@U?$_Tree_base_types@U?$pair@$$CBIPAH@std@@V?$allocator@U?$pair@$$CBIPAH@std@@@2@@std@@@std@@QAE@ABV?$allocator@U?$pair@$$CBIPAH@std@@@1@@Z 005b1250 f i MAP.obj
 0002:0005a350       ??0?$_Tree_alloc@$0A@U?$_Tree_base_types@U?$pair@$$CBIPAVCRoomEvent@@@std@@V?$allocator@U?$pair@$$CBIPAVCRoomEvent@@@std@@@2@@std@@@std@@QAE@ABV?$allocator@U?$pair@$$CBIPAVCRoomEvent@@@std@@@1@@Z 005b1350 f i MAP.obj
 0002:0005a450       ??0?$_Tree_buy@U?$pair@$$CBIPAH@std@@V?$allocator@U?$pair@$$CBIPAH@std@@@2@@std@@QAE@ABV?$allocator@U?$pair@$$CBIPAH@std@@@1@@Z 005b1450 f i MAP.obj
 0002:0005a4b0       ??0?$_Tree_buy@U?$pair@$$CBIPAVCRoomEvent@@@std@@V?$allocator@U?$pair@$$CBIPAVCRoomEvent@@@std@@@2@@std@@QAE@ABV?$allocator@U?$pair@$$CBIPAVCRoomEvent@@@std@@@1@@Z 005b14b0 f i MAP.obj
 0002:0005a510       ??0?$_Tree_comp@$0A@V?$_Tmap_traits@IPAHU?$less@I@std@@V?$allocator@U?$pair@$$CBIPAH@std@@@2@$0A@@std@@@std@@QAE@ABU?$less@I@1@ABV?$allocator@U?$pair@$$CBIPAH@std@@@1@@Z 005b1510 f i MAP.obj
 0002:0005a570       ??0?$_Tree_comp@$0A@V?$_Tmap_traits@IPAVCRoomEvent@@U?$less@I@std@@V?$allocator@U?$pair@$$CBIPAVCRoomEvent@@@std@@@3@$0A@@std@@@std@@QAE@ABU?$less@I@1@ABV?$allocator@U?$pair@$$CBIPAVCRoomEvent@@@std@@@1@@Z 005b1570 f i MAP.obj
 0002:0005a5d0       ??0?$_Tree_const_iterator@V?$_Tree_val@U?$_Tree_simple_types@U?$pair@$$CBIPAH@std@@@std@@@std@@@std@@QAE@ABV01@@Z 005b15d0 f i MAP.obj
 0002:0005a630       ??0?$_Tree_const_iterator@V?$_Tree_val@U?$_Tree_simple_types@U?$pair@$$CBIPAH@std@@@std@@@std@@@std@@QAE@PAU?$_Tree_node@U?$pair@$$CBIPAH@std@@PAX@1@PBV?$_Tree_val@U?$_Tree_simple_types@U?$pair@$$CBIPAH@std@@@std@@@1@@Z 005b1630 f i MAP.obj
 0002:0005a690       ??0?$_Tree_const_iterator@V?$_Tree_val@U?$_Tree_simple_types@U?$pair@$$CBIPAU_OBJECT_EVENT@@@std@@@std@@@std@@@std@@QAE@ABV01@@Z 005b1690 f i MAP.obj
 0002:0005a6f0       ??0?$_Tree_const_iterator@V?$_Tree_val@U?$_Tree_simple_types@U?$pair@$$CBIPAU_OBJECT_EVENT@@@std@@@std@@@std@@@std@@QAE@PAU?$_Tree_node@U?$pair@$$CBIPAU_OBJECT_EVENT@@@std@@PAX@1@PBV?$_Tree_val@U?$_Tree_simple_types@U?$pair@$$CBIPAU_OBJECT_EVENT@@@std@@@std@@@1@@Z 005b16f0 f i MAP.obj
 0002:0005a750       ??0?$_Tree_const_iterator@V?$_Tree_val@U?$_Tree_simple_types@U?$pair@$$CBIPAVCRoomEvent@@@std@@@std@@@std@@@std@@QAE@ABV01@@Z 005b1750 f i MAP.obj
 0002:0005a7b0       ??0?$_Tree_const_iterator@V?$_Tree_val@U?$_Tree_simple_types@U?$pair@$$CBIPAVCRoomEvent@@@std@@@std@@@std@@@std@@QAE@PAU?$_Tree_node@U?$pair@$$CBIPAVCRoomEvent@@@std@@PAX@1@PBV?$_Tree_val@U?$_Tree_simple_types@U?$pair@$$CBIPAVCRoomEvent@@@std@@@std@@@1@@Z 005b17b0 f i MAP.obj
 0002:0005a810       ??0?$_Tree_iterator@V?$_Tree_val@U?$_Tree_simple_types@U?$pair@$$CBIPAH@std@@@std@@@std@@@std@@QAE@ABV01@@Z 005b1810 f i MAP.obj
 0002:0005a870       ??0?$_Tree_iterator@V?$_Tree_val@U?$_Tree_simple_types@U?$pair@$$CBIPAH@std@@@std@@@std@@@std@@QAE@PAU?$_Tree_node@U?$pair@$$CBIPAH@std@@PAX@1@PBV?$_Tree_val@U?$_Tree_simple_types@U?$pair@$$CBIPAH@std@@@std@@@1@@Z 005b1870 f i MAP.obj
 0002:0005a8d0       ??0?$_Tree_iterator@V?$_Tree_val@U?$_Tree_simple_types@U?$pair@$$CBIPAU_OBJECT_EVENT@@@std@@@std@@@std@@@std@@QAE@ABV01@@Z 005b18d0 f i MAP.obj
 0002:0005a930       ??0?$_Tree_iterator@V?$_Tree_val@U?$_Tree_simple_types@U?$pair@$$CBIPAU_OBJECT_EVENT@@@std@@@std@@@std@@@std@@QAE@PAU?$_Tree_node@U?$pair@$$CBIPAU_OBJECT_EVENT@@@std@@PAX@1@PBV?$_Tree_val@U?$_Tree_simple_types@U?$pair@$$CBIPAU_OBJECT_EVENT@@@std@@@std@@@1@@Z 005b1930 f i MAP.obj
 0002:0005a990       ??0?$_Tree_iterator@V?$_Tree_val@U?$_Tree_simple_types@U?$pair@$$CBIPAVCRoomEvent@@@std@@@std@@@std@@@std@@QAE@ABV01@@Z 005b1990 f i MAP.obj
 0002:0005a9f0       ??0?$_Tree_iterator@V?$_Tree_val@U?$_Tree_simple_types@U?$pair@$$CBIPAVCRoomEvent@@@std@@@std@@@std@@@std@@QAE@PAU?$_Tree_node@U?$pair@$$CBIPAVCRoomEvent@@@std@@PAX@1@PBV?$_Tree_val@U?$_Tree_simple_types@U?$pair@$$CBIPAVCRoomEvent@@@std@@@std@@@1@@Z 005b19f0 f i MAP.obj
 0002:0005aa50       ??0?$_Tree_unchecked_const_iterator@V?$_Tree_val@U?$_Tree_simple_types@U?$pair@$$CBIPAH@std@@@std@@@std@@U_Iterator_base12@2@@std@@QAE@ABV01@@Z 005b1a50 f i MAP.obj
 0002:0005aac0       ??0?$_Tree_unchecked_const_iterator@V?$_Tree_val@U?$_Tree_simple_types@U?$pair@$$CBIPAH@std@@@std@@@std@@U_Iterator_base12@2@@std@@QAE@PAU?$_Tree_node@U?$pair@$$CBIPAH@std@@PAX@1@PBV?$_Tree_val@U?$_Tree_simple_types@U?$pair@$$CBIPAH@std@@@std@@@1@@Z 005b1ac0 f i MAP.obj
 0002:0005ab80       ??0?$_Tree_unchecked_const_iterator@V?$_Tree_val@U?$_Tree_simple_types@U?$pair@$$CBIPAU_OBJECT_EVENT@@@std@@@std@@@std@@U_Iterator_base12@2@@std@@QAE@ABV01@@Z 005b1b80 f i MAP.obj
 0002:0005abf0       ??0?$_Tree_unchecked_const_iterator@V?$_Tree_val@U?$_Tree_simple_types@U?$pair@$$CBIPAU_OBJECT_EVENT@@@std@@@std@@@std@@U_Iterator_base12@2@@std@@QAE@PAU?$_Tree_node@U?$pair@$$CBIPAU_OBJECT_EVENT@@@std@@PAX@1@PBV?$_Tree_val@U?$_Tree_simple_types@U?$pair@$$CBIPAU_OBJECT_EVENT@@@std@@@std@@@1@@Z 005b1bf0 f i MAP.obj
 0002:0005acb0       ??0?$_Tree_unchecked_const_iterator@V?$_Tree_val@U?$_Tree_simple_types@U?$pair@$$CBIPAVCRoomEvent@@@std@@@std@@@std@@U_Iterator_base12@2@@std@@QAE@ABV01@@Z 005b1cb0 f i MAP.obj
 0002:0005ad20       ??0?$_Tree_unchecked_const_iterator@V?$_Tree_val@U?$_Tree_simple_types@U?$pair@$$CBIPAVCRoomEvent@@@std@@@std@@@std@@U_Iterator_base12@2@@std@@QAE@PAU?$_Tree_node@U?$pair@$$CBIPAVCRoomEvent@@@std@@PAX@1@PBV?$_Tree_val@U?$_Tree_simple_types@U?$pair@$$CBIPAVCRoomEvent@@@std@@@std@@@1@@Z 005b1d20 f i MAP.obj
 0002:0005ade0       ??0?$_Tree_val@U?$_Tree_simple_types@U?$pair@$$CBIPAH@std@@@std@@@std@@QAE@XZ 005b1de0 f i MAP.obj
 0002:0005ae50       ??0?$_Tree_val@U?$_Tree_simple_types@U?$pair@$$CBIPAVCRoomEvent@@@std@@@std@@@std@@QAE@XZ 005b1e50 f i MAP.obj
 0002:0005aec0       ??0?$_Wrap_alloc@V?$allocator@D@std@@@std@@QAE@ABV?$allocator@D@1@@Z 005b1ec0 f i MAP.obj
 0002:0005af20       ??0?$_Wrap_alloc@V?$allocator@U?$_Tree_node@U?$pair@$$CBIPAH@std@@PAX@std@@@std@@@std@@QAE@XZ 005b1f20 f i MAP.obj
 0002:0005af80       ??0?$_Wrap_alloc@V?$allocator@U?$_Tree_node@U?$pair@$$CBIPAVCRoomEvent@@@std@@PAX@std@@@std@@@std@@QAE@XZ 005b1f80 f i MAP.obj
 0002:0005afe0       ??0?$_Yarn@D@std@@QAE@XZ   005b1fe0 f i MAP.obj
 0002:0005b030       ??0?$_Yarn@_W@std@@QAE@XZ  005b2030 f i MAP.obj
 0002:0005b080       ??0?$allocator@D@std@@QAE@ABV01@@Z 005b2080 f i MAP.obj
 0002:0005b0c0       ??0?$allocator@U?$_Tree_node@U?$pair@$$CBIPAH@std@@PAX@std@@@std@@QAE@XZ 005b20c0 f i MAP.obj
 0002:0005b100       ??0?$allocator@U?$_Tree_node@U?$pair@$$CBIPAVCRoomEvent@@@std@@PAX@std@@@std@@QAE@XZ 005b2100 f i MAP.obj
 0002:0005b140       ??0?$allocator@U?$pair@$$CBIPAH@std@@@std@@QAE@XZ 005b2140 f i MAP.obj
 0002:0005b180       ??0?$allocator@U?$pair@$$CBIPAVCRoomEvent@@@std@@@std@@QAE@XZ 005b2180 f i MAP.obj
 0002:0005b1c0       ??0?$basic_filebuf@DU?$char_traits@D@std@@@std@@QAE@PAU_iobuf@@@Z 005b21c0 f i MAP.obj
 0002:0005b280       ??0?$basic_ifstream@DU?$char_traits@D@std@@@std@@QAE@ABV?$basic_string@DU?$char_traits@D@std@@V?$allocator@D@2@@1@HH@Z 005b2280 f i MAP.obj
 0002:0005b410       ??0?$basic_ios@DU?$char_traits@D@std@@@std@@IAE@XZ 005b2410 f i MAP.obj
 0002:0005b470       ??0?$basic_istream@DU?$char_traits@D@std@@@std@@QAE@PAV?$basic_streambuf@DU?$char_traits@D@std@@@1@_N@Z 005b2470 f i MAP.obj
 0002:0005b5b0       ??0?$basic_streambuf@DU?$char_traits@D@std@@@std@@IAE@XZ 005b25b0 f i MAP.obj
 0002:0005b670       ??0?$basic_string@DU?$char_traits@D@std@@V?$allocator@D@2@@std@@QAE@ABV01@@Z 005b2670 f i MAP.obj
 0002:0005b760       ??0?$basic_string@DU?$char_traits@D@std@@V?$allocator@D@2@@std@@QAE@ID@Z 005b2760 f i MAP.obj
 0002:0005b830       ??0?$codecvt@DDH@std@@QAE@ABV_Locinfo@1@I@Z 005b2830 f i MAP.obj
 0002:0005b8f0       ??0?$ctype@D@std@@QAE@ABV_Locinfo@1@I@Z 005b28f0 f i MAP.obj
 0002:0005b9b0       ??0?$fpos@H@std@@QAE@H_J@Z 005b29b0 f i MAP.obj
 0002:0005ba20       ??0?$fpos@H@std@@QAE@_J@Z  005b2a20 f i MAP.obj
 0002:0005ba90       ??0?$map@IPAHU?$less@I@std@@V?$allocator@U?$pair@$$CBIPAH@std@@@2@@std@@QAE@XZ 005b2a90 f i MAP.obj
 0002:0005bb00       ??0?$map@IPAVCRoomEvent@@U?$less@I@std@@V?$allocator@U?$pair@$$CBIPAVCRoomEvent@@@std@@@3@@std@@QAE@XZ 005b2b00 f i MAP.obj
 0002:0005bb70       ??0CPoint@@QAE@HH@Z        005b2b70 f i MAP.obj
 0002:0005bbc0       ??0CRect@@QAE@HHHH@Z       005b2bc0 f i MAP.obj
 0002:0005bc40       ??0CRegion@@QAE@XZ         005b2c40 f i MAP.obj
 0002:0005bcf0       ??0MAP@@QAE@XZ             005b2cf0 f   MAP.obj
 0002:0005be20       ??0_Facet_base@std@@QAE@XZ 005b2e20 f i MAP.obj
 0002:0005be70       ??0_Locinfo@std@@QAE@PBD@Z 005b2e70 f i MAP.obj
 0002:0005bfd0       ??0_Sentry_base@?$basic_istream@DU?$char_traits@D@std@@@std@@QAE@AAV12@@Z 005b2fd0 f i MAP.obj
 0002:0005c0b0       ??0_Sentry_base@?$basic_ostream@DU?$char_traits@D@std@@@std@@QAE@AAV12@@Z 005b30b0 f i MAP.obj
 0002:0005c190       ??0codecvt_base@std@@QAE@I@Z 005b3190 f i MAP.obj
 0002:0005c200       ??0ctype_base@std@@QAE@I@Z 005b3200 f i MAP.obj
 0002:0005c270       ??0error_code@std@@QAE@HABVerror_category@1@@Z 005b3270 f i MAP.obj
 0002:0005c2c0       ??0facet@locale@std@@IAE@I@Z 005b32c0 f i MAP.obj
 0002:0005c380       ??0failure@ios_base@std@@QAE@ABV012@@Z 005b3380 f i MAP.obj
 0002:0005c3f0       ??0failure@ios_base@std@@QAE@PBDABVerror_code@2@@Z 005b33f0 f i MAP.obj
 0002:0005c4e0       ??0ios_base@std@@IAE@XZ    005b34e0 f i MAP.obj
 0002:0005c530       ??0locale@std@@QAE@ABV01@@Z 005b3530 f i MAP.obj
 0002:0005c5b0       ??0locale@std@@QAE@XZ      005b35b0 f i MAP.obj
 0002:0005c610       ??0runtime_error@std@@QAE@ABV01@@Z 005b3610 f i MAP.obj
 0002:0005c680       ??0runtime_error@std@@QAE@ABV?$basic_string@DU?$char_traits@D@std@@V?$allocator@D@2@@1@@Z 005b3680 f i MAP.obj
 0002:0005c700       ??0runtime_error@std@@QAE@PBD@Z 005b3700 f i MAP.obj
 0002:0005c770       ??0sentry@?$basic_istream@DU?$char_traits@D@std@@@std@@QAE@AAV12@_N@Z 005b3770 f i MAP.obj
 0002:0005c830       ??0sentry@?$basic_ostream@DU?$char_traits@D@std@@@std@@QAE@AAV12@@Z 005b3830 f i MAP.obj
 0002:0005c950       ??0system_error@std@@QAE@ABV01@@Z 005b3950 f i MAP.obj
 0002:0005c9d0       ??0system_error@std@@QAE@Verror_code@1@ABV?$basic_string@DU?$char_traits@D@std@@V?$allocator@D@2@@1@@Z 005b39d0 f i MAP.obj
 0002:0005caa0       ??1?$CSTLMap@H@@QAE@XZ     005b3aa0 f i MAP.obj
 0002:0005cb60       ??1?$CSTLMap@VCRoomEvent@@@@QAE@XZ 005b3b60 f i MAP.obj
 0002:0005cc20       ??1?$_Iterator012@Ubidirectional_iterator_tag@std@@U?$pair@$$CBIPAH@2@HPBU32@ABU32@U_Iterator_base12@2@@std@@QAE@XZ 005b3c20 f i MAP.obj
 0002:0005cc70       ??1?$_Iterator012@Ubidirectional_iterator_tag@std@@U?$pair@$$CBIPAU_OBJECT_EVENT@@@2@HPBU32@ABU32@U_Iterator_base12@2@@std@@QAE@XZ 005b3c70 f i MAP.obj
 0002:0005ccc0       ??1?$_Iterator012@Ubidirectional_iterator_tag@std@@U?$pair@$$CBIPAVCRoomEvent@@@2@HPBU32@ABU32@U_Iterator_base12@2@@std@@QAE@XZ 005b3cc0 f i MAP.obj
 0002:0005cd10       ??1?$_Tree@V?$_Tmap_traits@IPAHU?$less@I@std@@V?$allocator@U?$pair@$$CBIPAH@std@@@2@$0A@@std@@@std@@QAE@XZ 005b3d10 f i MAP.obj
 0002:0005cd70       ??1?$_Tree@V?$_Tmap_traits@IPAVCRoomEvent@@U?$less@I@std@@V?$allocator@U?$pair@$$CBIPAVCRoomEvent@@@std@@@3@$0A@@std@@@std@@QAE@XZ 005b3d70 f i MAP.obj
 0002:0005cdd0       ??1?$_Tree_alloc@$0A@U?$_Tree_base_types@U?$pair@$$CBIPAH@std@@V?$allocator@U?$pair@$$CBIPAH@std@@@2@@std@@@std@@QAE@XZ 005b3dd0 f i MAP.obj
 0002:0005ce40       ??1?$_Tree_alloc@$0A@U?$_Tree_base_types@U?$pair@$$CBIPAVCRoomEvent@@@std@@V?$allocator@U?$pair@$$CBIPAVCRoomEvent@@@std@@@2@@std@@@std@@QAE@XZ 005b3e40 f i MAP.obj
 0002:0005ceb0       ??1?$_Tree_buy@U?$pair@$$CBIPAH@std@@V?$allocator@U?$pair@$$CBIPAH@std@@@2@@std@@QAE@XZ 005b3eb0 f i MAP.obj
 0002:0005cf00       ??1?$_Tree_buy@U?$pair@$$CBIPAVCRoomEvent@@@std@@V?$allocator@U?$pair@$$CBIPAVCRoomEvent@@@std@@@2@@std@@QAE@XZ 005b3f00 f i MAP.obj
 0002:0005cf50       ??1?$_Tree_comp@$0A@V?$_Tmap_traits@IPAHU?$less@I@std@@V?$allocator@U?$pair@$$CBIPAH@std@@@2@$0A@@std@@@std@@QAE@XZ 005b3f50 f i MAP.obj
 0002:0005cfa0       ??1?$_Tree_comp@$0A@V?$_Tmap_traits@IPAVCRoomEvent@@U?$less@I@std@@V?$allocator@U?$pair@$$CBIPAVCRoomEvent@@@std@@@3@$0A@@std@@@std@@QAE@XZ 005b3fa0 f i MAP.obj
 0002:0005cff0       ??1?$_Tree_const_iterator@V?$_Tree_val@U?$_Tree_simple_types@U?$pair@$$CBIPAH@std@@@std@@@std@@@std@@QAE@XZ 005b3ff0 f i MAP.obj
 0002:0005d040       ??1?$_Tree_const_iterator@V?$_Tree_val@U?$_Tree_simple_types@U?$pair@$$CBIPAU_OBJECT_EVENT@@@std@@@std@@@std@@@std@@QAE@XZ 005b4040 f i MAP.obj
 0002:0005d090       ??1?$_Tree_const_iterator@V?$_Tree_val@U?$_Tree_simple_types@U?$pair@$$CBIPAVCRoomEvent@@@std@@@std@@@std@@@std@@QAE@XZ 005b4090 f i MAP.obj
 0002:0005d0e0       ??1?$_Tree_iterator@V?$_Tree_val@U?$_Tree_simple_types@U?$pair@$$CBIPAH@std@@@std@@@std@@@std@@QAE@XZ 005b40e0 f i MAP.obj
 0002:0005d130       ??1?$_Tree_iterator@V?$_Tree_val@U?$_Tree_simple_types@U?$pair@$$CBIPAU_OBJECT_EVENT@@@std@@@std@@@std@@@std@@QAE@XZ 005b4130 f i MAP.obj
 0002:0005d180       ??1?$_Tree_iterator@V?$_Tree_val@U?$_Tree_simple_types@U?$pair@$$CBIPAVCRoomEvent@@@std@@@std@@@std@@@std@@QAE@XZ 005b4180 f i MAP.obj
 0002:0005d1d0       ??1?$_Tree_unchecked_const_iterator@V?$_Tree_val@U?$_Tree_simple_types@U?$pair@$$CBIPAH@std@@@std@@@std@@U_Iterator_base12@2@@std@@QAE@XZ 005b41d0 f i MAP.obj
 0002:0005d220       ??1?$_Tree_unchecked_const_iterator@V?$_Tree_val@U?$_Tree_simple_types@U?$pair@$$CBIPAU_OBJECT_EVENT@@@std@@@std@@@std@@U_Iterator_base12@2@@std@@QAE@XZ 005b4220 f i MAP.obj
 0002:0005d270       ??1?$_Tree_unchecked_const_iterator@V?$_Tree_val@U?$_Tree_simple_types@U?$pair@$$CBIPAVCRoomEvent@@@std@@@std@@@std@@U_Iterator_base12@2@@std@@QAE@XZ 005b4270 f i MAP.obj
 0002:0005d2c0       ??1?$_Tree_val@U?$_Tree_simple_types@U?$pair@$$CBIPAH@std@@@std@@@std@@QAE@XZ 005b42c0 f i MAP.obj
 0002:0005d310       ??1?$_Tree_val@U?$_Tree_simple_types@U?$pair@$$CBIPAVCRoomEvent@@@std@@@std@@@std@@QAE@XZ 005b4310 f i MAP.obj
 0002:0005d360       ??1?$_Yarn@D@std@@QAE@XZ   005b4360 f i MAP.obj
 0002:0005d3b0       ??1?$_Yarn@_W@std@@QAE@XZ  005b43b0 f i MAP.obj
 0002:0005d400       ??1?$basic_filebuf@DU?$char_traits@D@std@@@std@@UAE@XZ 005b4400 f i MAP.obj
 0002:0005d490       ??1?$basic_ifstream@DU?$char_traits@D@std@@@std@@UAE@XZ 005b4490 f i MAP.obj
 0002:0005d530       ??1?$basic_ios@DU?$char_traits@D@std@@@std@@UAE@XZ 005b4530 f i MAP.obj
 0002:0005d590       ??1?$basic_istream@DU?$char_traits@D@std@@@std@@UAE@XZ 005b4590 f i MAP.obj
 0002:0005d600       ??1?$basic_streambuf@DU?$char_traits@D@std@@@std@@UAE@XZ 005b4600 f i MAP.obj
 0002:0005d670       ??1?$codecvt@DDH@std@@MAE@XZ 005b4670 f i MAP.obj
 0002:0005d6d0       ??1?$ctype@D@std@@MAE@XZ   005b46d0 f i MAP.obj
 0002:0005d740       ??1?$map@IPAHU?$less@I@std@@V?$allocator@U?$pair@$$CBIPAH@std@@@2@@std@@QAE@XZ 005b4740 f i MAP.obj
 0002:0005d790       ??1?$map@IPAVCRoomEvent@@U?$less@I@std@@V?$allocator@U?$pair@$$CBIPAVCRoomEvent@@@std@@@3@@std@@QAE@XZ 005b4790 f i MAP.obj
 0002:0005d7e0       ??1?$pair@V?$_Tree_iterator@V?$_Tree_val@U?$_Tree_simple_types@U?$pair@$$CBIPAH@std@@@std@@@std@@@std@@_N@std@@QAE@XZ 005b47e0 f i MAP.obj
 0002:0005d830       ??1?$pair@V?$_Tree_iterator@V?$_Tree_val@U?$_Tree_simple_types@U?$pair@$$CBIPAVCRoomEvent@@@std@@@std@@@std@@@std@@_N@std@@QAE@XZ 005b4830 f i MAP.obj
 0002:0005d880       ??1CRegion@@QAE@XZ         005b4880 f i MAP.obj
 0002:0005d930       ??1MAP@@UAE@XZ             005b4930 f   MAP.obj
 0002:0005da10       ??1_Facet_base@std@@UAE@XZ 005b4a10 f i MAP.obj
 0002:0005da50       ??1_Locinfo@std@@QAE@XZ    005b4a50 f i MAP.obj
 0002:0005db00       ??1_Sentry_base@?$basic_istream@DU?$char_traits@D@std@@@std@@QAE@XZ 005b4b00 f i MAP.obj
 0002:0005dbd0       ??1_Sentry_base@?$basic_ostream@DU?$char_traits@D@std@@@std@@QAE@XZ 005b4bd0 f i MAP.obj
 0002:0005dca0       ??1codecvt_base@std@@UAE@XZ 005b4ca0 f i MAP.obj
 0002:0005dd00       ??1ctype_base@std@@UAE@XZ  005b4d00 f i MAP.obj
 0002:0005dd60       ??1facet@locale@std@@MAE@XZ 005b4d60 f i MAP.obj
 0002:0005ddc0       ??1failure@ios_base@std@@UAE@XZ 005b4dc0 f i MAP.obj
 0002:0005de10       ??1ios_base@std@@UAE@XZ    005b4e10 f i MAP.obj
 0002:0005de70       ??1locale@std@@QAE@XZ      005b4e70 f i MAP.obj
 0002:0005def0       ??1runtime_error@std@@UAE@XZ 005b4ef0 f i MAP.obj
 0002:0005df40       ??1sentry@?$basic_istream@DU?$char_traits@D@std@@@std@@QAE@XZ 005b4f40 f i MAP.obj
 0002:0005df90       ??1sentry@?$basic_ostream@DU?$char_traits@D@std@@@std@@QAE@XZ 005b4f90 f i MAP.obj
 0002:0005e000       ??1system_error@std@@UAE@XZ 005b5000 f i MAP.obj
 0002:0005e050       ??2facet@locale@std@@SAPAXIABU_DebugHeapTag_t@2@PADH@Z 005b5050 f i MAP.obj
 0002:0005e0b0       ??3facet@locale@std@@SAXPAX@Z 005b50b0 f i MAP.obj
 0002:0005e100       ??3facet@locale@std@@SAXPAXABU_DebugHeapTag_t@2@PADH@Z 005b5100 f i MAP.obj
 0002:0005e150       ??7ios_base@std@@QBE_NXZ   005b5150 f i MAP.obj
 0002:0005e1a0       ??8?$_Tree_const_iterator@V?$_Tree_val@U?$_Tree_simple_types@U?$pair@$$CBIPAH@std@@@std@@@std@@@std@@QBE_NABV01@@Z 005b51a0 f i MAP.obj
 0002:0005e2d0       ??8?$_Tree_const_iterator@V?$_Tree_val@U?$_Tree_simple_types@U?$pair@$$CBIPAU_OBJECT_EVENT@@@std@@@std@@@std@@@std@@QBE_NABV01@@Z 005b52d0 f i MAP.obj
 0002:0005e400       ??8?$_Tree_const_iterator@V?$_Tree_val@U?$_Tree_simple_types@U?$pair@$$CBIPAVCRoomEvent@@@std@@@std@@@std@@@std@@QBE_NABV01@@Z 005b5400 f i MAP.obj
 0002:0005e530       ??9?$_Tree_const_iterator@V?$_Tree_val@U?$_Tree_simple_types@U?$pair@$$CBIPAH@std@@@std@@@std@@@std@@QBE_NABV01@@Z 005b5530 f i MAP.obj
 0002:0005e5c0       ??9?$_Tree_const_iterator@V?$_Tree_val@U?$_Tree_simple_types@U?$pair@$$CBIPAU_OBJECT_EVENT@@@std@@@std@@@std@@@std@@QBE_NABV01@@Z 005b55c0 f i MAP.obj
 0002:0005e650       ??9?$_Tree_const_iterator@V?$_Tree_val@U?$_Tree_simple_types@U?$pair@$$CBIPAVCRoomEvent@@@std@@@std@@@std@@@std@@QBE_NABV01@@Z 005b5650 f i MAP.obj
 0002:0005e6e0       ??B?$fpos@H@std@@QBE_JXZ   005b56e0 f i MAP.obj
 0002:0005e730       ??Bid@locale@std@@QAEIXZ   005b5730 f i MAP.obj
 0002:0005e800       ??Bsentry@?$basic_istream@DU?$char_traits@D@std@@@std@@QBEPQ?$_Bool_struct@V?$basic_istream@DU?$char_traits@D@std@@@std@@@2@HXZ 005b5800 f i MAP.obj
 0002:0005e870       ??Bsentry@?$basic_ostream@DU?$char_traits@D@std@@@std@@QBEPQ?$_Bool_struct@V?$basic_ostream@DU?$char_traits@D@std@@@std@@@2@HXZ 005b5870 f i MAP.obj
 0002:0005e8e0       ??C?$_Tree_iterator@V?$_Tree_val@U?$_Tree_simple_types@U?$pair@$$CBIPAH@std@@@std@@@std@@@std@@QBEPAU?$pair@$$CBIPAH@1@XZ 005b58e0 f i MAP.obj
 0002:0005e940       ??C?$_Tree_iterator@V?$_Tree_val@U?$_Tree_simple_types@U?$pair@$$CBIPAU_OBJECT_EVENT@@@std@@@std@@@std@@@std@@QBEPAU?$pair@$$CBIPAU_OBJECT_EVENT@@@1@XZ 005b5940 f i MAP.obj
 0002:0005e9a0       ??C?$_Tree_iterator@V?$_Tree_val@U?$_Tree_simple_types@U?$pair@$$CBIPAVCRoomEvent@@@std@@@std@@@std@@@std@@QBEPAU?$pair@$$CBIPAVCRoomEvent@@@1@XZ 005b59a0 f i MAP.obj
 0002:0005ea00       ??D?$_String_const_iterator@V?$_String_val@U?$_Simple_types@D@std@@@std@@@std@@QBEABDXZ 005b5a00 f i MAP.obj
 0002:0005eb30       ??D?$_String_iterator@V?$_String_val@U?$_Simple_types@D@std@@@std@@@std@@QBEAADXZ 005b5b30 f i MAP.obj
 0002:0005eb80       ??D?$_Tree_const_iterator@V?$_Tree_val@U?$_Tree_simple_types@U?$pair@$$CBIPAH@std@@@std@@@std@@@std@@QBEABU?$pair@$$CBIPAH@1@XZ 005b5b80 f i MAP.obj
 0002:0005ec90       ??D?$_Tree_const_iterator@V?$_Tree_val@U?$_Tree_simple_types@U?$pair@$$CBIPAU_OBJECT_EVENT@@@std@@@std@@@std@@@std@@QBEABU?$pair@$$CBIPAU_OBJECT_EVENT@@@1@XZ 005b5c90 f i MAP.obj
 0002:0005eda0       ??D?$_Tree_const_iterator@V?$_Tree_val@U?$_Tree_simple_types@U?$pair@$$CBIPAVCRoomEvent@@@std@@@std@@@std@@@std@@QBEABU?$pair@$$CBIPAVCRoomEvent@@@1@XZ 005b5da0 f i MAP.obj
 0002:0005eeb0       ??D?$_Tree_iterator@V?$_Tree_val@U?$_Tree_simple_types@U?$pair@$$CBIPAH@std@@@std@@@std@@@std@@QBEAAU?$pair@$$CBIPAH@1@XZ 005b5eb0 f i MAP.obj
 0002:0005ef00       ??D?$_Tree_iterator@V?$_Tree_val@U?$_Tree_simple_types@U?$pair@$$CBIPAU_OBJECT_EVENT@@@std@@@std@@@std@@@std@@QBEAAU?$pair@$$CBIPAU_OBJECT_EVENT@@@1@XZ 005b5f00 f i MAP.obj
 0002:0005ef50       ??D?$_Tree_iterator@V?$_Tree_val@U?$_Tree_simple_types@U?$pair@$$CBIPAVCRoomEvent@@@std@@@std@@@std@@@std@@QBEAAU?$pair@$$CBIPAVCRoomEvent@@@1@XZ 005b5f50 f i MAP.obj
 0002:0005efa0       ??E?$_Tree_const_iterator@V?$_Tree_val@U?$_Tree_simple_types@U?$pair@$$CBIPAH@std@@@std@@@std@@@std@@QAE?AV01@H@Z 005b5fa0 f i MAP.obj
 0002:0005f0c0       ??E?$_Tree_const_iterator@V?$_Tree_val@U?$_Tree_simple_types@U?$pair@$$CBIPAH@std@@@std@@@std@@@std@@QAEAAV01@XZ 005b60c0 f i MAP.obj
 0002:0005f1d0       ??E?$_Tree_const_iterator@V?$_Tree_val@U?$_Tree_simple_types@U?$pair@$$CBIPAU_OBJECT_EVENT@@@std@@@std@@@std@@@std@@QAEAAV01@XZ 005b61d0 f i MAP.obj
 0002:0005f2e0       ??E?$_Tree_const_iterator@V?$_Tree_val@U?$_Tree_simple_types@U?$pair@$$CBIPAVCRoomEvent@@@std@@@std@@@std@@@std@@QAE?AV01@H@Z 005b62e0 f i MAP.obj
 0002:0005f400       ??E?$_Tree_const_iterator@V?$_Tree_val@U?$_Tree_simple_types@U?$pair@$$CBIPAVCRoomEvent@@@std@@@std@@@std@@@std@@QAEAAV01@XZ 005b6400 f i MAP.obj
 0002:0005f510       ??E?$_Tree_iterator@V?$_Tree_val@U?$_Tree_simple_types@U?$pair@$$CBIPAH@std@@@std@@@std@@@std@@QAE?AV01@H@Z 005b6510 f i MAP.obj
 0002:0005f630       ??E?$_Tree_iterator@V?$_Tree_val@U?$_Tree_simple_types@U?$pair@$$CBIPAH@std@@@std@@@std@@@std@@QAEAAV01@XZ 005b6630 f i MAP.obj
 0002:0005f690       ??E?$_Tree_iterator@V?$_Tree_val@U?$_Tree_simple_types@U?$pair@$$CBIPAU_OBJECT_EVENT@@@std@@@std@@@std@@@std@@QAE?AV01@H@Z 005b6690 f i MAP.obj
 0002:0005f7b0       ??E?$_Tree_iterator@V?$_Tree_val@U?$_Tree_simple_types@U?$pair@$$CBIPAU_OBJECT_EVENT@@@std@@@std@@@std@@@std@@QAEAAV01@XZ 005b67b0 f i MAP.obj
 0002:0005f810       ??E?$_Tree_iterator@V?$_Tree_val@U?$_Tree_simple_types@U?$pair@$$CBIPAVCRoomEvent@@@std@@@std@@@std@@@std@@QAE?AV01@H@Z 005b6810 f i MAP.obj
 0002:0005f930       ??E?$_Tree_iterator@V?$_Tree_val@U?$_Tree_simple_types@U?$pair@$$CBIPAVCRoomEvent@@@std@@@std@@@std@@@std@@QAEAAV01@XZ 005b6930 f i MAP.obj
 0002:0005f990       ??E?$_Tree_unchecked_const_iterator@V?$_Tree_val@U?$_Tree_simple_types@U?$pair@$$CBIPAH@std@@@std@@@std@@U_Iterator_base12@2@@std@@QAEAAV01@XZ 005b6990 f i MAP.obj
 0002:0005fac0       ??E?$_Tree_unchecked_const_iterator@V?$_Tree_val@U?$_Tree_simple_types@U?$pair@$$CBIPAU_OBJECT_EVENT@@@std@@@std@@@std@@U_Iterator_base12@2@@std@@QAEAAV01@XZ 005b6ac0 f i MAP.obj
 0002:0005fbf0       ??E?$_Tree_unchecked_const_iterator@V?$_Tree_val@U?$_Tree_simple_types@U?$pair@$$CBIPAVCRoomEvent@@@std@@@std@@@std@@U_Iterator_base12@2@@std@@QAEAAV01@XZ 005b6bf0 f i MAP.obj
 0002:0005fd20       ??F?$_Tree_const_iterator@V?$_Tree_val@U?$_Tree_simple_types@U?$pair@$$CBIPAH@std@@@std@@@std@@@std@@QAEAAV01@XZ 005b6d20 f i MAP.obj
 0002:0005feb0       ??F?$_Tree_const_iterator@V?$_Tree_val@U?$_Tree_simple_types@U?$pair@$$CBIPAVCRoomEvent@@@std@@@std@@@std@@@std@@QAEAAV01@XZ 005b6eb0 f i MAP.obj
 0002:00060040       ??F?$_Tree_iterator@V?$_Tree_val@U?$_Tree_simple_types@U?$pair@$$CBIPAH@std@@@std@@@std@@@std@@QAEAAV01@XZ 005b7040 f i MAP.obj
 0002:000600a0       ??F?$_Tree_iterator@V?$_Tree_val@U?$_Tree_simple_types@U?$pair@$$CBIPAVCRoomEvent@@@std@@@std@@@std@@@std@@QAEAAV01@XZ 005b70a0 f i MAP.obj
 0002:00060100       ??F?$_Tree_unchecked_const_iterator@V?$_Tree_val@U?$_Tree_simple_types@U?$pair@$$CBIPAH@std@@@std@@@std@@U_Iterator_base12@2@@std@@QAEAAV01@XZ 005b7100 f i MAP.obj
 0002:00060260       ??F?$_Tree_unchecked_const_iterator@V?$_Tree_val@U?$_Tree_simple_types@U?$pair@$$CBIPAVCRoomEvent@@@std@@@std@@@std@@U_Iterator_base12@2@@std@@QAEAAV01@XZ 005b7260 f i MAP.obj
 0002:000603c0       ??_D?$basic_ifstream@DU?$char_traits@D@std@@@std@@QAEXXZ 005b73c0 f i MAP.obj
 0002:00060420       ??_D?$basic_istream@DU?$char_traits@D@std@@@std@@QAEXXZ 005b7420 f i MAP.obj
 0002:00060480       ??_E?$basic_ifstream@DU?$char_traits@D@std@@@std@@$4PPPPPPPM@A@AEPAXI@Z 005b7480 f i MAP.obj
 0002:0006048a       ??_E?$basic_istream@DU?$char_traits@D@std@@@std@@$4PPPPPPPM@A@AEPAXI@Z 005b748a f i MAP.obj
 0002:000604a0       ??_ECRegion@@QAEPAXI@Z     005b74a0 f i MAP.obj
 0002:00060560       ??_G?$basic_filebuf@DU?$char_traits@D@std@@@std@@UAEPAXI@Z 005b7560 f i MAP.obj
 0002:00060560       ??_E?$basic_filebuf@DU?$char_traits@D@std@@@std@@UAEPAXI@Z 005b7560 f i MAP.obj
 0002:000605d0       ??_G?$basic_ifstream@DU?$char_traits@D@std@@@std@@UAEPAXI@Z 005b75d0 f i MAP.obj
 0002:000605d0       ??_E?$basic_ifstream@DU?$char_traits@D@std@@@std@@UAEPAXI@Z 005b75d0 f i MAP.obj
 0002:00060650       ??_E?$basic_ios@DU?$char_traits@D@std@@@std@@UAEPAXI@Z 005b7650 f i MAP.obj
 0002:00060650       ??_G?$basic_ios@DU?$char_traits@D@std@@@std@@UAEPAXI@Z 005b7650 f i MAP.obj
 0002:000606c0       ??_G?$basic_istream@DU?$char_traits@D@std@@@std@@UAEPAXI@Z 005b76c0 f i MAP.obj
 0002:000606c0       ??_E?$basic_istream@DU?$char_traits@D@std@@@std@@UAEPAXI@Z 005b76c0 f i MAP.obj
 0002:00060740       ??_G?$basic_streambuf@DU?$char_traits@D@std@@@std@@UAEPAXI@Z 005b7740 f i MAP.obj
 0002:00060740       ??_E?$basic_streambuf@DU?$char_traits@D@std@@@std@@UAEPAXI@Z 005b7740 f i MAP.obj
 0002:000607b0       ??_E?$codecvt@DDH@std@@MAEPAXI@Z 005b77b0 f i MAP.obj
 0002:000607b0       ??_G?$codecvt@DDH@std@@MAEPAXI@Z 005b77b0 f i MAP.obj
 0002:00060820       ??_G?$ctype@D@std@@MAEPAXI@Z 005b7820 f i MAP.obj
 0002:00060820       ??_E?$ctype@D@std@@MAEPAXI@Z 005b7820 f i MAP.obj
 0002:00060890       ??_EMAP@@UAEPAXI@Z         005b7890 f i MAP.obj
 0002:00060890       ??_GMAP@@UAEPAXI@Z         005b7890 f i MAP.obj
 0002:00060900       ??_G_Facet_base@std@@UAEPAXI@Z 005b7900 f i MAP.obj
 0002:00060900       ??_E_Facet_base@std@@UAEPAXI@Z 005b7900 f i MAP.obj
 0002:00060970       ??_Gcodecvt_base@std@@UAEPAXI@Z 005b7970 f i MAP.obj
 0002:00060970       ??_Ecodecvt_base@std@@UAEPAXI@Z 005b7970 f i MAP.obj
 0002:000609e0       ??_Gctype_base@std@@UAEPAXI@Z 005b79e0 f i MAP.obj
 0002:000609e0       ??_Ectype_base@std@@UAEPAXI@Z 005b79e0 f i MAP.obj
 0002:00060a50       ??_Efacet@locale@std@@MAEPAXI@Z 005b7a50 f i MAP.obj
 0002:00060a50       ??_Gfacet@locale@std@@MAEPAXI@Z 005b7a50 f i MAP.obj
 0002:00060ac0       ??_Gfailure@ios_base@std@@UAEPAXI@Z 005b7ac0 f i MAP.obj
 0002:00060ac0       ??_Efailure@ios_base@std@@UAEPAXI@Z 005b7ac0 f i MAP.obj
 0002:00060b30       ??_Eios_base@std@@UAEPAXI@Z 005b7b30 f i MAP.obj
 0002:00060b30       ??_Gios_base@std@@UAEPAXI@Z 005b7b30 f i MAP.obj
 0002:00060ba0       ??_Glocale@std@@QAEPAXI@Z  005b7ba0 f i MAP.obj
 0002:00060c10       ??_Eruntime_error@std@@UAEPAXI@Z 005b7c10 f i MAP.obj
 0002:00060c10       ??_Gruntime_error@std@@UAEPAXI@Z 005b7c10 f i MAP.obj
 0002:00060c80       ??_Gsystem_error@std@@UAEPAXI@Z 005b7c80 f i MAP.obj
 0002:00060c80       ??_Esystem_error@std@@UAEPAXI@Z 005b7c80 f i MAP.obj
 0002:00060cf0       ?DeleteAllData@?$CSTLMap@H@@QAEXXZ 005b7cf0 f i MAP.obj
 0002:00060f00       ?DeleteAllData@?$CSTLMap@VCRoomEvent@@@@QAEXXZ 005b7f00 f i MAP.obj
 0002:00061150       ?DeleteData@?$CSTLMap@H@@QAEXI@Z 005b8150 f i MAP.obj
 0002:00061350       ?GetData@?$CSTLMap@VCRoomEvent@@@@QAEPAVCRoomEvent@@I@Z 005b8350 f i MAP.obj
 0002:00061510       ?GetEventIDs@MAP@@QAEPAFXZ 005b8510 f   MAP.obj
 0002:00061570       ?GetEventIDs@SMDFile@@QAEPAFXZ 005b8570 f i MAP.obj
 0002:000615b0       ?GetMapSize@MAP@@QAEHXZ    005b85b0 f   MAP.obj
 0002:00061610       ?GetMapSize@SMDFile@@QAEHXZ 005b8610 f i MAP.obj
 0002:00061650       ?GetRegion@MAP@@QAEPAVCRegion@@GG@Z 005b8650 f   MAP.obj
 0002:00061750       ?GetSize@?$CSTLMap@VCRoomEvent@@@@QAEHXZ 005b8750 f i MAP.obj
 0002:00061800       ?GetStatus@CRoomEvent@@QAE?AW4RoomStatus@@XZ 005b8800 f i MAP.obj
 0002:00061840       ?GetUnitDistance@MAP@@QAEMXZ 005b8840 f   MAP.obj
 0002:000618a0       ?GetUnitDistance@SMDFile@@QAEMXZ 005b88a0 f i MAP.obj
 0002:000618e0       ?GetXRegionMax@MAP@@QAEHXZ 005b88e0 f   MAP.obj
 0002:00061940       ?GetXRegionMax@SMDFile@@QAEHXZ 005b8940 f i MAP.obj
 0002:00061980       ?GetZRegionMax@MAP@@QAEHXZ 005b8980 f   MAP.obj
 0002:000619e0       ?GetZRegionMax@SMDFile@@QAEHXZ 005b89e0 f i MAP.obj
 0002:00061a20       ?Initialize@MAP@@QAE_NPAU_ZONE_INFO@@@Z 005b8a20 f   MAP.obj
 0002:00061ef0       ?InitializeRoom@MAP@@QAEXXZ 005b8ef0 f   MAP.obj
 0002:00062100       ?IsEmpty@?$CSTLMap@H@@QAE_NXZ 005b9100 f i MAP.obj
 0002:000621b0       ?IsExist@?$CSTLMap@VCRoomEvent@@@@QAE_NI@Z 005b91b0 f i MAP.obj
 0002:00062340       ?IsMovable@MAP@@QAE_NHH@Z  005b9340 f   MAP.obj
 0002:000623d0       ?IsRoomCheck@MAP@@QAEHMM@Z 005b93d0 f   MAP.obj
 0002:00062810       ?IsRoomStatusCheck@MAP@@QAE_NXZ 005b9810 f   MAP.obj
 0002:00062bb0       ?LoadRoomEvent@MAP@@QAE_NXZ 005b9bb0 f   MAP.obj
 0002:00063950       ?ParseSpace@@YAHPAD0@Z     005ba950 f i MAP.obj
 0002:00063aa0       ?PtInRect@CRect@@QAE_NHH@Z 005baaa0 f i MAP.obj
 0002:00063b30       ?PutData@?$CSTLMap@H@@QAE_NIPAH@Z 005bab30 f i MAP.obj
 0002:00063c80       ?PutData@?$CSTLMap@VCRoomEvent@@@@QAE_NIPAVCRoomEvent@@@Z 005bac80 f i MAP.obj
 0002:00063dd0       ?RegionNpcAdd@MAP@@QAEXHHH@Z 005badd0 f   MAP.obj
 0002:00063f70       ?RegionNpcRemove@MAP@@QAE_NHHH@Z 005baf70 f   MAP.obj
 0002:000640c0       ?RegionUserAdd@MAP@@QAEXHHH@Z 005bb0c0 f   MAP.obj
 0002:000642b0       ?RegionUserRemove@MAP@@QAE_NHHH@Z 005bb2b0 f   MAP.obj
 0002:00064460       ?RemoveMapData@MAP@@QAEXXZ 005bb460 f   MAP.obj
 0002:000645c0       ?SetRoomEvent@MAP@@QAEPAVCRoomEvent@@H@Z 005bb5c0 f   MAP.obj
 0002:000647a0       ?_Add_vtordisp1@?$basic_ios@DU?$char_traits@D@std@@@std@@UAEXXZ 005bb7a0 f i MAP.obj
 0002:000647d4       ?_Add_vtordisp1@?$basic_istream@DU?$char_traits@D@std@@@std@@$4PPPPPPPM@A@AEXXZ 005bb7d4 f i MAP.obj
 0002:000647de       ?_Add_vtordisp1@?$basic_istream@DU?$char_traits@D@std@@@std@@$4PPPPPPPM@FI@AEXXZ 005bb7de f i MAP.obj
 0002:000647f0       ?_Add_vtordisp1@?$basic_istream@DU?$char_traits@D@std@@@std@@UAEXXZ 005bb7f0 f i MAP.obj
 0002:00064830       ?_Add_vtordisp2@?$basic_ios@DU?$char_traits@D@std@@@std@@UAEXXZ 005bb830 f i MAP.obj
 0002:00064870       ?_Alloc_proxy@?$_Tree_alloc@$0A@U?$_Tree_base_types@U?$pair@$$CBIPAH@std@@V?$allocator@U?$pair@$$CBIPAH@std@@@2@@std@@@std@@QAEXXZ 005bb870 f i MAP.obj
 0002:00064950       ?_Alloc_proxy@?$_Tree_alloc@$0A@U?$_Tree_base_types@U?$pair@$$CBIPAVCRoomEvent@@@std@@V?$allocator@U?$pair@$$CBIPAVCRoomEvent@@@std@@@2@@std@@@std@@QAEXXZ 005bb950 f i MAP.obj
 0002:00064a30       ?_Buyheadnode@?$_Tree_alloc@$0A@U?$_Tree_base_types@U?$pair@$$CBIPAH@std@@V?$allocator@U?$pair@$$CBIPAH@std@@@2@@std@@@std@@QAEPAU?$_Tree_node@U?$pair@$$CBIPAH@std@@PAX@2@XZ 005bba30 f i MAP.obj
 0002:00064c90       ?_Buyheadnode@?$_Tree_alloc@$0A@U?$_Tree_base_types@U?$pair@$$CBIPAVCRoomEvent@@@std@@V?$allocator@U?$pair@$$CBIPAVCRoomEvent@@@std@@@2@@std@@@std@@QAEPAU?$_Tree_node@U?$pair@$$CBIPAVCRoomEvent@@@std@@PAX@2@XZ 005bbc90 f i MAP.obj
 0002:00064ef0       ?_Buynode0@?$_Tree_buy@U?$pair@$$CBIPAH@std@@V?$allocator@U?$pair@$$CBIPAH@std@@@2@@std@@QAEPAU?$_Tree_node@U?$pair@$$CBIPAH@std@@PAX@2@XZ 005bbef0 f i MAP.obj
 0002:00065100       ?_Buynode0@?$_Tree_buy@U?$pair@$$CBIPAVCRoomEvent@@@std@@V?$allocator@U?$pair@$$CBIPAVCRoomEvent@@@std@@@2@@std@@QAEPAU?$_Tree_node@U?$pair@$$CBIPAVCRoomEvent@@@std@@PAX@2@XZ 005bc100 f i MAP.obj
 0002:00065310       ?_Color@?$_Tree_val@U?$_Tree_simple_types@U?$pair@$$CBIPAH@std@@@std@@@std@@SAAADPAU?$_Tree_node@U?$pair@$$CBIPAH@std@@PAX@2@@Z 005bc310 f i MAP.obj
 0002:00065350       ?_Color@?$_Tree_val@U?$_Tree_simple_types@U?$pair@$$CBIPAVCRoomEvent@@@std@@@std@@@std@@SAAADPAU?$_Tree_node@U?$pair@$$CBIPAVCRoomEvent@@@std@@PAX@2@@Z 005bc350 f i MAP.obj
 0002:00065390       ?_Decref@facet@locale@std@@UAEPAV_Facet_base@3@XZ 005bc390 f i MAP.obj
 0002:000653f0       ?_Destroy_if_not_nil@?$_Tree@V?$_Tmap_traits@IPAHU?$less@I@std@@V?$allocator@U?$pair@$$CBIPAH@std@@@2@$0A@@std@@@std@@IAEXPAU?$_Tree_node@U?$pair@$$CBIPAH@std@@PAX@2@@Z 005bc3f0 f i MAP.obj
 0002:000654a0       ?_Destroy_if_not_nil@?$_Tree@V?$_Tmap_traits@IPAVCRoomEvent@@U?$less@I@std@@V?$allocator@U?$pair@$$CBIPAVCRoomEvent@@@std@@@3@$0A@@std@@@std@@IAEXPAU?$_Tree_node@U?$pair@$$CBIPAVCRoomEvent@@@std@@PAX@2@@Z 005bc4a0 f i MAP.obj
 0002:00065550       ?_Endwrite@?$basic_filebuf@DU?$char_traits@D@std@@@std@@IAE_NXZ 005bc550 f i MAP.obj
 0002:00065a10       ?_Erase@?$_Tree@V?$_Tmap_traits@IPAHU?$less@I@std@@V?$allocator@U?$pair@$$CBIPAH@std@@@2@$0A@@std@@@std@@IAEXPAU?$_Tree_node@U?$pair@$$CBIPAH@std@@PAX@2@@Z 005bca10 f i MAP.obj
 0002:00065b20       ?_Erase@?$_Tree@V?$_Tmap_traits@IPAVCRoomEvent@@U?$less@I@std@@V?$allocator@U?$pair@$$CBIPAVCRoomEvent@@@std@@@3@$0A@@std@@@std@@IAEXPAU?$_Tree_node@U?$pair@$$CBIPAVCRoomEvent@@@std@@PAX@2@@Z 005bcb20 f i MAP.obj
 0002:00065c30       ?_Free_proxy@?$_Tree_alloc@$0A@U?$_Tree_base_types@U?$pair@$$CBIPAH@std@@V?$allocator@U?$pair@$$CBIPAH@std@@@2@@std@@@std@@QAEXXZ 005bcc30 f i MAP.obj
 0002:00065d10       ?_Free_proxy@?$_Tree_alloc@$0A@U?$_Tree_base_types@U?$pair@$$CBIPAVCRoomEvent@@@std@@V?$allocator@U?$pair@$$CBIPAVCRoomEvent@@@std@@@2@@std@@@std@@QAEXXZ 005bcd10 f i MAP.obj
 0002:00065df0       ?_Freeheadnode@?$_Tree_alloc@$0A@U?$_Tree_base_types@U?$pair@$$CBIPAH@std@@V?$allocator@U?$pair@$$CBIPAH@std@@@2@@std@@@std@@QAEXPAU?$_Tree_node@U?$pair@$$CBIPAH@std@@PAX@2@@Z 005bcdf0 f i MAP.obj
 0002:00065f00       ?_Freeheadnode@?$_Tree_alloc@$0A@U?$_Tree_base_types@U?$pair@$$CBIPAVCRoomEvent@@@std@@V?$allocator@U?$pair@$$CBIPAVCRoomEvent@@@std@@@2@@std@@@std@@QAEXPAU?$_Tree_node@U?$pair@$$CBIPAVCRoomEvent@@@std@@PAX@2@@Z 005bcf00 f i MAP.obj
 0002:00066010       ?_Freenode0@?$_Tree_buy@U?$pair@$$CBIPAH@std@@V?$allocator@U?$pair@$$CBIPAH@std@@@2@@std@@QAEXPAU?$_Tree_node@U?$pair@$$CBIPAH@std@@PAX@2@@Z 005bd010 f i MAP.obj
 0002:00066120       ?_Freenode0@?$_Tree_buy@U?$pair@$$CBIPAVCRoomEvent@@@std@@V?$allocator@U?$pair@$$CBIPAVCRoomEvent@@@std@@@2@@std@@QAEXPAU?$_Tree_node@U?$pair@$$CBIPAVCRoomEvent@@@std@@PAX@2@@Z 005bd120 f i MAP.obj
 0002:00066230       ?_Getal@?$_Tree_alloc@$0A@U?$_Tree_base_types@U?$pair@$$CBIPAH@std@@V?$allocator@U?$pair@$$CBIPAH@std@@@2@@std@@@std@@QBE?AU?$_Wrap_alloc@V?$allocator@U?$_Tree_node@U?$pair@$$CBIPAH@std@@PAX@std@@@std@@@2@XZ 005bd230 f i MAP.obj
 0002:00066290       ?_Getal@?$_Tree_alloc@$0A@U?$_Tree_base_types@U?$pair@$$CBIPAVCRoomEvent@@@std@@V?$allocator@U?$pair@$$CBIPAVCRoomEvent@@@std@@@2@@std@@@std@@QBE?AU?$_Wrap_alloc@V?$allocator@U?$_Tree_node@U?$pair@$$CBIPAVCRoomEvent@@@std@@PAX@std@@@std@@@2@XZ 005bd290 f i MAP.obj
 0002:000662f0       ?_Getcat@?$codecvt@DDH@std@@SAIPAPBVfacet@locale@2@PBV42@@Z 005bd2f0 f i MAP.obj
 0002:000664b0       ?_Getcat@?$ctype@D@std@@SAIPAPBVfacet@locale@2@PBV42@@Z 005bd4b0 f i MAP.obj
 0002:00066670       ?_Getcomp@?$_Tree_comp@$0A@V?$_Tmap_traits@IPAHU?$less@I@std@@V?$allocator@U?$pair@$$CBIPAH@std@@@2@$0A@@std@@@std@@QBE?AU?$less@I@2@XZ 005bd670 f i MAP.obj
 0002:000666b0       ?_Getcomp@?$_Tree_comp@$0A@V?$_Tmap_traits@IPAVCRoomEvent@@U?$less@I@std@@V?$allocator@U?$pair@$$CBIPAVCRoomEvent@@@std@@@3@$0A@@std@@@std@@QBE?AU?$less@I@2@XZ 005bd6b0 f i MAP.obj
 0002:000666f0       ?_Getctype@_Locinfo@std@@QBE?AU_Ctypevec@@XZ 005bd6f0 f i MAP.obj
 0002:000667b0       ?_Getfacet@locale@std@@QBEPBVfacet@12@I@Z 005bd7b0 f i MAP.obj
 0002:000668a0       ?_Gnavail@?$basic_streambuf@DU?$char_traits@D@std@@@std@@IBE_JXZ 005bd8a0 f i MAP.obj
 0002:00066910       ?_Gndec@?$basic_streambuf@DU?$char_traits@D@std@@@std@@IAEPADXZ 005bd910 f i MAP.obj
 0002:00066990       ?_Gninc@?$basic_streambuf@DU?$char_traits@D@std@@@std@@IAEPADXZ 005bd990 f i MAP.obj
 0002:00066a10       ?_Gnpreinc@?$basic_streambuf@DU?$char_traits@D@std@@@std@@IAEPADXZ 005bda10 f i MAP.obj
 0002:00066a90       ?_Incref@facet@locale@std@@UAEXXZ 005bda90 f i MAP.obj
 0002:00066ae0       ?_Init@?$basic_filebuf@DU?$char_traits@D@std@@@std@@IAEXPAU_iobuf@@W4_Initfl@12@@Z 005bdae0 f i MAP.obj
 0002:00066c00       ?_Init@?$basic_streambuf@DU?$char_traits@D@std@@@std@@IAEXPAPAD0PAH001@Z 005bdc00 f i MAP.obj
 0002:00066c80       ?_Init@?$basic_streambuf@DU?$char_traits@D@std@@@std@@IAEXXZ 005bdc80 f i MAP.obj
 0002:00066d40       ?_Init@?$codecvt@DDH@std@@IAEXABV_Locinfo@2@@Z 005bdd40 f i MAP.obj
 0002:00066d80       ?_Init@?$ctype@D@std@@IAEXABV_Locinfo@2@@Z 005bdd80 f i MAP.obj
 0002:00066e00       ?_Init@ios_base@std@@IAEXXZ 005bde00 f i MAP.obj
 0002:00066f30       ?_Init_atomic_counter@std@@YAXAAKK@Z 005bdf30 f i MAP.obj
 0002:00066f70       ?_Initcvt@?$basic_filebuf@DU?$char_traits@D@std@@@std@@IAEXPBV?$codecvt@DDH@2@@Z 005bdf70 f i MAP.obj
 0002:00066ff0       ?_Ipfx@?$basic_istream@DU?$char_traits@D@std@@@std@@QAE_N_N@Z 005bdff0 f i MAP.obj
 0002:00067330       ?_Isnil@?$_Tree_val@U?$_Tree_simple_types@U?$pair@$$CBIPAH@std@@@std@@@std@@SAAADPAU?$_Tree_node@U?$pair@$$CBIPAH@std@@PAX@2@@Z 005be330 f i MAP.obj
 0002:00067370       ?_Isnil@?$_Tree_val@U?$_Tree_simple_types@U?$pair@$$CBIPAU_OBJECT_EVENT@@@std@@@std@@@std@@SAAADPAU?$_Tree_node@U?$pair@$$CBIPAU_OBJECT_EVENT@@@std@@PAX@2@@Z 005be370 f i MAP.obj
 0002:000673b0       ?_Isnil@?$_Tree_val@U?$_Tree_simple_types@U?$pair@$$CBIPAVCRoomEvent@@@std@@@std@@@std@@SAAADPAU?$_Tree_node@U?$pair@$$CBIPAVCRoomEvent@@@std@@PAX@2@@Z 005be3b0 f i MAP.obj
 0002:000673f0       ?_Key@?$_Tree@V?$_Tmap_traits@IPAHU?$less@I@std@@V?$allocator@U?$pair@$$CBIPAH@std@@@2@$0A@@std@@@std@@IBEABIPAU?$_Tree_node@U?$pair@$$CBIPAH@std@@PAX@2@@Z 005be3f0 f i MAP.obj
 0002:00067460       ?_Key@?$_Tree@V?$_Tmap_traits@IPAVCRoomEvent@@U?$less@I@std@@V?$allocator@U?$pair@$$CBIPAVCRoomEvent@@@std@@@3@$0A@@std@@@std@@IBEABIPAU?$_Tree_node@U?$pair@$$CBIPAVCRoomEvent@@@std@@PAX@2@@Z 005be460 f i MAP.obj
 0002:000674d0       ?_Kfn@?$_Tree@V?$_Tmap_traits@IPAHU?$less@I@std@@V?$allocator@U?$pair@$$CBIPAH@std@@@2@$0A@@std@@@std@@IBEABIABU?$pair@$$CBIPAH@2@@Z 005be4d0 f i MAP.obj
 0002:00067530       ?_Kfn@?$_Tree@V?$_Tmap_traits@IPAVCRoomEvent@@U?$less@I@std@@V?$allocator@U?$pair@$$CBIPAVCRoomEvent@@@std@@@3@$0A@@std@@@std@@IBEABIABU?$pair@$$CBIPAVCRoomEvent@@@2@@Z 005be530 f i MAP.obj
 0002:00067590       ?_Lbound@?$_Tree@V?$_Tmap_traits@IPAHU?$less@I@std@@V?$allocator@U?$pair@$$CBIPAH@std@@@2@$0A@@std@@@std@@IAEPAU?$_Tree_node@U?$pair@$$CBIPAH@std@@PAX@2@ABI@Z 005be590 f i MAP.obj
 0002:000676a0       ?_Lbound@?$_Tree@V?$_Tmap_traits@IPAVCRoomEvent@@U?$less@I@std@@V?$allocator@U?$pair@$$CBIPAVCRoomEvent@@@std@@@3@$0A@@std@@@std@@IAEPAU?$_Tree_node@U?$pair@$$CBIPAVCRoomEvent@@@std@@PAX@2@ABI@Z 005be6a0 f i MAP.obj
 0002:000677b0       ?_Left@?$_Tree_val@U?$_Tree_simple_types@U?$pair@$$CBIPAH@std@@@std@@@std@@SAAAPAU?$_Tree_node@U?$pair@$$CBIPAH@std@@PAX@2@PAU32@@Z 005be7b0 f i MAP.obj
 0002:000677f0       ?_Left@?$_Tree_val@U?$_Tree_simple_types@U?$pair@$$CBIPAU_OBJECT_EVENT@@@std@@@std@@@std@@SAAAPAU?$_Tree_node@U?$pair@$$CBIPAU_OBJECT_EVENT@@@std@@PAX@2@PAU32@@Z 005be7f0 f i MAP.obj
 0002:00067830       ?_Left@?$_Tree_val@U?$_Tree_simple_types@U?$pair@$$CBIPAVCRoomEvent@@@std@@@std@@@std@@SAAAPAU?$_Tree_node@U?$pair@$$CBIPAVCRoomEvent@@@std@@PAX@2@PAU32@@Z 005be830 f i MAP.obj
 0002:00067870       ?_Lmost@?$_Tree@V?$_Tmap_traits@IPAHU?$less@I@std@@V?$allocator@U?$pair@$$CBIPAH@std@@@2@$0A@@std@@@std@@IBEAAPAU?$_Tree_node@U?$pair@$$CBIPAH@std@@PAX@2@XZ 005be870 f i MAP.obj
 0002:000678d0       ?_Lmost@?$_Tree@V?$_Tmap_traits@IPAU_OBJECT_EVENT@@U?$less@I@std@@V?$allocator@U?$pair@$$CBIPAU_OBJECT_EVENT@@@std@@@3@$0A@@std@@@std@@IBEAAPAU?$_Tree_node@U?$pair@$$CBIPAU_OBJECT_EVENT@@@std@@PAX@2@XZ 005be8d0 f i MAP.obj
 0002:00067930       ?_Lmost@?$_Tree@V?$_Tmap_traits@IPAVCRoomEvent@@U?$less@I@std@@V?$allocator@U?$pair@$$CBIPAVCRoomEvent@@@std@@@3@$0A@@std@@@std@@IBEAAPAU?$_Tree_node@U?$pair@$$CBIPAVCRoomEvent@@@std@@PAX@2@XZ 005be930 f i MAP.obj
 0002:00067990       ?_Lock@?$basic_filebuf@DU?$char_traits@D@std@@@std@@UAEXXZ 005be990 f i MAP.obj
 0002:00067a00       ?_Lock@?$basic_streambuf@DU?$char_traits@D@std@@@std@@UAEXXZ 005bea00 f i MAP.obj
 0002:00067a40       ?_Lrotate@?$_Tree@V?$_Tmap_traits@IPAHU?$less@I@std@@V?$allocator@U?$pair@$$CBIPAH@std@@@2@$0A@@std@@@std@@IAEXPAU?$_Tree_node@U?$pair@$$CBIPAH@std@@PAX@2@@Z 005bea40 f i MAP.obj
 0002:00067bf0       ?_Lrotate@?$_Tree@V?$_Tmap_traits@IPAVCRoomEvent@@U?$less@I@std@@V?$allocator@U?$pair@$$CBIPAVCRoomEvent@@@std@@@3@$0A@@std@@@std@@IAEXPAU?$_Tree_node@U?$pair@$$CBIPAVCRoomEvent@@@std@@PAX@2@@Z 005bebf0 f i MAP.obj
 0002:00067da0       ?_Makestr@system_error@std@@AAEXXZ 005beda0 f i MAP.obj
 0002:00067de0       ?_Max@?$_Tree_val@U?$_Tree_simple_types@U?$pair@$$CBIPAH@std@@@std@@@std@@SAPAU?$_Tree_node@U?$pair@$$CBIPAH@std@@PAX@2@PAU32@@Z 005bede0 f i MAP.obj
 0002:00067e60       ?_Max@?$_Tree_val@U?$_Tree_simple_types@U?$pair@$$CBIPAVCRoomEvent@@@std@@@std@@@std@@SAPAU?$_Tree_node@U?$pair@$$CBIPAVCRoomEvent@@@std@@PAX@2@PAU32@@Z 005bee60 f i MAP.obj
 0002:00067ee0       ?_Min@?$_Tree_val@U?$_Tree_simple_types@U?$pair@$$CBIPAH@std@@@std@@@std@@SAPAU?$_Tree_node@U?$pair@$$CBIPAH@std@@PAX@2@PAU32@@Z 005beee0 f i MAP.obj
 0002:00067f60       ?_Min@?$_Tree_val@U?$_Tree_simple_types@U?$pair@$$CBIPAU_OBJECT_EVENT@@@std@@@std@@@std@@SAPAU?$_Tree_node@U?$pair@$$CBIPAU_OBJECT_EVENT@@@std@@PAX@2@PAU32@@Z 005bef60 f i MAP.obj
 0002:00067fe0       ?_Min@?$_Tree_val@U?$_Tree_simple_types@U?$pair@$$CBIPAVCRoomEvent@@@std@@@std@@@std@@SAPAU?$_Tree_node@U?$pair@$$CBIPAVCRoomEvent@@@std@@PAX@2@PAU32@@Z 005befe0 f i MAP.obj
 0002:00068060       ?_Mynode@?$_Tree_unchecked_const_iterator@V?$_Tree_val@U?$_Tree_simple_types@U?$pair@$$CBIPAH@std@@@std@@@std@@U_Iterator_base12@2@@std@@QBEPAU?$_Tree_node@U?$pair@$$CBIPAH@std@@PAX@2@XZ 005bf060 f i MAP.obj
 0002:000680a0       ?_Mynode@?$_Tree_unchecked_const_iterator@V?$_Tree_val@U?$_Tree_simple_types@U?$pair@$$CBIPAVCRoomEvent@@@std@@@std@@@std@@U_Iterator_base12@2@@std@@QBEPAU?$_Tree_node@U?$pair@$$CBIPAVCRoomEvent@@@std@@PAX@2@XZ 005bf0a0 f i MAP.obj
 0002:000680e0       ?_Myval@?$_Tree_val@U?$_Tree_simple_types@U?$pair@$$CBIPAH@std@@@std@@@std@@SAAAU?$pair@$$CBIPAH@2@PAU?$_Tree_node@U?$pair@$$CBIPAH@std@@PAX@2@@Z 005bf0e0 f i MAP.obj
 0002:00068120       ?_Myval@?$_Tree_val@U?$_Tree_simple_types@U?$pair@$$CBIPAU_OBJECT_EVENT@@@std@@@std@@@std@@SAAAU?$pair@$$CBIPAU_OBJECT_EVENT@@@2@PAU?$_Tree_node@U?$pair@$$CBIPAU_OBJECT_EVENT@@@std@@PAX@2@@Z 005bf120 f i MAP.obj
 0002:00068160       ?_Myval@?$_Tree_val@U?$_Tree_simple_types@U?$pair@$$CBIPAVCRoomEvent@@@std@@@std@@@std@@SAAAU?$pair@$$CBIPAVCRoomEvent@@@2@PAU?$_Tree_node@U?$pair@$$CBIPAVCRoomEvent@@@std@@PAX@2@@Z 005bf160 f i MAP.obj
 0002:000681a0       ?_Orphan_ptr@?$_Tree@V?$_Tmap_traits@IPAHU?$less@I@std@@V?$allocator@U?$pair@$$CBIPAH@std@@@2@$0A@@std@@@std@@IBEXAAV12@PAU?$_Tree_node@U?$pair@$$CBIPAH@std@@PAX@2@@Z 005bf1a0 f i MAP.obj
 0002:00068300       ?_Orphan_ptr@?$_Tree@V?$_Tmap_traits@IPAVCRoomEvent@@U?$less@I@std@@V?$allocator@U?$pair@$$CBIPAVCRoomEvent@@@std@@@3@$0A@@std@@@std@@IBEXAAV12@PAU?$_Tree_node@U?$pair@$$CBIPAVCRoomEvent@@@std@@PAX@2@@Z 005bf300 f i MAP.obj
 0002:00068460       ?_Osfx@?$basic_ostream@DU?$char_traits@D@std@@@std@@QAEXXZ 005bf460 f i MAP.obj
 0002:000685c0       ?_Parent@?$_Tree_val@U?$_Tree_simple_types@U?$pair@$$CBIPAH@std@@@std@@@std@@SAAAPAU?$_Tree_node@U?$pair@$$CBIPAH@std@@PAX@2@PAU32@@Z 005bf5c0 f i MAP.obj
 0002:00068600       ?_Parent@?$_Tree_val@U?$_Tree_simple_types@U?$pair@$$CBIPAU_OBJECT_EVENT@@@std@@@std@@@std@@SAAAPAU?$_Tree_node@U?$pair@$$CBIPAU_OBJECT_EVENT@@@std@@PAX@2@PAU32@@Z 005bf600 f i MAP.obj
 0002:00068640       ?_Parent@?$_Tree_val@U?$_Tree_simple_types@U?$pair@$$CBIPAVCRoomEvent@@@std@@@std@@@std@@SAAAPAU?$_Tree_node@U?$pair@$$CBIPAVCRoomEvent@@@std@@PAX@2@PAU32@@Z 005bf640 f i MAP.obj
 0002:00068680       ?_Pnavail@?$basic_streambuf@DU?$char_traits@D@std@@@std@@IBE_JXZ 005bf680 f i MAP.obj
 0002:000686f0       ?_Pninc@?$basic_streambuf@DU?$char_traits@D@std@@@std@@IAEPADXZ 005bf6f0 f i MAP.obj
 0002:00068770       ?_Reset_back@?$basic_filebuf@DU?$char_traits@D@std@@@std@@AAEXXZ 005bf770 f i MAP.obj
 0002:000687f0       ?_Right@?$_Tree_val@U?$_Tree_simple_types@U?$pair@$$CBIPAH@std@@@std@@@std@@SAAAPAU?$_Tree_node@U?$pair@$$CBIPAH@std@@PAX@2@PAU32@@Z 005bf7f0 f i MAP.obj
 0002:00068830       ?_Right@?$_Tree_val@U?$_Tree_simple_types@U?$pair@$$CBIPAU_OBJECT_EVENT@@@std@@@std@@@std@@SAAAPAU?$_Tree_node@U?$pair@$$CBIPAU_OBJECT_EVENT@@@std@@PAX@2@PAU32@@Z 005bf830 f i MAP.obj
 0002:00068870       ?_Right@?$_Tree_val@U?$_Tree_simple_types@U?$pair@$$CBIPAVCRoomEvent@@@std@@@std@@@std@@SAAAPAU?$_Tree_node@U?$pair@$$CBIPAVCRoomEvent@@@std@@PAX@2@PAU32@@Z 005bf870 f i MAP.obj
 0002:000688b0       ?_Rmost@?$_Tree@V?$_Tmap_traits@IPAHU?$less@I@std@@V?$allocator@U?$pair@$$CBIPAH@std@@@2@$0A@@std@@@std@@IBEAAPAU?$_Tree_node@U?$pair@$$CBIPAH@std@@PAX@2@XZ 005bf8b0 f i MAP.obj
 0002:00068910       ?_Rmost@?$_Tree@V?$_Tmap_traits@IPAVCRoomEvent@@U?$less@I@std@@V?$allocator@U?$pair@$$CBIPAVCRoomEvent@@@std@@@3@$0A@@std@@@std@@IBEAAPAU?$_Tree_node@U?$pair@$$CBIPAVCRoomEvent@@@std@@PAX@2@XZ 005bf910 f i MAP.obj
 0002:00068970       ?_Root@?$_Tree@V?$_Tmap_traits@IPAHU?$less@I@std@@V?$allocator@U?$pair@$$CBIPAH@std@@@2@$0A@@std@@@std@@IBEAAPAU?$_Tree_node@U?$pair@$$CBIPAH@std@@PAX@2@XZ 005bf970 f i MAP.obj
 0002:000689d0       ?_Root@?$_Tree@V?$_Tmap_traits@IPAVCRoomEvent@@U?$less@I@std@@V?$allocator@U?$pair@$$CBIPAVCRoomEvent@@@std@@@3@$0A@@std@@@std@@IBEAAPAU?$_Tree_node@U?$pair@$$CBIPAVCRoomEvent@@@std@@PAX@2@XZ 005bf9d0 f i MAP.obj
 0002:00068a30       ?_Rrotate@?$_Tree@V?$_Tmap_traits@IPAHU?$less@I@std@@V?$allocator@U?$pair@$$CBIPAH@std@@@2@$0A@@std@@@std@@IAEXPAU?$_Tree_node@U?$pair@$$CBIPAH@std@@PAX@2@@Z 005bfa30 f i MAP.obj
 0002:00068be0       ?_Rrotate@?$_Tree@V?$_Tmap_traits@IPAVCRoomEvent@@U?$less@I@std@@V?$allocator@U?$pair@$$CBIPAVCRoomEvent@@@std@@@3@$0A@@std@@@std@@IAEXPAU?$_Tree_node@U?$pair@$$CBIPAVCRoomEvent@@@std@@PAX@2@@Z 005bfbe0 f i MAP.obj
 0002:00068d90       ?_Set_back@?$basic_filebuf@DU?$char_traits@D@std@@@std@@AAEXXZ 005bfd90 f i MAP.obj
 0002:00068e40       ?_Tidy@?$_Tree@V?$_Tmap_traits@IPAHU?$less@I@std@@V?$allocator@U?$pair@$$CBIPAH@std@@@2@$0A@@std@@@std@@IAEXXZ 005bfe40 f i MAP.obj
 0002:00068fd0       ?_Tidy@?$_Tree@V?$_Tmap_traits@IPAVCRoomEvent@@U?$less@I@std@@V?$allocator@U?$pair@$$CBIPAVCRoomEvent@@@std@@@3@$0A@@std@@@std@@IAEXXZ 005bffd0 f i MAP.obj
 0002:00069160       ?_Tidy@?$_Yarn@D@std@@AAEXXZ 005c0160 f i MAP.obj
 0002:000691d0       ?_Tidy@?$_Yarn@_W@std@@AAEXXZ 005c01d0 f i MAP.obj
 0002:00069240       ?_Tidy@?$ctype@D@std@@IAEXXZ 005c0240 f i MAP.obj
 0002:000692f0       ?_Unlock@?$basic_filebuf@DU?$char_traits@D@std@@@std@@UAEXXZ 005c02f0 f i MAP.obj
 0002:00069360       ?_Unlock@?$basic_streambuf@DU?$char_traits@D@std@@@std@@UAEXXZ 005c0360 f i MAP.obj
 0002:000693a0       ?allocate@?$_Wrap_alloc@V?$allocator@U?$_Tree_node@U?$pair@$$CBIPAH@std@@PAX@std@@@std@@@std@@QAEPAU?$_Tree_node@U?$pair@$$CBIPAH@std@@PAX@2@I@Z 005c03a0 f i MAP.obj
 0002:00069400       ?allocate@?$_Wrap_alloc@V?$allocator@U?$_Tree_node@U?$pair@$$CBIPAVCRoomEvent@@@std@@PAX@std@@@std@@@std@@QAEPAU?$_Tree_node@U?$pair@$$CBIPAVCRoomEvent@@@std@@PAX@2@I@Z 005c0400 f i MAP.obj
 0002:00069460       ?allocate@?$allocator@U?$_Tree_node@U?$pair@$$CBIPAH@std@@PAX@std@@@std@@QAEPAU?$_Tree_node@U?$pair@$$CBIPAH@std@@PAX@2@I@Z 005c0460 f i MAP.obj
 0002:000694c0       ?allocate@?$allocator@U?$_Tree_node@U?$pair@$$CBIPAVCRoomEvent@@@std@@PAX@std@@@std@@QAEPAU?$_Tree_node@U?$pair@$$CBIPAVCRoomEvent@@@std@@PAX@2@I@Z 005c04c0 f i MAP.obj
 0002:00069520       ?always_noconv@codecvt_base@std@@QBE_NXZ 005c0520 f i MAP.obj
 0002:00069580       ?append@?$basic_string@DU?$char_traits@D@std@@V?$allocator@D@2@@std@@QAEAAV12@ID@Z 005c0580 f i MAP.obj
 0002:00069650       ?assign@?$basic_string@DU?$char_traits@D@std@@V?$allocator@D@2@@std@@QAEAAV12@ID@Z 005c0650 f i MAP.obj
 0002:00069700       ?begin@?$_Tree@V?$_Tmap_traits@IPAHU?$less@I@std@@V?$allocator@U?$pair@$$CBIPAH@std@@@2@$0A@@std@@@std@@QAE?AV?$_Tree_iterator@V?$_Tree_val@U?$_Tree_simple_types@U?$pair@$$CBIPAH@std@@@std@@@std@@@2@XZ 005c0700 f i MAP.obj
 0002:00069770       ?begin@?$_Tree@V?$_Tmap_traits@IPAU_OBJECT_EVENT@@U?$less@I@std@@V?$allocator@U?$pair@$$CBIPAU_OBJECT_EVENT@@@std@@@3@$0A@@std@@@std@@QAE?AV?$_Tree_iterator@V?$_Tree_val@U?$_Tree_simple_types@U?$pair@$$CBIPAU_OBJECT_EVENT@@@std@@@std@@@std@@@2@XZ 005c0770 f i MAP.obj
 0002:000697e0       ?begin@?$_Tree@V?$_Tmap_traits@IPAVCRoomEvent@@U?$less@I@std@@V?$allocator@U?$pair@$$CBIPAVCRoomEvent@@@std@@@3@$0A@@std@@@std@@QAE?AV?$_Tree_iterator@V?$_Tree_val@U?$_Tree_simple_types@U?$pair@$$CBIPAVCRoomEvent@@@std@@@std@@@std@@@2@XZ 005c07e0 f i MAP.obj
 0002:00069850       ?c_str@?$_Yarn@D@std@@QBEPBDXZ 005c0850 f i MAP.obj
 0002:000698c0       ?c_str@locale@std@@QBEPBDXZ 005c08c0 f i MAP.obj
 0002:00069940       ?clear@?$_Tree@V?$_Tmap_traits@IPAHU?$less@I@std@@V?$allocator@U?$pair@$$CBIPAH@std@@@2@$0A@@std@@@std@@QAEXXZ 005c0940 f i MAP.obj
 0002:00069a00       ?clear@?$_Tree@V?$_Tmap_traits@IPAVCRoomEvent@@U?$less@I@std@@V?$allocator@U?$pair@$$CBIPAVCRoomEvent@@@std@@@3@$0A@@std@@@std@@QAEXXZ 005c0a00 f i MAP.obj
 0002:00069ac0       ?clear@?$basic_ios@DU?$char_traits@D@std@@@std@@QAEXH_N@Z 005c0ac0 f i MAP.obj
 0002:00069b50       ?clear@ios_base@std@@QAEXH@Z 005c0b50 f i MAP.obj
 0002:00069bb0       ?clear@ios_base@std@@QAEXH_N@Z 005c0bb0 f i MAP.obj
 0002:00069d30       ?close@?$basic_filebuf@DU?$char_traits@D@std@@@std@@QAEPAV12@XZ 005c0d30 f i MAP.obj
 0002:00069df0       ?close@?$basic_ifstream@DU?$char_traits@D@std@@@std@@QAEXXZ 005c0df0 f i MAP.obj
 0002:00069e70       ?deallocate@?$_Wrap_alloc@V?$allocator@U?$_Tree_node@U?$pair@$$CBIPAH@std@@PAX@std@@@std@@@std@@QAEXPAU?$_Tree_node@U?$pair@$$CBIPAH@std@@PAX@2@I@Z 005c0e70 f i MAP.obj
 0002:00069ed0       ?deallocate@?$_Wrap_alloc@V?$allocator@U?$_Tree_node@U?$pair@$$CBIPAVCRoomEvent@@@std@@PAX@std@@@std@@@std@@QAEXPAU?$_Tree_node@U?$pair@$$CBIPAVCRoomEvent@@@std@@PAX@2@I@Z 005c0ed0 f i MAP.obj
 0002:00069f30       ?deallocate@?$allocator@U?$_Tree_node@U?$pair@$$CBIPAH@std@@PAX@std@@@std@@QAEXPAU?$_Tree_node@U?$pair@$$CBIPAH@std@@PAX@2@I@Z 005c0f30 f i MAP.obj
 0002:00069f90       ?deallocate@?$allocator@U?$_Tree_node@U?$pair@$$CBIPAVCRoomEvent@@@std@@PAX@std@@@std@@QAEXPAU?$_Tree_node@U?$pair@$$CBIPAVCRoomEvent@@@std@@PAX@2@I@Z 005c0f90 f i MAP.obj
 0002:00069ff0       ?do_always_noconv@?$codecvt@DDH@std@@MBE_NXZ 005c0ff0 f i MAP.obj
 0002:0006a030       ?do_always_noconv@codecvt_base@std@@MBE_NXZ 005c1030 f i MAP.obj
 0002:0006a070       ?do_encoding@codecvt_base@std@@MBEHXZ 005c1070 f i MAP.obj
 0002:0006a0b0       ?do_in@?$codecvt@DDH@std@@MBEHAAHPBD1AAPBDPAD3AAPAD@Z 005c10b0 f i MAP.obj
 0002:0006a170       ?do_length@?$codecvt@DDH@std@@MBEHAAHPBD1I@Z 005c1170 f i MAP.obj
 0002:0006a1e0       ?do_max_length@codecvt_base@std@@MBEHXZ 005c11e0 f i MAP.obj
 0002:0006a220       ?do_narrow@?$ctype@D@std@@MBEDDD@Z 005c1220 f i MAP.obj
 0002:0006a260       ?do_narrow@?$ctype@D@std@@MBEPBDPBD0DPAD@Z 005c1260 f i MAP.obj
 0002:0006a310       ?do_out@?$codecvt@DDH@std@@MBEHAAHPBD1AAPBDPAD3AAPAD@Z 005c1310 f i MAP.obj
 0002:0006a3d0       ?do_tolower@?$ctype@D@std@@MBEDD@Z 005c13d0 f i MAP.obj
 0002:0006a430       ?do_tolower@?$ctype@D@std@@MBEPBDPADPBD@Z 005c1430 f i MAP.obj
 0002:0006a4e0       ?do_toupper@?$ctype@D@std@@MBEDD@Z 005c14e0 f i MAP.obj
 0002:0006a540       ?do_toupper@?$ctype@D@std@@MBEPBDPADPBD@Z 005c1540 f i MAP.obj
 0002:0006a5f0       ?do_unshift@?$codecvt@DDH@std@@MBEHAAHPAD1AAPAD@Z 005c15f0 f i MAP.obj
 0002:0006a640       ?do_widen@?$ctype@D@std@@MBEDD@Z 005c1640 f i MAP.obj
 0002:0006a680       ?do_widen@?$ctype@D@std@@MBEPBDPBD0PAD@Z 005c1680 f i MAP.obj
 0002:0006a730       ?eback@?$basic_streambuf@DU?$char_traits@D@std@@@std@@IBEPADXZ 005c1730 f i MAP.obj
 0002:0006a770       ?egptr@?$basic_streambuf@DU?$char_traits@D@std@@@std@@IBEPADXZ 005c1770 f i MAP.obj
 0002:0006a7c0       ?empty@?$_Tree@V?$_Tmap_traits@IPAHU?$less@I@std@@V?$allocator@U?$pair@$$CBIPAH@std@@@2@$0A@@std@@@std@@QBE_NXZ 005c17c0 f i MAP.obj
 0002:0006a840       ?empty@?$_Tree@V?$_Tmap_traits@IPAVCRoomEvent@@U?$less@I@std@@V?$allocator@U?$pair@$$CBIPAVCRoomEvent@@@std@@@3@$0A@@std@@@std@@QBE_NXZ 005c1840 f i MAP.obj
 0002:0006a8c0       ?end@?$_Tree@V?$_Tmap_traits@IPAHU?$less@I@std@@V?$allocator@U?$pair@$$CBIPAH@std@@@2@$0A@@std@@@std@@QAE?AV?$_Tree_iterator@V?$_Tree_val@U?$_Tree_simple_types@U?$pair@$$CBIPAH@std@@@std@@@std@@@2@XZ 005c18c0 f i MAP.obj
 0002:0006a930       ?end@?$_Tree@V?$_Tmap_traits@IPAU_OBJECT_EVENT@@U?$less@I@std@@V?$allocator@U?$pair@$$CBIPAU_OBJECT_EVENT@@@std@@@3@$0A@@std@@@std@@QAE?AV?$_Tree_iterator@V?$_Tree_val@U?$_Tree_simple_types@U?$pair@$$CBIPAU_OBJECT_EVENT@@@std@@@std@@@std@@@2@XZ 005c1930 f i MAP.obj
 0002:0006a9a0       ?end@?$_Tree@V?$_Tmap_traits@IPAVCRoomEvent@@U?$less@I@std@@V?$allocator@U?$pair@$$CBIPAVCRoomEvent@@@std@@@3@$0A@@std@@@std@@QAE?AV?$_Tree_iterator@V?$_Tree_val@U?$_Tree_simple_types@U?$pair@$$CBIPAVCRoomEvent@@@std@@@std@@@std@@@2@XZ 005c19a0 f i MAP.obj
 0002:0006aa10       ?eof@?$char_traits@D@std@@SAHXZ 005c1a10 f i MAP.obj
 0002:0006aa50       ?epptr@?$basic_streambuf@DU?$char_traits@D@std@@@std@@IBEPADXZ 005c1a50 f i MAP.obj
 0002:0006aaa0       ?eq_int_type@?$char_traits@D@std@@SA_NABH0@Z 005c1aa0 f i MAP.obj
 0002:0006ab00       ?erase@?$_Tree@V?$_Tmap_traits@IPAHU?$less@I@std@@V?$allocator@U?$pair@$$CBIPAH@std@@@2@$0A@@std@@@std@@QAE?AV?$_Tree_iterator@V?$_Tree_val@U?$_Tree_simple_types@U?$pair@$$CBIPAH@std@@@std@@@std@@@2@V?$_Tree_const_iterator@V?$_Tree_val@U?$_Tree_simple_types@U?$pair@$$CBIPAH@std@@@std@@@std@@@2@0@Z 005c1b00 f i MAP.obj
 0002:0006ae20       ?erase@?$_Tree@V?$_Tmap_traits@IPAHU?$less@I@std@@V?$allocator@U?$pair@$$CBIPAH@std@@@2@$0A@@std@@@std@@QAE?AV?$_Tree_iterator@V?$_Tree_val@U?$_Tree_simple_types@U?$pair@$$CBIPAH@std@@@std@@@std@@@2@V?$_Tree_const_iterator@V?$_Tree_val@U?$_Tree_simple_types@U?$pair@$$CBIPAH@std@@@std@@@std@@@2@@Z 005c1e20 f i MAP.obj
 0002:0006b890       ?erase@?$_Tree@V?$_Tmap_traits@IPAVCRoomEvent@@U?$less@I@std@@V?$allocator@U?$pair@$$CBIPAVCRoomEvent@@@std@@@3@$0A@@std@@@std@@QAE?AV?$_Tree_iterator@V?$_Tree_val@U?$_Tree_simple_types@U?$pair@$$CBIPAVCRoomEvent@@@std@@@std@@@std@@@2@V?$_Tree_const_iterator@V?$_Tree_val@U?$_Tree_simple_types@U?$pair@$$CBIPAVCRoomEvent@@@std@@@std@@@std@@@2@0@Z 005c2890 f i MAP.obj
 0002:0006bbb0       ?erase@?$_Tree@V?$_Tmap_traits@IPAVCRoomEvent@@U?$less@I@std@@V?$allocator@U?$pair@$$CBIPAVCRoomEvent@@@std@@@3@$0A@@std@@@std@@QAE?AV?$_Tree_iterator@V?$_Tree_val@U?$_Tree_simple_types@U?$pair@$$CBIPAVCRoomEvent@@@std@@@std@@@std@@@2@V?$_Tree_const_iterator@V?$_Tree_val@U?$_Tree_simple_types@U?$pair@$$CBIPAVCRoomEvent@@@std@@@std@@@std@@@2@@Z 005c2bb0 f i MAP.obj
 0002:0006c620       ?fail@ios_base@std@@QBE_NXZ 005c3620 f i MAP.obj
 0002:0006c6a0       ?find@?$_Tree@V?$_Tmap_traits@IPAHU?$less@I@std@@V?$allocator@U?$pair@$$CBIPAH@std@@@2@$0A@@std@@@std@@QAE?AV?$_Tree_iterator@V?$_Tree_val@U?$_Tree_simple_types@U?$pair@$$CBIPAH@std@@@std@@@std@@@2@ABI@Z 005c36a0 f i MAP.obj
 0002:0006c9b0       ?find@?$_Tree@V?$_Tmap_traits@IPAVCRoomEvent@@U?$less@I@std@@V?$allocator@U?$pair@$$CBIPAVCRoomEvent@@@std@@@3@$0A@@std@@@std@@QAE?AV?$_Tree_iterator@V?$_Tree_val@U?$_Tree_simple_types@U?$pair@$$CBIPAVCRoomEvent@@@std@@@std@@@std@@@2@ABI@Z 005c39b0 f i MAP.obj
 0002:0006ccc0       ?flags@ios_base@std@@QBEHXZ 005c3cc0 f i MAP.obj
 0002:0006cd00       ?flush@?$basic_ostream@DU?$char_traits@D@std@@@std@@QAEAAV12@XZ 005c3d00 f i MAP.obj
 0002:0006ce50       ?gbump@?$basic_streambuf@DU?$char_traits@D@std@@@std@@IAEXH@Z 005c3e50 f i MAP.obj
 0002:0006cec0       ?getloc@?$basic_streambuf@DU?$char_traits@D@std@@@std@@QBE?AVlocale@2@XZ 005c3ec0 f i MAP.obj
 0002:0006cf40       ?getloc@ios_base@std@@QBE?AVlocale@2@XZ 005c3f40 f i MAP.obj
 0002:0006cfc0       ?good@ios_base@std@@QBE_NXZ 005c3fc0 f i MAP.obj
 0002:0006d040       ?gptr@?$basic_streambuf@DU?$char_traits@D@std@@@std@@IBEPADXZ 005c4040 f i MAP.obj
 0002:0006d080       ?imbue@?$basic_filebuf@DU?$char_traits@D@std@@@std@@MAEXABVlocale@2@@Z 005c4080 f i MAP.obj
 0002:0006d0f0       ?imbue@?$basic_streambuf@DU?$char_traits@D@std@@@std@@MAEXABVlocale@2@@Z 005c40f0 f i MAP.obj
 0002:0006d130       ?in@?$codecvt@DDH@std@@QBEHAAHPBD1AAPBDPAD3AAPAD@Z 005c4130 f i MAP.obj
 0002:0006d1c0       ?init@?$basic_ios@DU?$char_traits@D@std@@@std@@IAEXPAV?$basic_streambuf@DU?$char_traits@D@std@@@2@_N@Z 005c41c0 f i MAP.obj
 0002:0006d270       ?iostream_category@std@@YAABVerror_category@1@XZ 005c4270 f i MAP.obj
 0002:0006d2b0       ?is@?$ctype@D@std@@QBE_NFD@Z 005c42b0 f i MAP.obj
 0002:0006d330       ?isCleared@CRoomEvent@@QAE_NXZ 005c4330 f i MAP.obj
 0002:0006d3b0       ?isInitialised@CRoomEvent@@QAE_NXZ 005c43b0 f i MAP.obj
 0002:0006d430       ?lower_bound@?$_Tree@V?$_Tmap_traits@IPAHU?$less@I@std@@V?$allocator@U?$pair@$$CBIPAH@std@@@2@$0A@@std@@@std@@QAE?AV?$_Tree_iterator@V?$_Tree_val@U?$_Tree_simple_types@U?$pair@$$CBIPAH@std@@@std@@@std@@@2@ABI@Z 005c4430 f i MAP.obj
 0002:0006d4c0       ?lower_bound@?$_Tree@V?$_Tmap_traits@IPAVCRoomEvent@@U?$less@I@std@@V?$allocator@U?$pair@$$CBIPAVCRoomEvent@@@std@@@3@$0A@@std@@@std@@QAE?AV?$_Tree_iterator@V?$_Tree_val@U?$_Tree_simple_types@U?$pair@$$CBIPAVCRoomEvent@@@std@@@std@@@std@@@2@ABI@Z 005c44c0 f i MAP.obj
 0002:0006d550       ?make_error_code@std@@YA?AVerror_code@1@W4io_errc@31@@Z 005c4550 f i MAP.obj
 0002:0006d5b0       ?max_size@?$_Tree@V?$_Tmap_traits@IPAHU?$less@I@std@@V?$allocator@U?$pair@$$CBIPAH@std@@@2@$0A@@std@@@std@@QBEIXZ 005c45b0 f i MAP.obj
 0002:0006d610       ?max_size@?$_Tree@V?$_Tmap_traits@IPAVCRoomEvent@@U?$less@I@std@@V?$allocator@U?$pair@$$CBIPAVCRoomEvent@@@std@@@3@$0A@@std@@@std@@QBEIXZ 005c4610 f i MAP.obj
 0002:0006d670       ?max_size@?$_Wrap_alloc@V?$allocator@U?$_Tree_node@U?$pair@$$CBIPAH@std@@PAX@std@@@std@@@std@@QBEIXZ 005c4670 f i MAP.obj
 0002:0006d6d0       ?max_size@?$_Wrap_alloc@V?$allocator@U?$_Tree_node@U?$pair@$$CBIPAVCRoomEvent@@@std@@PAX@std@@@std@@@std@@QBEIXZ 005c46d0 f i MAP.obj
 0002:0006d730       ?max_size@?$allocator@U?$_Tree_node@U?$pair@$$CBIPAH@std@@PAX@std@@@std@@QBEIXZ 005c4730 f i MAP.obj
 0002:0006d770       ?max_size@?$allocator@U?$_Tree_node@U?$pair@$$CBIPAVCRoomEvent@@@std@@PAX@std@@@std@@QBEIXZ 005c4770 f i MAP.obj
 0002:0006d7b0       ?max_size@?$allocator_traits@V?$allocator@U?$_Tree_node@U?$pair@$$CBIPAH@std@@PAX@std@@@std@@@std@@SAIABV?$allocator@U?$_Tree_node@U?$pair@$$CBIPAH@std@@PAX@std@@@2@@Z 005c47b0 f i MAP.obj
 0002:0006d800       ?max_size@?$allocator_traits@V?$allocator@U?$_Tree_node@U?$pair@$$CBIPAVCRoomEvent@@@std@@PAX@std@@@std@@@std@@SAIABV?$allocator@U?$_Tree_node@U?$pair@$$CBIPAVCRoomEvent@@@std@@PAX@std@@@2@@Z 005c4800 f i MAP.obj
 0002:0006d850       ?not_eof@?$char_traits@D@std@@SAHABH@Z 005c4850 f i MAP.obj
 0002:0006d8f0       ?open@?$basic_filebuf@DU?$char_traits@D@std@@@std@@QAEPAV12@PBDHH@Z 005c48f0 f i MAP.obj
 0002:0006da20       ?out@?$codecvt@DDH@std@@QBEHAAHPBD1AAPBDPAD3AAPAD@Z 005c4a20 f i MAP.obj
 0002:0006dab0       ?overflow@?$basic_filebuf@DU?$char_traits@D@std@@@std@@MAEHH@Z 005c4ab0 f i MAP.obj
 0002:0006e0f0       ?overflow@?$basic_streambuf@DU?$char_traits@D@std@@@std@@MAEHH@Z 005c50f0 f i MAP.obj
 0002:0006e140       ?pbackfail@?$basic_filebuf@DU?$char_traits@D@std@@@std@@MAEHH@Z 005c5140 f i MAP.obj
 0002:0006e330       ?pbackfail@?$basic_streambuf@DU?$char_traits@D@std@@@std@@MAEHH@Z 005c5330 f i MAP.obj
 0002:0006e380       ?pbump@?$basic_streambuf@DU?$char_traits@D@std@@@std@@IAEXH@Z 005c5380 f i MAP.obj
 0002:0006e3f0       ?pointer_to@?$pointer_traits@PAU?$pair@$$CBIPAH@std@@@std@@SAPAU?$pair@$$CBIPAH@2@AAU32@@Z 005c53f0 f i MAP.obj
 0002:0006e440       ?pointer_to@?$pointer_traits@PAU?$pair@$$CBIPAU_OBJECT_EVENT@@@std@@@std@@SAPAU?$pair@$$CBIPAU_OBJECT_EVENT@@@2@AAU32@@Z 005c5440 f i MAP.obj
 0002:0006e490       ?pointer_to@?$pointer_traits@PAU?$pair@$$CBIPAVCRoomEvent@@@std@@@std@@SAPAU?$pair@$$CBIPAVCRoomEvent@@@2@AAU32@@Z 005c5490 f i MAP.obj
 0002:0006e4e0       ?pptr@?$basic_streambuf@DU?$char_traits@D@std@@@std@@IBEPADXZ 005c54e0 f i MAP.obj
 0002:0006e520       ?pubseekoff@?$basic_streambuf@DU?$char_traits@D@std@@@std@@QAE?AV?$fpos@H@2@_JHH@Z 005c5520 f i MAP.obj
 0002:0006e5a0       ?pubsync@?$basic_streambuf@DU?$char_traits@D@std@@@std@@QAEHXZ 005c55a0 f i MAP.obj
 0002:0006e600       ?rdbuf@?$basic_ios@DU?$char_traits@D@std@@@std@@QBEPAV?$basic_streambuf@DU?$char_traits@D@std@@@2@XZ 005c5600 f i MAP.obj
 0002:0006e640       ?rdstate@ios_base@std@@QBEHXZ 005c5640 f i MAP.obj
 0002:0006e680       ?read@?$basic_istream@DU?$char_traits@D@std@@@std@@QAEAAV12@PAD_J@Z 005c5680 f i MAP.obj
 0002:0006e8c0       ?sbumpc@?$basic_streambuf@DU?$char_traits@D@std@@@std@@QAEHXZ 005c58c0 f i MAP.obj
 0002:0006e980       ?seekg@?$basic_istream@DU?$char_traits@D@std@@@std@@QAEAAV12@_JH@Z 005c5980 f i MAP.obj
 0002:0006eb70       ?seekoff@?$basic_filebuf@DU?$char_traits@D@std@@@std@@MAE?AV?$fpos@H@2@_JHH@Z 005c5b70 f i MAP.obj
 0002:0006ed00       ?seekoff@?$basic_streambuf@DU?$char_traits@D@std@@@std@@MAE?AV?$fpos@H@2@_JHH@Z 005c5d00 f i MAP.obj
 0002:0006ed70       ?seekpos@?$basic_filebuf@DU?$char_traits@D@std@@@std@@MAE?AV?$fpos@H@2@V32@H@Z 005c5d70 f i MAP.obj
 0002:0006ef10       ?seekpos@?$basic_streambuf@DU?$char_traits@D@std@@@std@@MAE?AV?$fpos@H@2@V32@H@Z 005c5f10 f i MAP.obj
 0002:0006ef80       ?seekpos@?$fpos@H@std@@QBE_JXZ 005c5f80 f i MAP.obj
 0002:0006efc0       ?select_on_container_copy_construction@?$_Wrap_alloc@V?$allocator@D@std@@@std@@QBE?AU12@XZ 005c5fc0 f i MAP.obj
 0002:0006f030       ?select_on_container_copy_construction@?$allocator@D@std@@QBE?AV12@XZ 005c6030 f i MAP.obj
 0002:0006f090       ?select_on_container_copy_construction@?$allocator_traits@V?$allocator@D@std@@@std@@SA?AV?$allocator@D@2@ABV32@@Z 005c6090 f i MAP.obj
 0002:0006f0f0       ?setbuf@?$basic_filebuf@DU?$char_traits@D@std@@@std@@MAEPAV?$basic_streambuf@DU?$char_traits@D@std@@@2@PAD_J@Z 005c60f0 f i MAP.obj
 0002:0006f1c0       ?setbuf@?$basic_streambuf@DU?$char_traits@D@std@@@std@@MAEPAV12@PAD_J@Z 005c61c0 f i MAP.obj
 0002:0006f200       ?setg@?$basic_streambuf@DU?$char_traits@D@std@@@std@@IAEXPAD00@Z 005c6200 f i MAP.obj
 0002:0006f270       ?setp@?$basic_streambuf@DU?$char_traits@D@std@@@std@@IAEXPAD0@Z 005c6270 f i MAP.obj
 0002:0006f2e0       ?setstate@?$basic_ios@DU?$char_traits@D@std@@@std@@QAEXH_N@Z 005c62e0 f i MAP.obj
 0002:0006f350       ?sgetc@?$basic_streambuf@DU?$char_traits@D@std@@@std@@QAEHXZ 005c6350 f i MAP.obj
 0002:0006f410       ?sgetn@?$basic_streambuf@DU?$char_traits@D@std@@@std@@QAE_JPAD_J@Z 005c6410 f i MAP.obj
 0002:0006f490       ?showmanyc@?$basic_streambuf@DU?$char_traits@D@std@@@std@@MAE_JXZ 005c6490 f i MAP.obj
 0002:0006f4d0       ?size@?$_Tree@V?$_Tmap_traits@IPAHU?$less@I@std@@V?$allocator@U?$pair@$$CBIPAH@std@@@2@$0A@@std@@@std@@QBEIXZ 005c64d0 f i MAP.obj
 0002:0006f510       ?size@?$_Tree@V?$_Tmap_traits@IPAVCRoomEvent@@U?$less@I@std@@V?$allocator@U?$pair@$$CBIPAVCRoomEvent@@@std@@@3@$0A@@std@@@std@@QBEIXZ 005c6510 f i MAP.obj
 0002:0006f550       ?snextc@?$basic_streambuf@DU?$char_traits@D@std@@@std@@QAEHXZ 005c6550 f i MAP.obj
 0002:0006f670       ?state@?$fpos@H@std@@QBEHXZ 005c6670 f i MAP.obj
 0002:0006f6b0       ?sync@?$basic_filebuf@DU?$char_traits@D@std@@@std@@MAEHXZ 005c66b0 f i MAP.obj
 0002:0006f7a0       ?sync@?$basic_streambuf@DU?$char_traits@D@std@@@std@@MAEHXZ 005c67a0 f i MAP.obj
 0002:0006f7e0       ?tellg@?$basic_istream@DU?$char_traits@D@std@@@std@@QAE?AV?$fpos@H@2@XZ 005c67e0 f i MAP.obj
 0002:0006f960       ?tie@?$basic_ios@DU?$char_traits@D@std@@@std@@QBEPAV?$basic_ostream@DU?$char_traits@D@std@@@2@XZ 005c6960 f i MAP.obj
 0002:0006f9a0       ?to_char_type@?$char_traits@D@std@@SADABH@Z 005c69a0 f i MAP.obj
 0002:0006f9e0       ?to_int_type@?$char_traits@D@std@@SAHABD@Z 005c69e0 f i MAP.obj
 0002:0006fa20       ?uflow@?$basic_filebuf@DU?$char_traits@D@std@@@std@@MAEHXZ 005c6a20 f i MAP.obj
 0002:0006fff0       ?uflow@?$basic_streambuf@DU?$char_traits@D@std@@@std@@MAEHXZ 005c6ff0 f i MAP.obj
 0002:000700c0       ?underflow@?$basic_filebuf@DU?$char_traits@D@std@@@std@@MAEHXZ 005c70c0 f i MAP.obj
 0002:00070200       ?underflow@?$basic_streambuf@DU?$char_traits@D@std@@@std@@MAEHXZ 005c7200 f i MAP.obj
 0002:00070250       ?unshift@?$codecvt@DDH@std@@QBEHAAHPAD1AAPAD@Z 005c7250 f i MAP.obj
 0002:000702d0       ?widen@?$basic_ios@DU?$char_traits@D@std@@@std@@QBEDD@Z 005c72d0 f i MAP.obj
 0002:000703c0       ?widen@?$ctype@D@std@@QBEDD@Z 005c73c0 f i MAP.obj
 0002:00070430       ?xsgetn@?$basic_streambuf@DU?$char_traits@D@std@@@std@@MAE_JPAD_J@Z 005c7430 f i MAP.obj
 0002:00070640       ?xsputn@?$basic_streambuf@DU?$char_traits@D@std@@@std@@MAE_JPBD_J@Z 005c7640 f i MAP.obj
 0002:00070820       ??$?0AAV?$_Tree_iterator@V?$_Tree_val@U?$_Tree_simple_types@U?$pair@$$CBGI@std@@@std@@@std@@@std@@_N@?$pair@V?$_Tree_iterator@V?$_Tree_val@U?$_Tree_simple_types@U?$pair@$$CBGI@std@@@std@@@std@@@std@@_N@std@@QAE@AAV?$_Tree_iterator@V?$_Tree_val@U?$_Tree_simple_types@U?$pair@$$CBGI@std@@@std@@@std@@@1@$$QA_NPAPAX@Z 005c7820 f i Npc.obj
 0002:000708f0       ??$?0AAV?$_Tree_iterator@V?$_Tree_val@U?$_Tree_simple_types@U?$pair@$$CBGPAVCUser@@@std@@@std@@@std@@@std@@_N@?$pair@V?$_Tree_iterator@V?$_Tree_val@U?$_Tree_simple_types@U?$pair@$$CBGPAVCUser@@@std@@@std@@@std@@@std@@_N@std@@QAE@AAV?$_Tree_iterator@V?$_Tree_val@U?$_Tree_simple_types@U?$pair@$$CBGPAVCUser@@@std@@@std@@@std@@@1@$$QA_NPAPAX@Z 005c78f0 f i Npc.obj
 0002:000709c0       ??$?0AAV?$_Tree_iterator@V?$_Tree_val@U?$_Tree_simple_types@U?$pair@QAVCUser@@I@std@@@std@@@std@@@std@@_N@?$pair@V?$_Tree_iterator@V?$_Tree_val@U?$_Tree_simple_types@U?$pair@QAVCUser@@I@std@@@std@@@std@@@std@@_N@std@@QAE@AAV?$_Tree_iterator@V?$_Tree_val@U?$_Tree_simple_types@U?$pair@QAVCUser@@I@std@@@std@@@std@@@1@$$QA_NPAPAX@Z 005c79c0 f i Npc.obj
 0002:00070a90       ??$?0ABQAVCUser@@I@?$pair@PAVCUser@@I@std@@QAE@ABQAVCUser@@$$QAIPAPAX@Z 005c7a90 f i Npc.obj
 0002:00070b10       ??$?0GAAPAVCUser@@@?$pair@GPAVCUser@@@std@@QAE@$$QAGAAPAVCUser@@PAPAX@Z 005c7b10 f i Npc.obj
 0002:00070b90       ??$?0GI@?$pair@$$CBGI@std@@QAE@$$QAU?$pair@GI@1@PAPAX@Z 005c7b90 f i Npc.obj
 0002:00070c20       ??$?0GI@?$pair@GI@std@@QAE@$$QAG$$QAIPAPAX@Z 005c7c20 f i Npc.obj
 0002:00070ca0       ??$?0GPAVCUser@@@?$pair@$$CBGPAVCUser@@@std@@QAE@$$QAU?$pair@GPAVCUser@@@1@PAPAX@Z 005c7ca0 f i Npc.obj
 0002:00070d30       ??$?0GPAVCUser@@@?$pair@GPAVCUser@@@std@@QAE@$$QAU01@PAPAX@Z 005c7d30 f i Npc.obj
 0002:00070dc0       ??$?0PAVCUser@@I@?$pair@QAVCUser@@I@std@@QAE@$$QAU?$pair@PAVCUser@@I@1@PAPAX@Z 005c7dc0 f i Npc.obj
 0002:00070e40       ??$?0U?$_Tree_node@U?$pair@$$CBGI@std@@PAX@std@@@?$allocator@U_Container_proxy@std@@@std@@QAE@ABV?$allocator@U?$_Tree_node@U?$pair@$$CBGI@std@@PAX@std@@@1@@Z 005c7e40 f i Npc.obj
 0002:00070e80       ??$?0U?$_Tree_node@U?$pair@$$CBGPAVCUser@@@std@@PAX@std@@@?$allocator@U_Container_proxy@std@@@std@@QAE@ABV?$allocator@U?$_Tree_node@U?$pair@$$CBGPAVCUser@@@std@@PAX@std@@@1@@Z 005c7e80 f i Npc.obj
 0002:00070ec0       ??$?0U?$_Tree_node@U?$pair@QAVCUser@@I@std@@PAX@std@@@?$allocator@U_Container_proxy@std@@@std@@QAE@ABV?$allocator@U?$_Tree_node@U?$pair@QAVCUser@@I@std@@PAX@std@@@1@@Z 005c7ec0 f i Npc.obj
 0002:00070f00       ??$?0U?$_Wrap_alloc@V?$allocator@U?$_Tree_node@U?$pair@$$CBGI@std@@PAX@std@@@std@@@std@@@?$_Wrap_alloc@V?$allocator@U_Container_proxy@std@@@std@@@std@@QAE@ABU?$_Wrap_alloc@V?$allocator@U?$_Tree_node@U?$pair@$$CBGI@std@@PAX@std@@@std@@@1@@Z 005c7f00 f i Npc.obj
 0002:00070f60       ??$?0U?$_Wrap_alloc@V?$allocator@U?$_Tree_node@U?$pair@$$CBGPAVCUser@@@std@@PAX@std@@@std@@@std@@@?$_Wrap_alloc@V?$allocator@U_Container_proxy@std@@@std@@@std@@QAE@ABU?$_Wrap_alloc@V?$allocator@U?$_Tree_node@U?$pair@$$CBGPAVCUser@@@std@@PAX@std@@@std@@@1@@Z 005c7f60 f i Npc.obj
 0002:00070fc0       ??$?0U?$_Wrap_alloc@V?$allocator@U?$_Tree_node@U?$pair@QAVCUser@@I@std@@PAX@std@@@std@@@std@@@?$_Wrap_alloc@V?$allocator@U_Container_proxy@std@@@std@@@std@@QAE@ABU?$_Wrap_alloc@V?$allocator@U?$_Tree_node@U?$pair@QAVCUser@@I@std@@PAX@std@@@std@@@1@@Z 005c7fc0 f i Npc.obj
 0002:00071020       ??$?0V?$_Tree_iterator@V?$_Tree_val@U?$_Tree_simple_types@U?$pair@$$CBGI@std@@@std@@@std@@@std@@_N@?$pair@V?$_Tree_iterator@V?$_Tree_val@U?$_Tree_simple_types@U?$pair@$$CBGI@std@@@std@@@std@@@std@@_N@std@@QAE@$$QAU01@PAPAX@Z 005c8020 f i Npc.obj
 0002:000710f0       ??$?0V?$_Tree_iterator@V?$_Tree_val@U?$_Tree_simple_types@U?$pair@$$CBGI@std@@@std@@@std@@@std@@_N@?$pair@V?$_Tree_iterator@V?$_Tree_val@U?$_Tree_simple_types@U?$pair@$$CBGI@std@@@std@@@std@@@std@@_N@std@@QAE@$$QAV?$_Tree_iterator@V?$_Tree_val@U?$_Tree_simple_types@U?$pair@$$CBGI@std@@@std@@@std@@@1@$$QA_NPAPAX@Z 005c80f0 f i Npc.obj
 0002:000711c0       ??$?0V?$_Tree_iterator@V?$_Tree_val@U?$_Tree_simple_types@U?$pair@$$CBGPAVCUser@@@std@@@std@@@std@@@std@@_N@?$pair@V?$_Tree_iterator@V?$_Tree_val@U?$_Tree_simple_types@U?$pair@$$CBGPAVCUser@@@std@@@std@@@std@@@std@@_N@std@@QAE@$$QAU01@PAPAX@Z 005c81c0 f i Npc.obj
 0002:00071290       ??$?0V?$_Tree_iterator@V?$_Tree_val@U?$_Tree_simple_types@U?$pair@$$CBGPAVCUser@@@std@@@std@@@std@@@std@@_N@?$pair@V?$_Tree_iterator@V?$_Tree_val@U?$_Tree_simple_types@U?$pair@$$CBGPAVCUser@@@std@@@std@@@std@@@std@@_N@std@@QAE@$$QAV?$_Tree_iterator@V?$_Tree_val@U?$_Tree_simple_types@U?$pair@$$CBGPAVCUser@@@std@@@std@@@std@@@1@$$QA_NPAPAX@Z 005c8290 f i Npc.obj
 0002:00071360       ??$?0V?$_Tree_iterator@V?$_Tree_val@U?$_Tree_simple_types@U?$pair@QAVCUser@@I@std@@@std@@@std@@@std@@_N@?$pair@V?$_Tree_iterator@V?$_Tree_val@U?$_Tree_simple_types@U?$pair@QAVCUser@@I@std@@@std@@@std@@@std@@_N@std@@QAE@$$QAU01@PAPAX@Z 005c8360 f i Npc.obj
 0002:00071430       ??$?0V?$_Tree_iterator@V?$_Tree_val@U?$_Tree_simple_types@U?$pair@QAVCUser@@I@std@@@std@@@std@@@std@@_N@?$pair@V?$_Tree_iterator@V?$_Tree_val@U?$_Tree_simple_types@U?$pair@QAVCUser@@I@std@@@std@@@std@@@std@@_N@std@@QAE@$$QAV?$_Tree_iterator@V?$_Tree_val@U?$_Tree_simple_types@U?$pair@QAVCUser@@I@std@@@std@@@std@@@1@$$QA_NPAPAX@Z 005c8430 f i Npc.obj
 0002:00071500       ??$?8DD@std@@YA_NABV?$allocator@D@0@0@Z 005c8500 f i Npc.obj
 0002:00071530       ??$?8V?$allocator@D@std@@V01@@std@@YA_NABU?$_Wrap_alloc@V?$allocator@D@std@@@0@0@Z 005c8530 f i Npc.obj
 0002:000715a0       ??$?9V?$allocator@D@std@@V01@@std@@YA_NABU?$_Wrap_alloc@V?$allocator@D@std@@@0@0@Z 005c85a0 f i Npc.obj
 0002:00071620       ??$_Allocate@U?$_Tree_node@U?$pair@$$CBGI@std@@PAX@std@@@std@@YAPAU?$_Tree_node@U?$pair@$$CBGI@std@@PAX@0@IPAU10@@Z 005c8620 f i Npc.obj
 0002:000716b0       ??$_Allocate@U?$_Tree_node@U?$pair@$$CBGPAVCUser@@@std@@PAX@std@@@std@@YAPAU?$_Tree_node@U?$pair@$$CBGPAVCUser@@@std@@PAX@0@IPAU10@@Z 005c86b0 f i Npc.obj
 0002:00071740       ??$_Allocate@U?$_Tree_node@U?$pair@QAVCUser@@I@std@@PAX@std@@@std@@YAPAU?$_Tree_node@U?$pair@QAVCUser@@I@std@@PAX@0@IPAU10@@Z 005c8740 f i Npc.obj
 0002:000717d0       ??$_Buynode@U?$pair@GI@std@@@?$_Tree_buy@U?$pair@$$CBGI@std@@V?$allocator@U?$pair@$$CBGI@std@@@2@@std@@QAEPAU?$_Tree_node@U?$pair@$$CBGI@std@@PAX@1@$$QAU?$pair@GI@1@@Z 005c87d0 f i Npc.obj
 0002:00071940       ??$_Buynode@U?$pair@GPAVCUser@@@std@@@?$_Tree_buy@U?$pair@$$CBGPAVCUser@@@std@@V?$allocator@U?$pair@$$CBGPAVCUser@@@std@@@2@@std@@QAEPAU?$_Tree_node@U?$pair@$$CBGPAVCUser@@@std@@PAX@1@$$QAU?$pair@GPAVCUser@@@1@@Z 005c8940 f i Npc.obj
 0002:00071ab0       ??$_Buynode@U?$pair@PAVCUser@@I@std@@@?$_Tree_buy@U?$pair@QAVCUser@@I@std@@V?$allocator@U?$pair@QAVCUser@@I@std@@@2@@std@@QAEPAU?$_Tree_node@U?$pair@QAVCUser@@I@std@@PAX@1@$$QAU?$pair@PAVCUser@@I@1@@Z 005c8ab0 f i Npc.obj
 0002:00071c20       ??$_Buynode_if_nil@AAU?$pair@$$CBGI@std@@@?$_Tree@V?$_Tmap_traits@GIU?$less@G@std@@V?$allocator@U?$pair@$$CBGI@std@@@2@$0A@@std@@@std@@IAEPAU?$_Tree_node@U?$pair@$$CBGI@std@@PAX@1@PAU21@AAU?$pair@$$CBGI@1@@Z 005c8c20 f i Npc.obj
 0002:00071c60       ??$_Buynode_if_nil@AAU?$pair@$$CBGPAVCUser@@@std@@@?$_Tree@V?$_Tmap_traits@GPAVCUser@@U?$less@G@std@@V?$allocator@U?$pair@$$CBGPAVCUser@@@std@@@3@$0A@@std@@@std@@IAEPAU?$_Tree_node@U?$pair@$$CBGPAVCUser@@@std@@PAX@1@PAU21@AAU?$pair@$$CBGPAVCUser@@@1@@Z 005c8c60 f i Npc.obj
 0002:00071ca0       ??$_Buynode_if_nil@AAU?$pair@QAVCUser@@I@std@@@?$_Tree@V?$_Tmap_traits@PAVCUser@@IU?$less@PAVCUser@@@std@@V?$allocator@U?$pair@QAVCUser@@I@std@@@3@$0A@@std@@@std@@IAEPAU?$_Tree_node@U?$pair@QAVCUser@@I@std@@PAX@1@PAU21@AAU?$pair@QAVCUser@@I@1@@Z 005c8ca0 f i Npc.obj
 0002:00071ce0       ??$_Debug_lt_pred@U?$less@G@std@@GG@std@@YA_NU?$less@G@0@ABG1PB_WI@Z 005c8ce0 f i Npc.obj
 0002:00071d80       ??$_Debug_lt_pred@U?$less@PAVCUser@@@std@@PAVCUser@@PAV3@@std@@YA_NU?$less@PAVCUser@@@0@ABQAVCUser@@1PB_WI@Z 005c8d80 f i Npc.obj
 0002:00071e20       ??$_Insert_at@AAU?$pair@$$CBGI@std@@PAU?$_Tree_node@U?$pair@$$CBGI@std@@PAX@2@@?$_Tree@V?$_Tmap_traits@GIU?$less@G@std@@V?$allocator@U?$pair@$$CBGI@std@@@2@$0A@@std@@@std@@IAE?AV?$_Tree_iterator@V?$_Tree_val@U?$_Tree_simple_types@U?$pair@$$CBGI@std@@@std@@@std@@@1@_NPAU?$_Tree_node@U?$pair@$$CBGI@std@@PAX@1@AAU?$pair@$$CBGI@1@1@Z 005c8e20 f i Npc.obj
 0002:000723a0       ??$_Insert_at@AAU?$pair@$$CBGPAVCUser@@@std@@PAU?$_Tree_node@U?$pair@$$CBGPAVCUser@@@std@@PAX@2@@?$_Tree@V?$_Tmap_traits@GPAVCUser@@U?$less@G@std@@V?$allocator@U?$pair@$$CBGPAVCUser@@@std@@@3@$0A@@std@@@std@@IAE?AV?$_Tree_iterator@V?$_Tree_val@U?$_Tree_simple_types@U?$pair@$$CBGPAVCUser@@@std@@@std@@@std@@@1@_NPAU?$_Tree_node@U?$pair@$$CBGPAVCUser@@@std@@PAX@1@AAU?$pair@$$CBGPAVCUser@@@1@1@Z 005c93a0 f i Npc.obj
 0002:00072920       ??$_Insert_at@AAU?$pair@QAVCUser@@I@std@@PAU?$_Tree_node@U?$pair@QAVCUser@@I@std@@PAX@2@@?$_Tree@V?$_Tmap_traits@PAVCUser@@IU?$less@PAVCUser@@@std@@V?$allocator@U?$pair@QAVCUser@@I@std@@@3@$0A@@std@@@std@@IAE?AV?$_Tree_iterator@V?$_Tree_val@U?$_Tree_simple_types@U?$pair@QAVCUser@@I@std@@@std@@@std@@@1@_NPAU?$_Tree_node@U?$pair@QAVCUser@@I@std@@PAX@1@AAU?$pair@QAVCUser@@I@1@1@Z 005c9920 f i Npc.obj
 0002:00072ea0       ??$_Insert_hint@AAU?$pair@$$CBGI@std@@PAU?$_Tree_node@U?$pair@$$CBGI@std@@PAX@2@@?$_Tree@V?$_Tmap_traits@GIU?$less@G@std@@V?$allocator@U?$pair@$$CBGI@std@@@2@$0A@@std@@@std@@IAE?AV?$_Tree_iterator@V?$_Tree_val@U?$_Tree_simple_types@U?$pair@$$CBGI@std@@@std@@@std@@@1@V?$_Tree_const_iterator@V?$_Tree_val@U?$_Tree_simple_types@U?$pair@$$CBGI@std@@@std@@@std@@@1@AAU?$pair@$$CBGI@1@PAU?$_Tree_node@U?$pair@$$CBGI@std@@PAX@1@@Z 005c9ea0 f i Npc.obj
 0002:000745f0       ??$_Insert_hint@AAU?$pair@QAVCUser@@I@std@@PAU?$_Tree_node@U?$pair@QAVCUser@@I@std@@PAX@2@@?$_Tree@V?$_Tmap_traits@PAVCUser@@IU?$less@PAVCUser@@@std@@V?$allocator@U?$pair@QAVCUser@@I@std@@@3@$0A@@std@@@std@@IAE?AV?$_Tree_iterator@V?$_Tree_val@U?$_Tree_simple_types@U?$pair@QAVCUser@@I@std@@@std@@@std@@@1@V?$_Tree_const_iterator@V?$_Tree_val@U?$_Tree_simple_types@U?$pair@QAVCUser@@I@std@@@std@@@std@@@1@AAU?$pair@QAVCUser@@I@1@PAU?$_Tree_node@U?$pair@QAVCUser@@I@std@@PAX@1@@Z 005cb5f0 f i Npc.obj
 0002:00075d40       ??$_Insert_nohint@AAU?$pair@$$CBGI@std@@PAU?$_Tree_node@U?$pair@$$CBGI@std@@PAX@2@@?$_Tree@V?$_Tmap_traits@GIU?$less@G@std@@V?$allocator@U?$pair@$$CBGI@std@@@2@$0A@@std@@@std@@IAE?AU?$pair@V?$_Tree_iterator@V?$_Tree_val@U?$_Tree_simple_types@U?$pair@$$CBGI@std@@@std@@@std@@@std@@_N@1@_NAAU?$pair@$$CBGI@1@PAU?$_Tree_node@U?$pair@$$CBGI@std@@PAX@1@@Z 005ccd40 f i Npc.obj
 0002:000765b0       ??$_Insert_nohint@AAU?$pair@$$CBGPAVCUser@@@std@@PAU?$_Tree_node@U?$pair@$$CBGPAVCUser@@@std@@PAX@2@@?$_Tree@V?$_Tmap_traits@GPAVCUser@@U?$less@G@std@@V?$allocator@U?$pair@$$CBGPAVCUser@@@std@@@3@$0A@@std@@@std@@IAE?AU?$pair@V?$_Tree_iterator@V?$_Tree_val@U?$_Tree_simple_types@U?$pair@$$CBGPAVCUser@@@std@@@std@@@std@@@std@@_N@1@_NAAU?$pair@$$CBGPAVCUser@@@1@PAU?$_Tree_node@U?$pair@$$CBGPAVCUser@@@std@@PAX@1@@Z 005cd5b0 f i Npc.obj
 0002:00076e20       ??$_Insert_nohint@AAU?$pair@QAVCUser@@I@std@@PAU?$_Tree_node@U?$pair@QAVCUser@@I@std@@PAX@2@@?$_Tree@V?$_Tmap_traits@PAVCUser@@IU?$less@PAVCUser@@@std@@V?$allocator@U?$pair@QAVCUser@@I@std@@@3@$0A@@std@@@std@@IAE?AU?$pair@V?$_Tree_iterator@V?$_Tree_val@U?$_Tree_simple_types@U?$pair@QAVCUser@@I@std@@@std@@@std@@@std@@_N@1@_NAAU?$pair@QAVCUser@@I@1@PAU?$_Tree_node@U?$pair@QAVCUser@@I@std@@PAX@1@@Z 005cde20 f i Npc.obj
 0002:00077690       ??$_Kfn@$$CBGI@?$_Tmap_traits@GIU?$less@G@std@@V?$allocator@U?$pair@$$CBGI@std@@@2@$0A@@std@@SAABGABU?$pair@$$CBGI@1@@Z 005ce690 f i Npc.obj
 0002:000776d0       ??$_Kfn@$$CBGPAVCUser@@@?$_Tmap_traits@GPAVCUser@@U?$less@G@std@@V?$allocator@U?$pair@$$CBGPAVCUser@@@std@@@3@$0A@@std@@SAABGABU?$pair@$$CBGPAVCUser@@@1@@Z 005ce6d0 f i Npc.obj
 0002:00077710       ??$_Kfn@$$CBIPAU_K_MONSTER_ITEM@@@?$_Tmap_traits@IPAU_K_MONSTER_ITEM@@U?$less@I@std@@V?$allocator@U?$pair@$$CBIPAU_K_MONSTER_ITEM@@@std@@@3@$0A@@std@@SAABIABU?$pair@$$CBIPAU_K_MONSTER_ITEM@@@1@@Z 005ce710 f i Npc.obj
 0002:00077750       ??$_Kfn@$$CBIPAU_MAKE_ITEM_GRADE_CODE@@@?$_Tmap_traits@IPAU_MAKE_ITEM_GRADE_CODE@@U?$less@I@std@@V?$allocator@U?$pair@$$CBIPAU_MAKE_ITEM_GRADE_CODE@@@std@@@3@$0A@@std@@SAABIABU?$pair@$$CBIPAU_MAKE_ITEM_GRADE_CODE@@@1@@Z 005ce750 f i Npc.obj
 0002:00077790       ??$_Kfn@$$CBIPAU_MAKE_ITEM_GROUP@@@?$_Tmap_traits@IPAU_MAKE_ITEM_GROUP@@U?$less@I@std@@V?$allocator@U?$pair@$$CBIPAU_MAKE_ITEM_GROUP@@@std@@@3@$0A@@std@@SAABIABU?$pair@$$CBIPAU_MAKE_ITEM_GROUP@@@1@@Z 005ce790 f i Npc.obj
 0002:000777d0       ??$_Kfn@$$CBIPAU_MAKE_ITEM_LARE_CODE@@@?$_Tmap_traits@IPAU_MAKE_ITEM_LARE_CODE@@U?$less@I@std@@V?$allocator@U?$pair@$$CBIPAU_MAKE_ITEM_LARE_CODE@@@std@@@3@$0A@@std@@SAABIABU?$pair@$$CBIPAU_MAKE_ITEM_LARE_CODE@@@1@@Z 005ce7d0 f i Npc.obj
 0002:00077810       ??$_Kfn@$$CBIPAU_MAKE_WEAPON@@@?$_Tmap_traits@IPAU_MAKE_WEAPON@@U?$less@I@std@@V?$allocator@U?$pair@$$CBIPAU_MAKE_WEAPON@@@std@@@3@$0A@@std@@SAABIABU?$pair@$$CBIPAU_MAKE_WEAPON@@@1@@Z 005ce810 f i Npc.obj
 0002:00077850       ??$_Kfn@QAVCUser@@I@?$_Tmap_traits@PAVCUser@@IU?$less@PAVCUser@@@std@@V?$allocator@U?$pair@QAVCUser@@I@std@@@3@$0A@@std@@SAABQAVCUser@@ABU?$pair@QAVCUser@@I@1@@Z 005ce850 f i Npc.obj
 0002:00077890       ??$addressof@PAU?$_Tree_node@U?$pair@$$CBGI@std@@PAX@std@@@std@@YAPAPAU?$_Tree_node@U?$pair@$$CBGI@std@@PAX@0@AAPAU10@@Z 005ce890 f i Npc.obj
 0002:000778d0       ??$addressof@PAU?$_Tree_node@U?$pair@$$CBGPAVCUser@@@std@@PAX@std@@@std@@YAPAPAU?$_Tree_node@U?$pair@$$CBGPAVCUser@@@std@@PAX@0@AAPAU10@@Z 005ce8d0 f i Npc.obj
 0002:00077910       ??$addressof@PAU?$_Tree_node@U?$pair@QAVCUser@@I@std@@PAX@std@@@std@@YAPAPAU?$_Tree_node@U?$pair@QAVCUser@@I@std@@PAX@0@AAPAU10@@Z 005ce910 f i Npc.obj
 0002:00077950       ??$addressof@U?$pair@$$CBGI@std@@@std@@YAPAU?$pair@$$CBGI@0@AAU10@@Z 005ce950 f i Npc.obj
 0002:00077990       ??$addressof@U?$pair@$$CBGPAVCUser@@@std@@@std@@YAPAU?$pair@$$CBGPAVCUser@@@0@AAU10@@Z 005ce990 f i Npc.obj
 0002:000779d0       ??$addressof@U?$pair@$$CBIPAU_K_MONSTER_ITEM@@@std@@@std@@YAPAU?$pair@$$CBIPAU_K_MONSTER_ITEM@@@0@AAU10@@Z 005ce9d0 f i Npc.obj
 0002:00077a10       ??$addressof@U?$pair@$$CBIPAU_MAKE_ITEM_GRADE_CODE@@@std@@@std@@YAPAU?$pair@$$CBIPAU_MAKE_ITEM_GRADE_CODE@@@0@AAU10@@Z 005cea10 f i Npc.obj
 0002:00077a50       ??$addressof@U?$pair@$$CBIPAU_MAKE_ITEM_GROUP@@@std@@@std@@YAPAU?$pair@$$CBIPAU_MAKE_ITEM_GROUP@@@0@AAU10@@Z 005cea50 f i Npc.obj
 0002:00077a90       ??$addressof@U?$pair@$$CBIPAU_MAKE_ITEM_LARE_CODE@@@std@@@std@@YAPAU?$pair@$$CBIPAU_MAKE_ITEM_LARE_CODE@@@0@AAU10@@Z 005cea90 f i Npc.obj
 0002:00077ad0       ??$addressof@U?$pair@$$CBIPAU_MAKE_WEAPON@@@std@@@std@@YAPAU?$pair@$$CBIPAU_MAKE_WEAPON@@@0@AAU10@@Z 005cead0 f i Npc.obj
 0002:00077b10       ??$addressof@U?$pair@QAVCUser@@I@std@@@std@@YAPAU?$pair@QAVCUser@@I@0@AAU10@@Z 005ceb10 f i Npc.obj
 0002:00077b50       ??$append@D@ByteBuffer@@QAEXD@Z 005ceb50 f i Npc.obj
 0002:00077bb0       ??$append@H@ByteBuffer@@QAEXH@Z 005cebb0 f i Npc.obj
 0002:00077c10       ??$append@I@ByteBuffer@@QAEXI@Z 005cec10 f i Npc.obj
 0002:00077c70       ??$append@M@ByteBuffer@@QAEXM@Z 005cec70 f i Npc.obj
 0002:00077cd0       ??$construct@PAU?$_Tree_node@U?$pair@$$CBGI@std@@PAX@std@@AAPAU12@@?$_Wrap_alloc@V?$allocator@U?$_Tree_node@U?$pair@$$CBGI@std@@PAX@std@@@std@@@std@@QAEXPAPAU?$_Tree_node@U?$pair@$$CBGI@std@@PAX@1@AAPAU21@@Z 005cecd0 f i Npc.obj
 0002:00077d40       ??$construct@PAU?$_Tree_node@U?$pair@$$CBGI@std@@PAX@std@@AAPAU12@@?$allocator@U?$_Tree_node@U?$pair@$$CBGI@std@@PAX@std@@@std@@QAEXPAPAU?$_Tree_node@U?$pair@$$CBGI@std@@PAX@1@AAPAU21@@Z 005ced40 f i Npc.obj
 0002:00077e40       ??$construct@PAU?$_Tree_node@U?$pair@$$CBGI@std@@PAX@std@@AAPAU12@@?$allocator_traits@V?$allocator@U?$_Tree_node@U?$pair@$$CBGI@std@@PAX@std@@@std@@@std@@SAXAAV?$allocator@U?$_Tree_node@U?$pair@$$CBGI@std@@PAX@std@@@1@PAPAU?$_Tree_node@U?$pair@$$CBGI@std@@PAX@1@AAPAU31@@Z 005cee40 f i Npc.obj
 0002:00077ea0       ??$construct@PAU?$_Tree_node@U?$pair@$$CBGPAVCUser@@@std@@PAX@std@@AAPAU12@@?$_Wrap_alloc@V?$allocator@U?$_Tree_node@U?$pair@$$CBGPAVCUser@@@std@@PAX@std@@@std@@@std@@QAEXPAPAU?$_Tree_node@U?$pair@$$CBGPAVCUser@@@std@@PAX@1@AAPAU21@@Z 005ceea0 f i Npc.obj
 0002:00077f10       ??$construct@PAU?$_Tree_node@U?$pair@$$CBGPAVCUser@@@std@@PAX@std@@AAPAU12@@?$allocator@U?$_Tree_node@U?$pair@$$CBGPAVCUser@@@std@@PAX@std@@@std@@QAEXPAPAU?$_Tree_node@U?$pair@$$CBGPAVCUser@@@std@@PAX@1@AAPAU21@@Z 005cef10 f i Npc.obj
 0002:00078010       ??$construct@PAU?$_Tree_node@U?$pair@$$CBGPAVCUser@@@std@@PAX@std@@AAPAU12@@?$allocator_traits@V?$allocator@U?$_Tree_node@U?$pair@$$CBGPAVCUser@@@std@@PAX@std@@@std@@@std@@SAXAAV?$allocator@U?$_Tree_node@U?$pair@$$CBGPAVCUser@@@std@@PAX@std@@@1@PAPAU?$_Tree_node@U?$pair@$$CBGPAVCUser@@@std@@PAX@1@AAPAU31@@Z 005cf010 f i Npc.obj
 0002:00078070       ??$construct@PAU?$_Tree_node@U?$pair@QAVCUser@@I@std@@PAX@std@@AAPAU12@@?$_Wrap_alloc@V?$allocator@U?$_Tree_node@U?$pair@QAVCUser@@I@std@@PAX@std@@@std@@@std@@QAEXPAPAU?$_Tree_node@U?$pair@QAVCUser@@I@std@@PAX@1@AAPAU21@@Z 005cf070 f i Npc.obj
 0002:000780e0       ??$construct@PAU?$_Tree_node@U?$pair@QAVCUser@@I@std@@PAX@std@@AAPAU12@@?$allocator@U?$_Tree_node@U?$pair@QAVCUser@@I@std@@PAX@std@@@std@@QAEXPAPAU?$_Tree_node@U?$pair@QAVCUser@@I@std@@PAX@1@AAPAU21@@Z 005cf0e0 f i Npc.obj
 0002:000781e0       ??$construct@PAU?$_Tree_node@U?$pair@QAVCUser@@I@std@@PAX@std@@AAPAU12@@?$allocator_traits@V?$allocator@U?$_Tree_node@U?$pair@QAVCUser@@I@std@@PAX@std@@@std@@@std@@SAXAAV?$allocator@U?$_Tree_node@U?$pair@QAVCUser@@I@std@@PAX@std@@@1@PAPAU?$_Tree_node@U?$pair@QAVCUser@@I@std@@PAX@1@AAPAU31@@Z 005cf1e0 f i Npc.obj
 0002:00078240       ??$construct@U?$pair@$$CBGI@std@@U?$pair@GI@2@@?$_Wrap_alloc@V?$allocator@U?$_Tree_node@U?$pair@$$CBGI@std@@PAX@std@@@std@@@std@@QAEXPAU?$pair@$$CBGI@1@$$QAU?$pair@GI@1@@Z 005cf240 f i Npc.obj
 0002:000782b0       ??$construct@U?$pair@$$CBGI@std@@U?$pair@GI@2@@?$allocator@U?$_Tree_node@U?$pair@$$CBGI@std@@PAX@std@@@std@@QAEXPAU?$pair@$$CBGI@1@$$QAU?$pair@GI@1@@Z 005cf2b0 f i Npc.obj
 0002:000783b0       ??$construct@U?$pair@$$CBGI@std@@U?$pair@GI@2@@?$allocator_traits@V?$allocator@U?$_Tree_node@U?$pair@$$CBGI@std@@PAX@std@@@std@@@std@@SAXAAV?$allocator@U?$_Tree_node@U?$pair@$$CBGI@std@@PAX@std@@@1@PAU?$pair@$$CBGI@1@$$QAU?$pair@GI@1@@Z 005cf3b0 f i Npc.obj
 0002:00078410       ??$construct@U?$pair@$$CBGPAVCUser@@@std@@U?$pair@GPAVCUser@@@2@@?$_Wrap_alloc@V?$allocator@U?$_Tree_node@U?$pair@$$CBGPAVCUser@@@std@@PAX@std@@@std@@@std@@QAEXPAU?$pair@$$CBGPAVCUser@@@1@$$QAU?$pair@GPAVCUser@@@1@@Z 005cf410 f i Npc.obj
 0002:00078480       ??$construct@U?$pair@$$CBGPAVCUser@@@std@@U?$pair@GPAVCUser@@@2@@?$allocator@U?$_Tree_node@U?$pair@$$CBGPAVCUser@@@std@@PAX@std@@@std@@QAEXPAU?$pair@$$CBGPAVCUser@@@1@$$QAU?$pair@GPAVCUser@@@1@@Z 005cf480 f i Npc.obj
 0002:00078580       ??$construct@U?$pair@$$CBGPAVCUser@@@std@@U?$pair@GPAVCUser@@@2@@?$allocator_traits@V?$allocator@U?$_Tree_node@U?$pair@$$CBGPAVCUser@@@std@@PAX@std@@@std@@@std@@SAXAAV?$allocator@U?$_Tree_node@U?$pair@$$CBGPAVCUser@@@std@@PAX@std@@@1@PAU?$pair@$$CBGPAVCUser@@@1@$$QAU?$pair@GPAVCUser@@@1@@Z 005cf580 f i Npc.obj
 0002:000785e0       ??$construct@U?$pair@QAVCUser@@I@std@@U?$pair@PAVCUser@@I@2@@?$_Wrap_alloc@V?$allocator@U?$_Tree_node@U?$pair@QAVCUser@@I@std@@PAX@std@@@std@@@std@@QAEXPAU?$pair@QAVCUser@@I@1@$$QAU?$pair@PAVCUser@@I@1@@Z 005cf5e0 f i Npc.obj
 0002:00078650       ??$construct@U?$pair@QAVCUser@@I@std@@U?$pair@PAVCUser@@I@2@@?$allocator@U?$_Tree_node@U?$pair@QAVCUser@@I@std@@PAX@std@@@std@@QAEXPAU?$pair@QAVCUser@@I@1@$$QAU?$pair@PAVCUser@@I@1@@Z 005cf650 f i Npc.obj
 0002:00078750       ??$construct@U?$pair@QAVCUser@@I@std@@U?$pair@PAVCUser@@I@2@@?$allocator_traits@V?$allocator@U?$_Tree_node@U?$pair@QAVCUser@@I@std@@PAX@std@@@std@@@std@@SAXAAV?$allocator@U?$_Tree_node@U?$pair@QAVCUser@@I@std@@PAX@std@@@1@PAU?$pair@QAVCUser@@I@1@$$QAU?$pair@PAVCUser@@I@1@@Z 005cf750 f i Npc.obj
 0002:000787b0       ??$destroy@PAU?$_Tree_node@U?$pair@$$CBGI@std@@PAX@std@@@?$_Wrap_alloc@V?$allocator@U?$_Tree_node@U?$pair@$$CBGI@std@@PAX@std@@@std@@@std@@QAEXPAPAU?$_Tree_node@U?$pair@$$CBGI@std@@PAX@1@@Z 005cf7b0 f i Npc.obj
 0002:00078810       ??$destroy@PAU?$_Tree_node@U?$pair@$$CBGI@std@@PAX@std@@@?$allocator@U?$_Tree_node@U?$pair@$$CBGI@std@@PAX@std@@@std@@QAEXPAPAU?$_Tree_node@U?$pair@$$CBGI@std@@PAX@1@@Z 005cf810 f i Npc.obj
 0002:00078850       ??$destroy@PAU?$_Tree_node@U?$pair@$$CBGI@std@@PAX@std@@@?$allocator_traits@V?$allocator@U?$_Tree_node@U?$pair@$$CBGI@std@@PAX@std@@@std@@@std@@SAXAAV?$allocator@U?$_Tree_node@U?$pair@$$CBGI@std@@PAX@std@@@1@PAPAU?$_Tree_node@U?$pair@$$CBGI@std@@PAX@1@@Z 005cf850 f i Npc.obj
 0002:000788a0       ??$destroy@PAU?$_Tree_node@U?$pair@$$CBGPAVCUser@@@std@@PAX@std@@@?$_Wrap_alloc@V?$allocator@U?$_Tree_node@U?$pair@$$CBGPAVCUser@@@std@@PAX@std@@@std@@@std@@QAEXPAPAU?$_Tree_node@U?$pair@$$CBGPAVCUser@@@std@@PAX@1@@Z 005cf8a0 f i Npc.obj
 0002:00078900       ??$destroy@PAU?$_Tree_node@U?$pair@$$CBGPAVCUser@@@std@@PAX@std@@@?$allocator@U?$_Tree_node@U?$pair@$$CBGPAVCUser@@@std@@PAX@std@@@std@@QAEXPAPAU?$_Tree_node@U?$pair@$$CBGPAVCUser@@@std@@PAX@1@@Z 005cf900 f i Npc.obj
 0002:00078940       ??$destroy@PAU?$_Tree_node@U?$pair@$$CBGPAVCUser@@@std@@PAX@std@@@?$allocator_traits@V?$allocator@U?$_Tree_node@U?$pair@$$CBGPAVCUser@@@std@@PAX@std@@@std@@@std@@SAXAAV?$allocator@U?$_Tree_node@U?$pair@$$CBGPAVCUser@@@std@@PAX@std@@@1@PAPAU?$_Tree_node@U?$pair@$$CBGPAVCUser@@@std@@PAX@1@@Z 005cf940 f i Npc.obj
 0002:00078990       ??$destroy@PAU?$_Tree_node@U?$pair@QAVCUser@@I@std@@PAX@std@@@?$_Wrap_alloc@V?$allocator@U?$_Tree_node@U?$pair@QAVCUser@@I@std@@PAX@std@@@std@@@std@@QAEXPAPAU?$_Tree_node@U?$pair@QAVCUser@@I@std@@PAX@1@@Z 005cf990 f i Npc.obj
 0002:000789f0       ??$destroy@PAU?$_Tree_node@U?$pair@QAVCUser@@I@std@@PAX@std@@@?$allocator@U?$_Tree_node@U?$pair@QAVCUser@@I@std@@PAX@std@@@std@@QAEXPAPAU?$_Tree_node@U?$pair@QAVCUser@@I@std@@PAX@1@@Z 005cf9f0 f i Npc.obj
 0002:00078a30       ??$destroy@PAU?$_Tree_node@U?$pair@QAVCUser@@I@std@@PAX@std@@@?$allocator_traits@V?$allocator@U?$_Tree_node@U?$pair@QAVCUser@@I@std@@PAX@std@@@std@@@std@@SAXAAV?$allocator@U?$_Tree_node@U?$pair@QAVCUser@@I@std@@PAX@std@@@1@PAPAU?$_Tree_node@U?$pair@QAVCUser@@I@std@@PAX@1@@Z 005cfa30 f i Npc.obj
 0002:00078a80       ??$destroy@U?$pair@$$CBGI@std@@@?$_Wrap_alloc@V?$allocator@U?$_Tree_node@U?$pair@$$CBGI@std@@PAX@std@@@std@@@std@@QAEXPAU?$pair@$$CBGI@1@@Z 005cfa80 f i Npc.obj
 0002:00078ae0       ??$destroy@U?$pair@$$CBGI@std@@@?$allocator@U?$_Tree_node@U?$pair@$$CBGI@std@@PAX@std@@@std@@QAEXPAU?$pair@$$CBGI@1@@Z 005cfae0 f i Npc.obj
 0002:00078b20       ??$destroy@U?$pair@$$CBGI@std@@@?$allocator_traits@V?$allocator@U?$_Tree_node@U?$pair@$$CBGI@std@@PAX@std@@@std@@@std@@SAXAAV?$allocator@U?$_Tree_node@U?$pair@$$CBGI@std@@PAX@std@@@1@PAU?$pair@$$CBGI@1@@Z 005cfb20 f i Npc.obj
 0002:00078b70       ??$destroy@U?$pair@$$CBGPAVCUser@@@std@@@?$_Wrap_alloc@V?$allocator@U?$_Tree_node@U?$pair@$$CBGPAVCUser@@@std@@PAX@std@@@std@@@std@@QAEXPAU?$pair@$$CBGPAVCUser@@@1@@Z 005cfb70 f i Npc.obj
 0002:00078bd0       ??$destroy@U?$pair@$$CBGPAVCUser@@@std@@@?$allocator@U?$_Tree_node@U?$pair@$$CBGPAVCUser@@@std@@PAX@std@@@std@@QAEXPAU?$pair@$$CBGPAVCUser@@@1@@Z 005cfbd0 f i Npc.obj
 0002:00078c10       ??$destroy@U?$pair@$$CBGPAVCUser@@@std@@@?$allocator_traits@V?$allocator@U?$_Tree_node@U?$pair@$$CBGPAVCUser@@@std@@PAX@std@@@std@@@std@@SAXAAV?$allocator@U?$_Tree_node@U?$pair@$$CBGPAVCUser@@@std@@PAX@std@@@1@PAU?$pair@$$CBGPAVCUser@@@1@@Z 005cfc10 f i Npc.obj
 0002:00078c60       ??$destroy@U?$pair@QAVCUser@@I@std@@@?$_Wrap_alloc@V?$allocator@U?$_Tree_node@U?$pair@QAVCUser@@I@std@@PAX@std@@@std@@@std@@QAEXPAU?$pair@QAVCUser@@I@1@@Z 005cfc60 f i Npc.obj
 0002:00078cc0       ??$destroy@U?$pair@QAVCUser@@I@std@@@?$allocator@U?$_Tree_node@U?$pair@QAVCUser@@I@std@@PAX@std@@@std@@QAEXPAU?$pair@QAVCUser@@I@1@@Z 005cfcc0 f i Npc.obj
 0002:00078d00       ??$destroy@U?$pair@QAVCUser@@I@std@@@?$allocator_traits@V?$allocator@U?$_Tree_node@U?$pair@QAVCUser@@I@std@@PAX@std@@@std@@@std@@SAXAAV?$allocator@U?$_Tree_node@U?$pair@QAVCUser@@I@std@@PAX@std@@@1@PAU?$pair@QAVCUser@@I@1@@Z 005cfd00 f i Npc.obj
 0002:00078d50       ??$forward@AAPAU?$_Tree_node@U?$pair@$$CBGI@std@@PAX@std@@@std@@YAAAPAU?$_Tree_node@U?$pair@$$CBGI@std@@PAX@0@AAPAU10@@Z 005cfd50 f i Npc.obj
 0002:00078d90       ??$forward@AAPAU?$_Tree_node@U?$pair@$$CBGPAVCUser@@@std@@PAX@std@@@std@@YAAAPAU?$_Tree_node@U?$pair@$$CBGPAVCUser@@@std@@PAX@0@AAPAU10@@Z 005cfd90 f i Npc.obj
 0002:00078dd0       ??$forward@AAPAU?$_Tree_node@U?$pair@QAVCUser@@I@std@@PAX@std@@@std@@YAAAPAU?$_Tree_node@U?$pair@QAVCUser@@I@std@@PAX@0@AAPAU10@@Z 005cfdd0 f i Npc.obj
 0002:00078e10       ??$forward@AAPAVCUser@@@std@@YAAAPAVCUser@@AAPAV1@@Z 005cfe10 f i Npc.obj
 0002:00078e50       ??$forward@AAU?$pair@$$CBGI@std@@@std@@YAAAU?$pair@$$CBGI@0@AAU10@@Z 005cfe50 f i Npc.obj
 0002:00078e90       ??$forward@AAU?$pair@$$CBGPAVCUser@@@std@@@std@@YAAAU?$pair@$$CBGPAVCUser@@@0@AAU10@@Z 005cfe90 f i Npc.obj
 0002:00078ed0       ??$forward@AAU?$pair@QAVCUser@@I@std@@@std@@YAAAU?$pair@QAVCUser@@I@0@AAU10@@Z 005cfed0 f i Npc.obj
 0002:00078f10       ??$forward@AAV?$_Tree_iterator@V?$_Tree_val@U?$_Tree_simple_types@U?$pair@$$CBGI@std@@@std@@@std@@@std@@@std@@YAAAV?$_Tree_iterator@V?$_Tree_val@U?$_Tree_simple_types@U?$pair@$$CBGI@std@@@std@@@std@@@0@AAV10@@Z 005cff10 f i Npc.obj
 0002:00078f50       ??$forward@AAV?$_Tree_iterator@V?$_Tree_val@U?$_Tree_simple_types@U?$pair@$$CBGPAVCUser@@@std@@@std@@@std@@@std@@@std@@YAAAV?$_Tree_iterator@V?$_Tree_val@U?$_Tree_simple_types@U?$pair@$$CBGPAVCUser@@@std@@@std@@@std@@@0@AAV10@@Z 005cff50 f i Npc.obj
 0002:00078f90       ??$forward@AAV?$_Tree_iterator@V?$_Tree_val@U?$_Tree_simple_types@U?$pair@QAVCUser@@I@std@@@std@@@std@@@std@@@std@@YAAAV?$_Tree_iterator@V?$_Tree_val@U?$_Tree_simple_types@U?$pair@QAVCUser@@I@std@@@std@@@std@@@0@AAV10@@Z 005cff90 f i Npc.obj
 0002:00078fd0       ??$forward@ABQAVCUser@@@std@@YAABQAVCUser@@ABQAV1@@Z 005cffd0 f i Npc.obj
 0002:00079010       ??$forward@G@std@@YA$$QAGAAG@Z 005d0010 f i Npc.obj
 0002:00079050       ??$forward@PAVCUser@@@std@@YA$$QAPAVCUser@@AAPAV1@@Z 005d0050 f i Npc.obj
 0002:00079090       ??$forward@U?$pair@GI@std@@@std@@YA$$QAU?$pair@GI@0@AAU10@@Z 005d0090 f i Npc.obj
 0002:000790d0       ??$forward@U?$pair@GPAVCUser@@@std@@@std@@YA$$QAU?$pair@GPAVCUser@@@0@AAU10@@Z 005d00d0 f i Npc.obj
 0002:00079110       ??$forward@U?$pair@PAVCUser@@I@std@@@std@@YA$$QAU?$pair@PAVCUser@@I@0@AAU10@@Z 005d0110 f i Npc.obj
 0002:00079150       ??$forward@V?$_Tree_iterator@V?$_Tree_val@U?$_Tree_simple_types@U?$pair@$$CBGI@std@@@std@@@std@@@std@@@std@@YA$$QAV?$_Tree_iterator@V?$_Tree_val@U?$_Tree_simple_types@U?$pair@$$CBGI@std@@@std@@@std@@@0@AAV10@@Z 005d0150 f i Npc.obj
 0002:00079190       ??$forward@V?$_Tree_iterator@V?$_Tree_val@U?$_Tree_simple_types@U?$pair@$$CBGPAVCUser@@@std@@@std@@@std@@@std@@@std@@YA$$QAV?$_Tree_iterator@V?$_Tree_val@U?$_Tree_simple_types@U?$pair@$$CBGPAVCUser@@@std@@@std@@@std@@@0@AAV10@@Z 005d0190 f i Npc.obj
 0002:000791d0       ??$forward@V?$_Tree_iterator@V?$_Tree_val@U?$_Tree_simple_types@U?$pair@QAVCUser@@I@std@@@std@@@std@@@std@@@std@@YA$$QAV?$_Tree_iterator@V?$_Tree_val@U?$_Tree_simple_types@U?$pair@QAVCUser@@I@std@@@std@@@std@@@0@AAV10@@Z 005d01d0 f i Npc.obj
 0002:00079210       ??$insert@U?$pair@GI@std@@@?$_Tree@V?$_Tmap_traits@GIU?$less@G@std@@V?$allocator@U?$pair@$$CBGI@std@@@2@$0A@@std@@@std@@QAE?AV?$_Tree_iterator@V?$_Tree_val@U?$_Tree_simple_types@U?$pair@$$CBGI@std@@@std@@@std@@@1@V?$_Tree_const_iterator@V?$_Tree_val@U?$_Tree_simple_types@U?$pair@$$CBGI@std@@@std@@@std@@@1@$$QAU?$pair@GI@1@@Z 005d0210 f i Npc.obj
 0002:00079340       ??$insert@U?$pair@GPAVCUser@@@std@@@?$_Tree@V?$_Tmap_traits@GPAVCUser@@U?$less@G@std@@V?$allocator@U?$pair@$$CBGPAVCUser@@@std@@@3@$0A@@std@@@std@@QAE?AU?$pair@V?$_Tree_iterator@V?$_Tree_val@U?$_Tree_simple_types@U?$pair@$$CBGPAVCUser@@@std@@@std@@@std@@@std@@_N@1@$$QAU?$pair@GPAVCUser@@@1@@Z 005d0340 f i Npc.obj
 0002:00079480       ??$insert@U?$pair@PAVCUser@@I@std@@@?$_Tree@V?$_Tmap_traits@PAVCUser@@IU?$less@PAVCUser@@@std@@V?$allocator@U?$pair@QAVCUser@@I@std@@@3@$0A@@std@@@std@@QAE?AV?$_Tree_iterator@V?$_Tree_val@U?$_Tree_simple_types@U?$pair@QAVCUser@@I@std@@@std@@@std@@@1@V?$_Tree_const_iterator@V?$_Tree_val@U?$_Tree_simple_types@U?$pair@QAVCUser@@I@std@@@std@@@std@@@1@$$QAU?$pair@PAVCUser@@I@1@@Z 005d0480 f i Npc.obj
 0002:000795b0       ??$make_pair@GAAPAVCUser@@@std@@YA?AU?$pair@GPAVCUser@@@0@$$QAGAAPAVCUser@@@Z 005d05b0 f i Npc.obj
 0002:00079650       ??$move@AAG@std@@YA$$QAGAAG@Z 005d0650 f i Npc.obj
 0002:00079690       ??0?$_Iterator012@Ubidirectional_iterator_tag@std@@U?$pair@$$CBGI@2@HPBU32@ABU32@U_Iterator_base12@2@@std@@QAE@ABU01@@Z 005d0690 f i Npc.obj
 0002:000796f0       ??0?$_Iterator012@Ubidirectional_iterator_tag@std@@U?$pair@$$CBGI@2@HPBU32@ABU32@U_Iterator_base12@2@@std@@QAE@XZ 005d06f0 f i Npc.obj
 0002:00079750       ??0?$_Iterator012@Ubidirectional_iterator_tag@std@@U?$pair@$$CBGPAVCUser@@@2@HPBU32@ABU32@U_Iterator_base12@2@@std@@QAE@ABU01@@Z 005d0750 f i Npc.obj
 0002:000797b0       ??0?$_Iterator012@Ubidirectional_iterator_tag@std@@U?$pair@$$CBGPAVCUser@@@2@HPBU32@ABU32@U_Iterator_base12@2@@std@@QAE@XZ 005d07b0 f i Npc.obj
 0002:00079810       ??0?$_Iterator012@Ubidirectional_iterator_tag@std@@U?$pair@$$CBIPAU_K_MONSTER_ITEM@@@2@HPBU32@ABU32@U_Iterator_base12@2@@std@@QAE@ABU01@@Z 005d0810 f i Npc.obj
 0002:00079870       ??0?$_Iterator012@Ubidirectional_iterator_tag@std@@U?$pair@$$CBIPAU_K_MONSTER_ITEM@@@2@HPBU32@ABU32@U_Iterator_base12@2@@std@@QAE@XZ 005d0870 f i Npc.obj
 0002:000798d0       ??0?$_Iterator012@Ubidirectional_iterator_tag@std@@U?$pair@$$CBIPAU_MAKE_ITEM_GRADE_CODE@@@2@HPBU32@ABU32@U_Iterator_base12@2@@std@@QAE@ABU01@@Z 005d08d0 f i Npc.obj
 0002:00079930       ??0?$_Iterator012@Ubidirectional_iterator_tag@std@@U?$pair@$$CBIPAU_MAKE_ITEM_GRADE_CODE@@@2@HPBU32@ABU32@U_Iterator_base12@2@@std@@QAE@XZ 005d0930 f i Npc.obj
 0002:00079990       ??0?$_Iterator012@Ubidirectional_iterator_tag@std@@U?$pair@$$CBIPAU_MAKE_ITEM_GROUP@@@2@HPBU32@ABU32@U_Iterator_base12@2@@std@@QAE@ABU01@@Z 005d0990 f i Npc.obj
 0002:000799f0       ??0?$_Iterator012@Ubidirectional_iterator_tag@std@@U?$pair@$$CBIPAU_MAKE_ITEM_GROUP@@@2@HPBU32@ABU32@U_Iterator_base12@2@@std@@QAE@XZ 005d09f0 f i Npc.obj
 0002:00079a50       ??0?$_Iterator012@Ubidirectional_iterator_tag@std@@U?$pair@$$CBIPAU_MAKE_ITEM_LARE_CODE@@@2@HPBU32@ABU32@U_Iterator_base12@2@@std@@QAE@ABU01@@Z 005d0a50 f i Npc.obj
 0002:00079ab0       ??0?$_Iterator012@Ubidirectional_iterator_tag@std@@U?$pair@$$CBIPAU_MAKE_ITEM_LARE_CODE@@@2@HPBU32@ABU32@U_Iterator_base12@2@@std@@QAE@XZ 005d0ab0 f i Npc.obj
 0002:00079b10       ??0?$_Iterator012@Ubidirectional_iterator_tag@std@@U?$pair@$$CBIPAU_MAKE_WEAPON@@@2@HPBU32@ABU32@U_Iterator_base12@2@@std@@QAE@ABU01@@Z 005d0b10 f i Npc.obj
 0002:00079b70       ??0?$_Iterator012@Ubidirectional_iterator_tag@std@@U?$pair@$$CBIPAU_MAKE_WEAPON@@@2@HPBU32@ABU32@U_Iterator_base12@2@@std@@QAE@XZ 005d0b70 f i Npc.obj
 0002:00079bd0       ??0?$_Iterator012@Ubidirectional_iterator_tag@std@@U?$pair@QAVCUser@@I@2@HPBU32@ABU32@U_Iterator_base12@2@@std@@QAE@ABU01@@Z 005d0bd0 f i Npc.obj
 0002:00079c30       ??0?$_Iterator012@Ubidirectional_iterator_tag@std@@U?$pair@QAVCUser@@I@2@HPBU32@ABU32@U_Iterator_base12@2@@std@@QAE@XZ 005d0c30 f i Npc.obj
 0002:00079c90       ??0?$_Tree@V?$_Tmap_traits@GIU?$less@G@std@@V?$allocator@U?$pair@$$CBGI@std@@@2@$0A@@std@@@std@@QAE@ABU?$less@G@1@ABV?$allocator@U?$pair@$$CBGI@std@@@1@@Z 005d0c90 f i Npc.obj
 0002:00079cf0       ??0?$_Tree@V?$_Tmap_traits@GPAVCUser@@U?$less@G@std@@V?$allocator@U?$pair@$$CBGPAVCUser@@@std@@@3@$0A@@std@@@std@@QAE@ABU?$less@G@1@ABV?$allocator@U?$pair@$$CBGPAVCUser@@@std@@@1@@Z 005d0cf0 f i Npc.obj
 0002:00079d50       ??0?$_Tree@V?$_Tmap_traits@PAVCUser@@IU?$less@PAVCUser@@@std@@V?$allocator@U?$pair@QAVCUser@@I@std@@@3@$0A@@std@@@std@@QAE@ABU?$less@PAVCUser@@@1@ABV?$allocator@U?$pair@QAVCUser@@I@std@@@1@@Z 005d0d50 f i Npc.obj
 0002:00079db0       ??0?$_Tree_alloc@$0A@U?$_Tree_base_types@U?$pair@$$CBGI@std@@V?$allocator@U?$pair@$$CBGI@std@@@2@@std@@@std@@QAE@ABV?$allocator@U?$pair@$$CBGI@std@@@1@@Z 005d0db0 f i Npc.obj
 0002:00079eb0       ??0?$_Tree_alloc@$0A@U?$_Tree_base_types@U?$pair@$$CBGPAVCUser@@@std@@V?$allocator@U?$pair@$$CBGPAVCUser@@@std@@@2@@std@@@std@@QAE@ABV?$allocator@U?$pair@$$CBGPAVCUser@@@std@@@1@@Z 005d0eb0 f i Npc.obj
 0002:00079fb0       ??0?$_Tree_alloc@$0A@U?$_Tree_base_types@U?$pair@QAVCUser@@I@std@@V?$allocator@U?$pair@QAVCUser@@I@std@@@2@@std@@@std@@QAE@ABV?$allocator@U?$pair@QAVCUser@@I@std@@@1@@Z 005d0fb0 f i Npc.obj
 0002:0007a0b0       ??0?$_Tree_buy@U?$pair@$$CBGI@std@@V?$allocator@U?$pair@$$CBGI@std@@@2@@std@@QAE@ABV?$allocator@U?$pair@$$CBGI@std@@@1@@Z 005d10b0 f i Npc.obj
 0002:0007a110       ??0?$_Tree_buy@U?$pair@$$CBGPAVCUser@@@std@@V?$allocator@U?$pair@$$CBGPAVCUser@@@std@@@2@@std@@QAE@ABV?$allocator@U?$pair@$$CBGPAVCUser@@@std@@@1@@Z 005d1110 f i Npc.obj
 0002:0007a170       ??0?$_Tree_buy@U?$pair@QAVCUser@@I@std@@V?$allocator@U?$pair@QAVCUser@@I@std@@@2@@std@@QAE@ABV?$allocator@U?$pair@QAVCUser@@I@std@@@1@@Z 005d1170 f i Npc.obj
 0002:0007a1d0       ??0?$_Tree_comp@$0A@V?$_Tmap_traits@GIU?$less@G@std@@V?$allocator@U?$pair@$$CBGI@std@@@2@$0A@@std@@@std@@QAE@ABU?$less@G@1@ABV?$allocator@U?$pair@$$CBGI@std@@@1@@Z 005d11d0 f i Npc.obj
 0002:0007a230       ??0?$_Tree_comp@$0A@V?$_Tmap_traits@GPAVCUser@@U?$less@G@std@@V?$allocator@U?$pair@$$CBGPAVCUser@@@std@@@3@$0A@@std@@@std@@QAE@ABU?$less@G@1@ABV?$allocator@U?$pair@$$CBGPAVCUser@@@std@@@1@@Z 005d1230 f i Npc.obj
 0002:0007a290       ??0?$_Tree_comp@$0A@V?$_Tmap_traits@PAVCUser@@IU?$less@PAVCUser@@@std@@V?$allocator@U?$pair@QAVCUser@@I@std@@@3@$0A@@std@@@std@@QAE@ABU?$less@PAVCUser@@@1@ABV?$allocator@U?$pair@QAVCUser@@I@std@@@1@@Z 005d1290 f i Npc.obj
 0002:0007a2f0       ??0?$_Tree_const_iterator@V?$_Tree_val@U?$_Tree_simple_types@U?$pair@$$CBGI@std@@@std@@@std@@@std@@QAE@ABV01@@Z 005d12f0 f i Npc.obj
 0002:0007a350       ??0?$_Tree_const_iterator@V?$_Tree_val@U?$_Tree_simple_types@U?$pair@$$CBGI@std@@@std@@@std@@@std@@QAE@PAU?$_Tree_node@U?$pair@$$CBGI@std@@PAX@1@PBV?$_Tree_val@U?$_Tree_simple_types@U?$pair@$$CBGI@std@@@std@@@1@@Z 005d1350 f i Npc.obj
 0002:0007a3b0       ??0?$_Tree_const_iterator@V?$_Tree_val@U?$_Tree_simple_types@U?$pair@$$CBGI@std@@@std@@@std@@@std@@QAE@XZ 005d13b0 f i Npc.obj
 0002:0007a410       ??0?$_Tree_const_iterator@V?$_Tree_val@U?$_Tree_simple_types@U?$pair@$$CBGPAVCUser@@@std@@@std@@@std@@@std@@QAE@ABV01@@Z 005d1410 f i Npc.obj
 0002:0007a470       ??0?$_Tree_const_iterator@V?$_Tree_val@U?$_Tree_simple_types@U?$pair@$$CBGPAVCUser@@@std@@@std@@@std@@@std@@QAE@PAU?$_Tree_node@U?$pair@$$CBGPAVCUser@@@std@@PAX@1@PBV?$_Tree_val@U?$_Tree_simple_types@U?$pair@$$CBGPAVCUser@@@std@@@std@@@1@@Z 005d1470 f i Npc.obj
 0002:0007a4d0       ??0?$_Tree_const_iterator@V?$_Tree_val@U?$_Tree_simple_types@U?$pair@$$CBIPAU_K_MONSTER_ITEM@@@std@@@std@@@std@@@std@@QAE@ABV01@@Z 005d14d0 f i Npc.obj
 0002:0007a530       ??0?$_Tree_const_iterator@V?$_Tree_val@U?$_Tree_simple_types@U?$pair@$$CBIPAU_K_MONSTER_ITEM@@@std@@@std@@@std@@@std@@QAE@PAU?$_Tree_node@U?$pair@$$CBIPAU_K_MONSTER_ITEM@@@std@@PAX@1@PBV?$_Tree_val@U?$_Tree_simple_types@U?$pair@$$CBIPAU_K_MONSTER_ITEM@@@std@@@std@@@1@@Z 005d1530 f i Npc.obj
 0002:0007a590       ??0?$_Tree_const_iterator@V?$_Tree_val@U?$_Tree_simple_types@U?$pair@$$CBIPAU_MAKE_ITEM_GRADE_CODE@@@std@@@std@@@std@@@std@@QAE@ABV01@@Z 005d1590 f i Npc.obj
 0002:0007a5f0       ??0?$_Tree_const_iterator@V?$_Tree_val@U?$_Tree_simple_types@U?$pair@$$CBIPAU_MAKE_ITEM_GRADE_CODE@@@std@@@std@@@std@@@std@@QAE@PAU?$_Tree_node@U?$pair@$$CBIPAU_MAKE_ITEM_GRADE_CODE@@@std@@PAX@1@PBV?$_Tree_val@U?$_Tree_simple_types@U?$pair@$$CBIPAU_MAKE_ITEM_GRADE_CODE@@@std@@@std@@@1@@Z 005d15f0 f i Npc.obj
 0002:0007a650       ??0?$_Tree_const_iterator@V?$_Tree_val@U?$_Tree_simple_types@U?$pair@$$CBIPAU_MAKE_ITEM_GROUP@@@std@@@std@@@std@@@std@@QAE@ABV01@@Z 005d1650 f i Npc.obj
 0002:0007a6b0       ??0?$_Tree_const_iterator@V?$_Tree_val@U?$_Tree_simple_types@U?$pair@$$CBIPAU_MAKE_ITEM_GROUP@@@std@@@std@@@std@@@std@@QAE@PAU?$_Tree_node@U?$pair@$$CBIPAU_MAKE_ITEM_GROUP@@@std@@PAX@1@PBV?$_Tree_val@U?$_Tree_simple_types@U?$pair@$$CBIPAU_MAKE_ITEM_GROUP@@@std@@@std@@@1@@Z 005d16b0 f i Npc.obj
 0002:0007a710       ??0?$_Tree_const_iterator@V?$_Tree_val@U?$_Tree_simple_types@U?$pair@$$CBIPAU_MAKE_ITEM_LARE_CODE@@@std@@@std@@@std@@@std@@QAE@ABV01@@Z 005d1710 f i Npc.obj
 0002:0007a770       ??0?$_Tree_const_iterator@V?$_Tree_val@U?$_Tree_simple_types@U?$pair@$$CBIPAU_MAKE_ITEM_LARE_CODE@@@std@@@std@@@std@@@std@@QAE@PAU?$_Tree_node@U?$pair@$$CBIPAU_MAKE_ITEM_LARE_CODE@@@std@@PAX@1@PBV?$_Tree_val@U?$_Tree_simple_types@U?$pair@$$CBIPAU_MAKE_ITEM_LARE_CODE@@@std@@@std@@@1@@Z 005d1770 f i Npc.obj
 0002:0007a7d0       ??0?$_Tree_const_iterator@V?$_Tree_val@U?$_Tree_simple_types@U?$pair@$$CBIPAU_MAKE_WEAPON@@@std@@@std@@@std@@@std@@QAE@ABV01@@Z 005d17d0 f i Npc.obj
 0002:0007a830       ??0?$_Tree_const_iterator@V?$_Tree_val@U?$_Tree_simple_types@U?$pair@$$CBIPAU_MAKE_WEAPON@@@std@@@std@@@std@@@std@@QAE@PAU?$_Tree_node@U?$pair@$$CBIPAU_MAKE_WEAPON@@@std@@PAX@1@PBV?$_Tree_val@U?$_Tree_simple_types@U?$pair@$$CBIPAU_MAKE_WEAPON@@@std@@@std@@@1@@Z 005d1830 f i Npc.obj
 0002:0007a890       ??0?$_Tree_const_iterator@V?$_Tree_val@U?$_Tree_simple_types@U?$pair@QAVCUser@@I@std@@@std@@@std@@@std@@QAE@ABV01@@Z 005d1890 f i Npc.obj
 0002:0007a8f0       ??0?$_Tree_const_iterator@V?$_Tree_val@U?$_Tree_simple_types@U?$pair@QAVCUser@@I@std@@@std@@@std@@@std@@QAE@PAU?$_Tree_node@U?$pair@QAVCUser@@I@std@@PAX@1@PBV?$_Tree_val@U?$_Tree_simple_types@U?$pair@QAVCUser@@I@std@@@std@@@1@@Z 005d18f0 f i Npc.obj
 0002:0007a950       ??0?$_Tree_const_iterator@V?$_Tree_val@U?$_Tree_simple_types@U?$pair@QAVCUser@@I@std@@@std@@@std@@@std@@QAE@XZ 005d1950 f i Npc.obj
 0002:0007a9b0       ??0?$_Tree_iterator@V?$_Tree_val@U?$_Tree_simple_types@U?$pair@$$CBGI@std@@@std@@@std@@@std@@QAE@ABV01@@Z 005d19b0 f i Npc.obj
 0002:0007aa10       ??0?$_Tree_iterator@V?$_Tree_val@U?$_Tree_simple_types@U?$pair@$$CBGI@std@@@std@@@std@@@std@@QAE@PAU?$_Tree_node@U?$pair@$$CBGI@std@@PAX@1@PBV?$_Tree_val@U?$_Tree_simple_types@U?$pair@$$CBGI@std@@@std@@@1@@Z 005d1a10 f i Npc.obj
 0002:0007aa70       ??0?$_Tree_iterator@V?$_Tree_val@U?$_Tree_simple_types@U?$pair@$$CBGPAVCUser@@@std@@@std@@@std@@@std@@QAE@ABV01@@Z 005d1a70 f i Npc.obj
 0002:0007aad0       ??0?$_Tree_iterator@V?$_Tree_val@U?$_Tree_simple_types@U?$pair@$$CBGPAVCUser@@@std@@@std@@@std@@@std@@QAE@PAU?$_Tree_node@U?$pair@$$CBGPAVCUser@@@std@@PAX@1@PBV?$_Tree_val@U?$_Tree_simple_types@U?$pair@$$CBGPAVCUser@@@std@@@std@@@1@@Z 005d1ad0 f i Npc.obj
 0002:0007ab30       ??0?$_Tree_iterator@V?$_Tree_val@U?$_Tree_simple_types@U?$pair@$$CBIPAU_K_MONSTER_ITEM@@@std@@@std@@@std@@@std@@QAE@ABV01@@Z 005d1b30 f i Npc.obj
 0002:0007ab90       ??0?$_Tree_iterator@V?$_Tree_val@U?$_Tree_simple_types@U?$pair@$$CBIPAU_K_MONSTER_ITEM@@@std@@@std@@@std@@@std@@QAE@PAU?$_Tree_node@U?$pair@$$CBIPAU_K_MONSTER_ITEM@@@std@@PAX@1@PBV?$_Tree_val@U?$_Tree_simple_types@U?$pair@$$CBIPAU_K_MONSTER_ITEM@@@std@@@std@@@1@@Z 005d1b90 f i Npc.obj
 0002:0007abf0       ??0?$_Tree_iterator@V?$_Tree_val@U?$_Tree_simple_types@U?$pair@$$CBIPAU_MAKE_ITEM_GRADE_CODE@@@std@@@std@@@std@@@std@@QAE@ABV01@@Z 005d1bf0 f i Npc.obj
 0002:0007ac50       ??0?$_Tree_iterator@V?$_Tree_val@U?$_Tree_simple_types@U?$pair@$$CBIPAU_MAKE_ITEM_GRADE_CODE@@@std@@@std@@@std@@@std@@QAE@PAU?$_Tree_node@U?$pair@$$CBIPAU_MAKE_ITEM_GRADE_CODE@@@std@@PAX@1@PBV?$_Tree_val@U?$_Tree_simple_types@U?$pair@$$CBIPAU_MAKE_ITEM_GRADE_CODE@@@std@@@std@@@1@@Z 005d1c50 f i Npc.obj
 0002:0007acb0       ??0?$_Tree_iterator@V?$_Tree_val@U?$_Tree_simple_types@U?$pair@$$CBIPAU_MAKE_ITEM_GROUP@@@std@@@std@@@std@@@std@@QAE@ABV01@@Z 005d1cb0 f i Npc.obj
 0002:0007ad10       ??0?$_Tree_iterator@V?$_Tree_val@U?$_Tree_simple_types@U?$pair@$$CBIPAU_MAKE_ITEM_GROUP@@@std@@@std@@@std@@@std@@QAE@PAU?$_Tree_node@U?$pair@$$CBIPAU_MAKE_ITEM_GROUP@@@std@@PAX@1@PBV?$_Tree_val@U?$_Tree_simple_types@U?$pair@$$CBIPAU_MAKE_ITEM_GROUP@@@std@@@std@@@1@@Z 005d1d10 f i Npc.obj
 0002:0007ad70       ??0?$_Tree_iterator@V?$_Tree_val@U?$_Tree_simple_types@U?$pair@$$CBIPAU_MAKE_ITEM_LARE_CODE@@@std@@@std@@@std@@@std@@QAE@ABV01@@Z 005d1d70 f i Npc.obj
 0002:0007add0       ??0?$_Tree_iterator@V?$_Tree_val@U?$_Tree_simple_types@U?$pair@$$CBIPAU_MAKE_ITEM_LARE_CODE@@@std@@@std@@@std@@@std@@QAE@PAU?$_Tree_node@U?$pair@$$CBIPAU_MAKE_ITEM_LARE_CODE@@@std@@PAX@1@PBV?$_Tree_val@U?$_Tree_simple_types@U?$pair@$$CBIPAU_MAKE_ITEM_LARE_CODE@@@std@@@std@@@1@@Z 005d1dd0 f i Npc.obj
 0002:0007ae30       ??0?$_Tree_iterator@V?$_Tree_val@U?$_Tree_simple_types@U?$pair@$$CBIPAU_MAKE_WEAPON@@@std@@@std@@@std@@@std@@QAE@ABV01@@Z 005d1e30 f i Npc.obj
 0002:0007ae90       ??0?$_Tree_iterator@V?$_Tree_val@U?$_Tree_simple_types@U?$pair@$$CBIPAU_MAKE_WEAPON@@@std@@@std@@@std@@@std@@QAE@PAU?$_Tree_node@U?$pair@$$CBIPAU_MAKE_WEAPON@@@std@@PAX@1@PBV?$_Tree_val@U?$_Tree_simple_types@U?$pair@$$CBIPAU_MAKE_WEAPON@@@std@@@std@@@1@@Z 005d1e90 f i Npc.obj
 0002:0007aef0       ??0?$_Tree_iterator@V?$_Tree_val@U?$_Tree_simple_types@U?$pair@QAVCUser@@I@std@@@std@@@std@@@std@@QAE@ABV01@@Z 005d1ef0 f i Npc.obj
 0002:0007af50       ??0?$_Tree_iterator@V?$_Tree_val@U?$_Tree_simple_types@U?$pair@QAVCUser@@I@std@@@std@@@std@@@std@@QAE@PAU?$_Tree_node@U?$pair@QAVCUser@@I@std@@PAX@1@PBV?$_Tree_val@U?$_Tree_simple_types@U?$pair@QAVCUser@@I@std@@@std@@@1@@Z 005d1f50 f i Npc.obj
 0002:0007afb0       ??0?$_Tree_unchecked_const_iterator@V?$_Tree_val@U?$_Tree_simple_types@U?$pair@$$CBGI@std@@@std@@@std@@U_Iterator_base12@2@@std@@QAE@ABV01@@Z 005d1fb0 f i Npc.obj
 0002:0007b020       ??0?$_Tree_unchecked_const_iterator@V?$_Tree_val@U?$_Tree_simple_types@U?$pair@$$CBGI@std@@@std@@@std@@U_Iterator_base12@2@@std@@QAE@PAU?$_Tree_node@U?$pair@$$CBGI@std@@PAX@1@PBV?$_Tree_val@U?$_Tree_simple_types@U?$pair@$$CBGI@std@@@std@@@1@@Z 005d2020 f i Npc.obj
 0002:0007b0e0       ??0?$_Tree_unchecked_const_iterator@V?$_Tree_val@U?$_Tree_simple_types@U?$pair@$$CBGI@std@@@std@@@std@@U_Iterator_base12@2@@std@@QAE@XZ 005d20e0 f i Npc.obj
 0002:0007b140       ??0?$_Tree_unchecked_const_iterator@V?$_Tree_val@U?$_Tree_simple_types@U?$pair@$$CBGPAVCUser@@@std@@@std@@@std@@U_Iterator_base12@2@@std@@QAE@ABV01@@Z 005d2140 f i Npc.obj
 0002:0007b1b0       ??0?$_Tree_unchecked_const_iterator@V?$_Tree_val@U?$_Tree_simple_types@U?$pair@$$CBGPAVCUser@@@std@@@std@@@std@@U_Iterator_base12@2@@std@@QAE@PAU?$_Tree_node@U?$pair@$$CBGPAVCUser@@@std@@PAX@1@PBV?$_Tree_val@U?$_Tree_simple_types@U?$pair@$$CBGPAVCUser@@@std@@@std@@@1@@Z 005d21b0 f i Npc.obj
 0002:0007b270       ??0?$_Tree_unchecked_const_iterator@V?$_Tree_val@U?$_Tree_simple_types@U?$pair@$$CBIPAU_K_MONSTER_ITEM@@@std@@@std@@@std@@U_Iterator_base12@2@@std@@QAE@ABV01@@Z 005d2270 f i Npc.obj
 0002:0007b2e0       ??0?$_Tree_unchecked_const_iterator@V?$_Tree_val@U?$_Tree_simple_types@U?$pair@$$CBIPAU_K_MONSTER_ITEM@@@std@@@std@@@std@@U_Iterator_base12@2@@std@@QAE@PAU?$_Tree_node@U?$pair@$$CBIPAU_K_MONSTER_ITEM@@@std@@PAX@1@PBV?$_Tree_val@U?$_Tree_simple_types@U?$pair@$$CBIPAU_K_MONSTER_ITEM@@@std@@@std@@@1@@Z 005d22e0 f i Npc.obj
 0002:0007b3a0       ??0?$_Tree_unchecked_const_iterator@V?$_Tree_val@U?$_Tree_simple_types@U?$pair@$$CBIPAU_MAKE_ITEM_GRADE_CODE@@@std@@@std@@@std@@U_Iterator_base12@2@@std@@QAE@ABV01@@Z 005d23a0 f i Npc.obj
 0002:0007b410       ??0?$_Tree_unchecked_const_iterator@V?$_Tree_val@U?$_Tree_simple_types@U?$pair@$$CBIPAU_MAKE_ITEM_GRADE_CODE@@@std@@@std@@@std@@U_Iterator_base12@2@@std@@QAE@PAU?$_Tree_node@U?$pair@$$CBIPAU_MAKE_ITEM_GRADE_CODE@@@std@@PAX@1@PBV?$_Tree_val@U?$_Tree_simple_types@U?$pair@$$CBIPAU_MAKE_ITEM_GRADE_CODE@@@std@@@std@@@1@@Z 005d2410 f i Npc.obj
 0002:0007b4d0       ??0?$_Tree_unchecked_const_iterator@V?$_Tree_val@U?$_Tree_simple_types@U?$pair@$$CBIPAU_MAKE_ITEM_GROUP@@@std@@@std@@@std@@U_Iterator_base12@2@@std@@QAE@ABV01@@Z 005d24d0 f i Npc.obj
 0002:0007b540       ??0?$_Tree_unchecked_const_iterator@V?$_Tree_val@U?$_Tree_simple_types@U?$pair@$$CBIPAU_MAKE_ITEM_GROUP@@@std@@@std@@@std@@U_Iterator_base12@2@@std@@QAE@PAU?$_Tree_node@U?$pair@$$CBIPAU_MAKE_ITEM_GROUP@@@std@@PAX@1@PBV?$_Tree_val@U?$_Tree_simple_types@U?$pair@$$CBIPAU_MAKE_ITEM_GROUP@@@std@@@std@@@1@@Z 005d2540 f i Npc.obj
 0002:0007b600       ??0?$_Tree_unchecked_const_iterator@V?$_Tree_val@U?$_Tree_simple_types@U?$pair@$$CBIPAU_MAKE_ITEM_LARE_CODE@@@std@@@std@@@std@@U_Iterator_base12@2@@std@@QAE@ABV01@@Z 005d2600 f i Npc.obj
 0002:0007b670       ??0?$_Tree_unchecked_const_iterator@V?$_Tree_val@U?$_Tree_simple_types@U?$pair@$$CBIPAU_MAKE_ITEM_LARE_CODE@@@std@@@std@@@std@@U_Iterator_base12@2@@std@@QAE@PAU?$_Tree_node@U?$pair@$$CBIPAU_MAKE_ITEM_LARE_CODE@@@std@@PAX@1@PBV?$_Tree_val@U?$_Tree_simple_types@U?$pair@$$CBIPAU_MAKE_ITEM_LARE_CODE@@@std@@@std@@@1@@Z 005d2670 f i Npc.obj
 0002:0007b730       ??0?$_Tree_unchecked_const_iterator@V?$_Tree_val@U?$_Tree_simple_types@U?$pair@$$CBIPAU_MAKE_WEAPON@@@std@@@std@@@std@@U_Iterator_base12@2@@std@@QAE@ABV01@@Z 005d2730 f i Npc.obj
 0002:0007b7a0       ??0?$_Tree_unchecked_const_iterator@V?$_Tree_val@U?$_Tree_simple_types@U?$pair@$$CBIPAU_MAKE_WEAPON@@@std@@@std@@@std@@U_Iterator_base12@2@@std@@QAE@PAU?$_Tree_node@U?$pair@$$CBIPAU_MAKE_WEAPON@@@std@@PAX@1@PBV?$_Tree_val@U?$_Tree_simple_types@U?$pair@$$CBIPAU_MAKE_WEAPON@@@std@@@std@@@1@@Z 005d27a0 f i Npc.obj
 0002:0007b860       ??0?$_Tree_unchecked_const_iterator@V?$_Tree_val@U?$_Tree_simple_types@U?$pair@QAVCUser@@I@std@@@std@@@std@@U_Iterator_base12@2@@std@@QAE@ABV01@@Z 005d2860 f i Npc.obj
 0002:0007b8d0       ??0?$_Tree_unchecked_const_iterator@V?$_Tree_val@U?$_Tree_simple_types@U?$pair@QAVCUser@@I@std@@@std@@@std@@U_Iterator_base12@2@@std@@QAE@PAU?$_Tree_node@U?$pair@QAVCUser@@I@std@@PAX@1@PBV?$_Tree_val@U?$_Tree_simple_types@U?$pair@QAVCUser@@I@std@@@std@@@1@@Z 005d28d0 f i Npc.obj
 0002:0007b990       ??0?$_Tree_unchecked_const_iterator@V?$_Tree_val@U?$_Tree_simple_types@U?$pair@QAVCUser@@I@std@@@std@@@std@@U_Iterator_base12@2@@std@@QAE@XZ 005d2990 f i Npc.obj
 0002:0007b9f0       ??0?$_Tree_val@U?$_Tree_simple_types@U?$pair@$$CBGI@std@@@std@@@std@@QAE@XZ 005d29f0 f i Npc.obj
 0002:0007ba60       ??0?$_Tree_val@U?$_Tree_simple_types@U?$pair@$$CBGPAVCUser@@@std@@@std@@@std@@QAE@XZ 005d2a60 f i Npc.obj
 0002:0007bad0       ??0?$_Tree_val@U?$_Tree_simple_types@U?$pair@QAVCUser@@I@std@@@std@@@std@@QAE@XZ 005d2ad0 f i Npc.obj
 0002:0007bb40       ??0?$_Wrap_alloc@V?$allocator@U?$_Tree_node@U?$pair@$$CBGI@std@@PAX@std@@@std@@@std@@QAE@XZ 005d2b40 f i Npc.obj
 0002:0007bba0       ??0?$_Wrap_alloc@V?$allocator@U?$_Tree_node@U?$pair@$$CBGPAVCUser@@@std@@PAX@std@@@std@@@std@@QAE@XZ 005d2ba0 f i Npc.obj
 0002:0007bc00       ??0?$_Wrap_alloc@V?$allocator@U?$_Tree_node@U?$pair@QAVCUser@@I@std@@PAX@std@@@std@@@std@@QAE@XZ 005d2c00 f i Npc.obj
 0002:0007bc60       ??0?$allocator@U?$_Tree_node@U?$pair@$$CBGI@std@@PAX@std@@@std@@QAE@XZ 005d2c60 f i Npc.obj
 0002:0007bca0       ??0?$allocator@U?$_Tree_node@U?$pair@$$CBGPAVCUser@@@std@@PAX@std@@@std@@QAE@XZ 005d2ca0 f i Npc.obj
 0002:0007bce0       ??0?$allocator@U?$_Tree_node@U?$pair@QAVCUser@@I@std@@PAX@std@@@std@@QAE@XZ 005d2ce0 f i Npc.obj
 0002:0007bd20       ??0?$allocator@U?$pair@$$CBGI@std@@@std@@QAE@XZ 005d2d20 f i Npc.obj
 0002:0007bd60       ??0?$allocator@U?$pair@$$CBGPAVCUser@@@std@@@std@@QAE@XZ 005d2d60 f i Npc.obj
 0002:0007bda0       ??0?$allocator@U?$pair@QAVCUser@@I@std@@@std@@QAE@XZ 005d2da0 f i Npc.obj
 0002:0007bde0       ??0?$map@GIU?$less@G@std@@V?$allocator@U?$pair@$$CBGI@std@@@2@@std@@QAE@XZ 005d2de0 f i Npc.obj
 0002:0007be50       ??0?$map@GPAVCUser@@U?$less@G@std@@V?$allocator@U?$pair@$$CBGPAVCUser@@@std@@@3@@std@@QAE@XZ 005d2e50 f i Npc.obj
 0002:0007bec0       ??0?$map@PAVCUser@@IU?$less@PAVCUser@@@std@@V?$allocator@U?$pair@QAVCUser@@I@std@@@3@@std@@QAE@XZ 005d2ec0 f i Npc.obj
 0002:0007bf30       ??0CNpc@@QAE@XZ            005d2f30 f   Npc.obj
 0002:0007c370       ??0CPoint@@QAE@XZ          005d3370 f i Npc.obj
 0002:0007c3b0       ??0__Matrix44@@QAE@XZ      005d33b0 f i Npc.obj
 0002:0007c3f0       ??1?$_Iterator012@Ubidirectional_iterator_tag@std@@U?$pair@$$CBGI@2@HPBU32@ABU32@U_Iterator_base12@2@@std@@QAE@XZ 005d33f0 f i Npc.obj
 0002:0007c440       ??1?$_Iterator012@Ubidirectional_iterator_tag@std@@U?$pair@$$CBGPAVCUser@@@2@HPBU32@ABU32@U_Iterator_base12@2@@std@@QAE@XZ 005d3440 f i Npc.obj
 0002:0007c490       ??1?$_Iterator012@Ubidirectional_iterator_tag@std@@U?$pair@$$CBIPAU_K_MONSTER_ITEM@@@2@HPBU32@ABU32@U_Iterator_base12@2@@std@@QAE@XZ 005d3490 f i Npc.obj
 0002:0007c4e0       ??1?$_Iterator012@Ubidirectional_iterator_tag@std@@U?$pair@$$CBIPAU_MAKE_ITEM_GRADE_CODE@@@2@HPBU32@ABU32@U_Iterator_base12@2@@std@@QAE@XZ 005d34e0 f i Npc.obj
 0002:0007c530       ??1?$_Iterator012@Ubidirectional_iterator_tag@std@@U?$pair@$$CBIPAU_MAKE_ITEM_GROUP@@@2@HPBU32@ABU32@U_Iterator_base12@2@@std@@QAE@XZ 005d3530 f i Npc.obj
 0002:0007c580       ??1?$_Iterator012@Ubidirectional_iterator_tag@std@@U?$pair@$$CBIPAU_MAKE_ITEM_LARE_CODE@@@2@HPBU32@ABU32@U_Iterator_base12@2@@std@@QAE@XZ 005d3580 f i Npc.obj
 0002:0007c5d0       ??1?$_Iterator012@Ubidirectional_iterator_tag@std@@U?$pair@$$CBIPAU_MAKE_WEAPON@@@2@HPBU32@ABU32@U_Iterator_base12@2@@std@@QAE@XZ 005d35d0 f i Npc.obj
 0002:0007c620       ??1?$_Iterator012@Ubidirectional_iterator_tag@std@@U?$pair@QAVCUser@@I@2@HPBU32@ABU32@U_Iterator_base12@2@@std@@QAE@XZ 005d3620 f i Npc.obj
 0002:0007c670       ??1?$_Tree@V?$_Tmap_traits@GIU?$less@G@std@@V?$allocator@U?$pair@$$CBGI@std@@@2@$0A@@std@@@std@@QAE@XZ 005d3670 f i Npc.obj
 0002:0007c6d0       ??1?$_Tree@V?$_Tmap_traits@GPAVCUser@@U?$less@G@std@@V?$allocator@U?$pair@$$CBGPAVCUser@@@std@@@3@$0A@@std@@@std@@QAE@XZ 005d36d0 f i Npc.obj
 0002:0007c730       ??1?$_Tree@V?$_Tmap_traits@PAVCUser@@IU?$less@PAVCUser@@@std@@V?$allocator@U?$pair@QAVCUser@@I@std@@@3@$0A@@std@@@std@@QAE@XZ 005d3730 f i Npc.obj
 0002:0007c790       ??1?$_Tree_alloc@$0A@U?$_Tree_base_types@U?$pair@$$CBGI@std@@V?$allocator@U?$pair@$$CBGI@std@@@2@@std@@@std@@QAE@XZ 005d3790 f i Npc.obj
 0002:0007c800       ??1?$_Tree_alloc@$0A@U?$_Tree_base_types@U?$pair@$$CBGPAVCUser@@@std@@V?$allocator@U?$pair@$$CBGPAVCUser@@@std@@@2@@std@@@std@@QAE@XZ 005d3800 f i Npc.obj
 0002:0007c870       ??1?$_Tree_alloc@$0A@U?$_Tree_base_types@U?$pair@QAVCUser@@I@std@@V?$allocator@U?$pair@QAVCUser@@I@std@@@2@@std@@@std@@QAE@XZ 005d3870 f i Npc.obj
 0002:0007c8e0       ??1?$_Tree_buy@U?$pair@$$CBGI@std@@V?$allocator@U?$pair@$$CBGI@std@@@2@@std@@QAE@XZ 005d38e0 f i Npc.obj
 0002:0007c930       ??1?$_Tree_buy@U?$pair@$$CBGPAVCUser@@@std@@V?$allocator@U?$pair@$$CBGPAVCUser@@@std@@@2@@std@@QAE@XZ 005d3930 f i Npc.obj
 0002:0007c980       ??1?$_Tree_buy@U?$pair@QAVCUser@@I@std@@V?$allocator@U?$pair@QAVCUser@@I@std@@@2@@std@@QAE@XZ 005d3980 f i Npc.obj
 0002:0007c9d0       ??1?$_Tree_comp@$0A@V?$_Tmap_traits@GIU?$less@G@std@@V?$allocator@U?$pair@$$CBGI@std@@@2@$0A@@std@@@std@@QAE@XZ 005d39d0 f i Npc.obj
 0002:0007ca20       ??1?$_Tree_comp@$0A@V?$_Tmap_traits@GPAVCUser@@U?$less@G@std@@V?$allocator@U?$pair@$$CBGPAVCUser@@@std@@@3@$0A@@std@@@std@@QAE@XZ 005d3a20 f i Npc.obj
 0002:0007ca70       ??1?$_Tree_comp@$0A@V?$_Tmap_traits@PAVCUser@@IU?$less@PAVCUser@@@std@@V?$allocator@U?$pair@QAVCUser@@I@std@@@3@$0A@@std@@@std@@QAE@XZ 005d3a70 f i Npc.obj
 0002:0007cac0       ??1?$_Tree_const_iterator@V?$_Tree_val@U?$_Tree_simple_types@U?$pair@$$CBGI@std@@@std@@@std@@@std@@QAE@XZ 005d3ac0 f i Npc.obj
 0002:0007cb10       ??1?$_Tree_const_iterator@V?$_Tree_val@U?$_Tree_simple_types@U?$pair@$$CBGPAVCUser@@@std@@@std@@@std@@@std@@QAE@XZ 005d3b10 f i Npc.obj
 0002:0007cb60       ??1?$_Tree_const_iterator@V?$_Tree_val@U?$_Tree_simple_types@U?$pair@$$CBIPAU_K_MONSTER_ITEM@@@std@@@std@@@std@@@std@@QAE@XZ 005d3b60 f i Npc.obj
 0002:0007cbb0       ??1?$_Tree_const_iterator@V?$_Tree_val@U?$_Tree_simple_types@U?$pair@$$CBIPAU_MAKE_ITEM_GRADE_CODE@@@std@@@std@@@std@@@std@@QAE@XZ 005d3bb0 f i Npc.obj
 0002:0007cc00       ??1?$_Tree_const_iterator@V?$_Tree_val@U?$_Tree_simple_types@U?$pair@$$CBIPAU_MAKE_ITEM_GROUP@@@std@@@std@@@std@@@std@@QAE@XZ 005d3c00 f i Npc.obj
 0002:0007cc50       ??1?$_Tree_const_iterator@V?$_Tree_val@U?$_Tree_simple_types@U?$pair@$$CBIPAU_MAKE_ITEM_LARE_CODE@@@std@@@std@@@std@@@std@@QAE@XZ 005d3c50 f i Npc.obj
 0002:0007cca0       ??1?$_Tree_const_iterator@V?$_Tree_val@U?$_Tree_simple_types@U?$pair@$$CBIPAU_MAKE_WEAPON@@@std@@@std@@@std@@@std@@QAE@XZ 005d3ca0 f i Npc.obj
 0002:0007ccf0       ??1?$_Tree_const_iterator@V?$_Tree_val@U?$_Tree_simple_types@U?$pair@QAVCUser@@I@std@@@std@@@std@@@std@@QAE@XZ 005d3cf0 f i Npc.obj
 0002:0007cd40       ??1?$_Tree_iterator@V?$_Tree_val@U?$_Tree_simple_types@U?$pair@$$CBGI@std@@@std@@@std@@@std@@QAE@XZ 005d3d40 f i Npc.obj
 0002:0007cd90       ??1?$_Tree_iterator@V?$_Tree_val@U?$_Tree_simple_types@U?$pair@$$CBGPAVCUser@@@std@@@std@@@std@@@std@@QAE@XZ 005d3d90 f i Npc.obj
 0002:0007cde0       ??1?$_Tree_iterator@V?$_Tree_val@U?$_Tree_simple_types@U?$pair@$$CBIPAU_K_MONSTER_ITEM@@@std@@@std@@@std@@@std@@QAE@XZ 005d3de0 f i Npc.obj
 0002:0007ce30       ??1?$_Tree_iterator@V?$_Tree_val@U?$_Tree_simple_types@U?$pair@$$CBIPAU_MAKE_ITEM_GRADE_CODE@@@std@@@std@@@std@@@std@@QAE@XZ 005d3e30 f i Npc.obj
 0002:0007ce80       ??1?$_Tree_iterator@V?$_Tree_val@U?$_Tree_simple_types@U?$pair@$$CBIPAU_MAKE_ITEM_GROUP@@@std@@@std@@@std@@@std@@QAE@XZ 005d3e80 f i Npc.obj
 0002:0007ced0       ??1?$_Tree_iterator@V?$_Tree_val@U?$_Tree_simple_types@U?$pair@$$CBIPAU_MAKE_ITEM_LARE_CODE@@@std@@@std@@@std@@@std@@QAE@XZ 005d3ed0 f i Npc.obj
 0002:0007cf20       ??1?$_Tree_iterator@V?$_Tree_val@U?$_Tree_simple_types@U?$pair@$$CBIPAU_MAKE_WEAPON@@@std@@@std@@@std@@@std@@QAE@XZ 005d3f20 f i Npc.obj
 0002:0007cf70       ??1?$_Tree_iterator@V?$_Tree_val@U?$_Tree_simple_types@U?$pair@QAVCUser@@I@std@@@std@@@std@@@std@@QAE@XZ 005d3f70 f i Npc.obj
 0002:0007cfc0       ??1?$_Tree_unchecked_const_iterator@V?$_Tree_val@U?$_Tree_simple_types@U?$pair@$$CBGI@std@@@std@@@std@@U_Iterator_base12@2@@std@@QAE@XZ 005d3fc0 f i Npc.obj
 0002:0007d010       ??1?$_Tree_unchecked_const_iterator@V?$_Tree_val@U?$_Tree_simple_types@U?$pair@$$CBGPAVCUser@@@std@@@std@@@std@@U_Iterator_base12@2@@std@@QAE@XZ 005d4010 f i Npc.obj
 0002:0007d060       ??1?$_Tree_unchecked_const_iterator@V?$_Tree_val@U?$_Tree_simple_types@U?$pair@$$CBIPAU_K_MONSTER_ITEM@@@std@@@std@@@std@@U_Iterator_base12@2@@std@@QAE@XZ 005d4060 f i Npc.obj
 0002:0007d0b0       ??1?$_Tree_unchecked_const_iterator@V?$_Tree_val@U?$_Tree_simple_types@U?$pair@$$CBIPAU_MAKE_ITEM_GRADE_CODE@@@std@@@std@@@std@@U_Iterator_base12@2@@std@@QAE@XZ 005d40b0 f i Npc.obj
 0002:0007d100       ??1?$_Tree_unchecked_const_iterator@V?$_Tree_val@U?$_Tree_simple_types@U?$pair@$$CBIPAU_MAKE_ITEM_GROUP@@@std@@@std@@@std@@U_Iterator_base12@2@@std@@QAE@XZ 005d4100 f i Npc.obj
 0002:0007d150       ??1?$_Tree_unchecked_const_iterator@V?$_Tree_val@U?$_Tree_simple_types@U?$pair@$$CBIPAU_MAKE_ITEM_LARE_CODE@@@std@@@std@@@std@@U_Iterator_base12@2@@std@@QAE@XZ 005d4150 f i Npc.obj
 0002:0007d1a0       ??1?$_Tree_unchecked_const_iterator@V?$_Tree_val@U?$_Tree_simple_types@U?$pair@$$CBIPAU_MAKE_WEAPON@@@std@@@std@@@std@@U_Iterator_base12@2@@std@@QAE@XZ 005d41a0 f i Npc.obj
 0002:0007d1f0       ??1?$_Tree_unchecked_const_iterator@V?$_Tree_val@U?$_Tree_simple_types@U?$pair@QAVCUser@@I@std@@@std@@@std@@U_Iterator_base12@2@@std@@QAE@XZ 005d41f0 f i Npc.obj
 0002:0007d240       ??1?$_Tree_val@U?$_Tree_simple_types@U?$pair@$$CBGI@std@@@std@@@std@@QAE@XZ 005d4240 f i Npc.obj
 0002:0007d290       ??1?$_Tree_val@U?$_Tree_simple_types@U?$pair@$$CBGPAVCUser@@@std@@@std@@@std@@QAE@XZ 005d4290 f i Npc.obj
 0002:0007d2e0       ??1?$_Tree_val@U?$_Tree_simple_types@U?$pair@QAVCUser@@I@std@@@std@@@std@@QAE@XZ 005d42e0 f i Npc.obj
 0002:0007d330       ??1?$map@GIU?$less@G@std@@V?$allocator@U?$pair@$$CBGI@std@@@2@@std@@QAE@XZ 005d4330 f i Npc.obj
 0002:0007d380       ??1?$map@GPAVCUser@@U?$less@G@std@@V?$allocator@U?$pair@$$CBGPAVCUser@@@std@@@3@@std@@QAE@XZ 005d4380 f i Npc.obj
 0002:0007d3d0       ??1?$map@PAVCUser@@IU?$less@PAVCUser@@@std@@V?$allocator@U?$pair@QAVCUser@@I@std@@@3@@std@@QAE@XZ 005d43d0 f i Npc.obj
 0002:0007d420       ??1?$pair@V?$_Tree_iterator@V?$_Tree_val@U?$_Tree_simple_types@U?$pair@$$CBGI@std@@@std@@@std@@@std@@_N@std@@QAE@XZ 005d4420 f i Npc.obj
 0002:0007d470       ??1?$pair@V?$_Tree_iterator@V?$_Tree_val@U?$_Tree_simple_types@U?$pair@$$CBGPAVCUser@@@std@@@std@@@std@@@std@@_N@std@@QAE@XZ 005d4470 f i Npc.obj
 0002:0007d4c0       ??1?$pair@V?$_Tree_iterator@V?$_Tree_val@U?$_Tree_simple_types@U?$pair@QAVCUser@@I@std@@@std@@@std@@@std@@_N@std@@QAE@XZ 005d44c0 f i Npc.obj
 0002:0007d510       ??1CNpc@@UAE@XZ            005d4510 f   Npc.obj
 0002:0007d610       ??4?$_Iterator012@Ubidirectional_iterator_tag@std@@U?$pair@$$CBGI@2@HPBU32@ABU32@U_Iterator_base12@2@@std@@QAEAAU01@ABU01@@Z 005d4610 f i Npc.obj
 0002:0007d670       ??4?$_Iterator012@Ubidirectional_iterator_tag@std@@U?$pair@QAVCUser@@I@2@HPBU32@ABU32@U_Iterator_base12@2@@std@@QAEAAU01@ABU01@@Z 005d4670 f i Npc.obj
 0002:0007d6d0       ??4?$_Tree_const_iterator@V?$_Tree_val@U?$_Tree_simple_types@U?$pair@$$CBGI@std@@@std@@@std@@@std@@QAEAAV01@ABV01@@Z 005d46d0 f i Npc.obj
 0002:0007d730       ??4?$_Tree_const_iterator@V?$_Tree_val@U?$_Tree_simple_types@U?$pair@QAVCUser@@I@std@@@std@@@std@@@std@@QAEAAV01@ABV01@@Z 005d4730 f i Npc.obj
 0002:0007d790       ??4?$_Tree_iterator@V?$_Tree_val@U?$_Tree_simple_types@U?$pair@$$CBGI@std@@@std@@@std@@@std@@QAEAAV01@ABV01@@Z 005d4790 f i Npc.obj
 0002:0007d7f0       ??4?$_Tree_iterator@V?$_Tree_val@U?$_Tree_simple_types@U?$pair@QAVCUser@@I@std@@@std@@@std@@@std@@QAEAAV01@ABV01@@Z 005d47f0 f i Npc.obj
 0002:0007d850       ??4?$_Tree_unchecked_const_iterator@V?$_Tree_val@U?$_Tree_simple_types@U?$pair@$$CBGI@std@@@std@@@std@@U_Iterator_base12@2@@std@@QAEAAV01@ABV01@@Z 005d4850 f i Npc.obj
 0002:0007d8c0       ??4?$_Tree_unchecked_const_iterator@V?$_Tree_val@U?$_Tree_simple_types@U?$pair@QAVCUser@@I@std@@@std@@@std@@U_Iterator_base12@2@@std@@QAEAAV01@ABV01@@Z 005d48c0 f i Npc.obj
 0002:0007d930       ??4?$basic_string@DU?$char_traits@D@std@@V?$allocator@D@2@@std@@QAEAAV01@ABV01@@Z 005d4930 f i Npc.obj
 0002:0007da00       ??4__Vector3@@QAEABU0@ABU0@@Z 005d4a00 f i Npc.obj
 0002:0007da70       ??6ByteBuffer@@QAEAAV0@AAV?$basic_string@DU?$char_traits@D@std@@V?$allocator@D@2@@std@@@Z 005d4a70 f i Npc.obj
 0002:0007dad0       ??6ByteBuffer@@QAEAAV0@H@Z 005d4ad0 f i Npc.obj
 0002:0007db30       ??6ByteBuffer@@QAEAAV0@I@Z 005d4b30 f i Npc.obj
 0002:0007db90       ??6ByteBuffer@@QAEAAV0@M@Z 005d4b90 f i Npc.obj
 0002:0007dc00       ??6ByteBuffer@@QAEAAV0@PBD@Z 005d4c00 f i Npc.obj
 0002:0007dce0       ??6ByteBuffer@@QAEAAV0@_N@Z 005d4ce0 f i Npc.obj
 0002:0007dd40       ??8?$_Tree_const_iterator@V?$_Tree_val@U?$_Tree_simple_types@U?$pair@$$CBGI@std@@@std@@@std@@@std@@QBE_NABV01@@Z 005d4d40 f i Npc.obj
 0002:0007de70       ??8?$_Tree_const_iterator@V?$_Tree_val@U?$_Tree_simple_types@U?$pair@$$CBGPAVCUser@@@std@@@std@@@std@@@std@@QBE_NABV01@@Z 005d4e70 f i Npc.obj
 0002:0007dfa0       ??8?$_Tree_const_iterator@V?$_Tree_val@U?$_Tree_simple_types@U?$pair@$$CBIPAU_K_MONSTER_ITEM@@@std@@@std@@@std@@@std@@QBE_NABV01@@Z 005d4fa0 f i Npc.obj
 0002:0007e0d0       ??8?$_Tree_const_iterator@V?$_Tree_val@U?$_Tree_simple_types@U?$pair@$$CBIPAU_MAKE_ITEM_GRADE_CODE@@@std@@@std@@@std@@@std@@QBE_NABV01@@Z 005d50d0 f i Npc.obj
 0002:0007e200       ??8?$_Tree_const_iterator@V?$_Tree_val@U?$_Tree_simple_types@U?$pair@$$CBIPAU_MAKE_ITEM_GROUP@@@std@@@std@@@std@@@std@@QBE_NABV01@@Z 005d5200 f i Npc.obj
 0002:0007e330       ??8?$_Tree_const_iterator@V?$_Tree_val@U?$_Tree_simple_types@U?$pair@$$CBIPAU_MAKE_ITEM_LARE_CODE@@@std@@@std@@@std@@@std@@QBE_NABV01@@Z 005d5330 f i Npc.obj
 0002:0007e460       ??8?$_Tree_const_iterator@V?$_Tree_val@U?$_Tree_simple_types@U?$pair@$$CBIPAU_MAKE_WEAPON@@@std@@@std@@@std@@@std@@QBE_NABV01@@Z 005d5460 f i Npc.obj
 0002:0007e590       ??8?$_Tree_const_iterator@V?$_Tree_val@U?$_Tree_simple_types@U?$pair@QAVCUser@@I@std@@@std@@@std@@@std@@QBE_NABV01@@Z 005d5590 f i Npc.obj
 0002:0007e6c0       ??9?$_Tree_const_iterator@V?$_Tree_val@U?$_Tree_simple_types@U?$pair@$$CBGI@std@@@std@@@std@@@std@@QBE_NABV01@@Z 005d56c0 f i Npc.obj
 0002:0007e750       ??9?$_Tree_const_iterator@V?$_Tree_val@U?$_Tree_simple_types@U?$pair@$$CBGPAVCUser@@@std@@@std@@@std@@@std@@QBE_NABV01@@Z 005d5750 f i Npc.obj
 0002:0007e7e0       ??9?$_Tree_const_iterator@V?$_Tree_val@U?$_Tree_simple_types@U?$pair@$$CBIPAU_K_MONSTER_ITEM@@@std@@@std@@@std@@@std@@QBE_NABV01@@Z 005d57e0 f i Npc.obj
 0002:0007e870       ??9?$_Tree_const_iterator@V?$_Tree_val@U?$_Tree_simple_types@U?$pair@$$CBIPAU_MAKE_ITEM_GRADE_CODE@@@std@@@std@@@std@@@std@@QBE_NABV01@@Z 005d5870 f i Npc.obj
 0002:0007e900       ??9?$_Tree_const_iterator@V?$_Tree_val@U?$_Tree_simple_types@U?$pair@$$CBIPAU_MAKE_ITEM_GROUP@@@std@@@std@@@std@@@std@@QBE_NABV01@@Z 005d5900 f i Npc.obj
 0002:0007e990       ??9?$_Tree_const_iterator@V?$_Tree_val@U?$_Tree_simple_types@U?$pair@$$CBIPAU_MAKE_ITEM_LARE_CODE@@@std@@@std@@@std@@@std@@QBE_NABV01@@Z 005d5990 f i Npc.obj
 0002:0007ea20       ??9?$_Tree_const_iterator@V?$_Tree_val@U?$_Tree_simple_types@U?$pair@$$CBIPAU_MAKE_WEAPON@@@std@@@std@@@std@@@std@@QBE_NABV01@@Z 005d5a20 f i Npc.obj
 0002:0007eab0       ??9?$_Tree_const_iterator@V?$_Tree_val@U?$_Tree_simple_types@U?$pair@QAVCUser@@I@std@@@std@@@std@@@std@@QBE_NABV01@@Z 005d5ab0 f i Npc.obj
 0002:0007eb40       ??A?$map@GIU?$less@G@std@@V?$allocator@U?$pair@$$CBGI@std@@@2@@std@@QAEAAI$$QAG@Z 005d5b40 f i Npc.obj
 0002:0007ee20       ??A?$map@PAVCUser@@IU?$less@PAVCUser@@@std@@V?$allocator@U?$pair@QAVCUser@@I@std@@@3@@std@@QAEAAIABQAVCUser@@@Z 005d5e20 f i Npc.obj
 0002:0007f0e0       ??A?$vector@IV?$allocator@I@std@@@std@@QAEAAII@Z 005d60e0 f i Npc.obj
 0002:0007f1d0       ??B?$Atomic@G@@QAEGXZ      005d61d0 f i Npc.obj
 0002:0007f220       ??Batomic_ushort@std@@QBEGXZ 005d6220 f i Npc.obj
 0002:0007f280       ??C?$_Tree_iterator@V?$_Tree_val@U?$_Tree_simple_types@U?$pair@$$CBGI@std@@@std@@@std@@@std@@QBEPAU?$pair@$$CBGI@1@XZ 005d6280 f i Npc.obj
 0002:0007f2e0       ??C?$_Tree_iterator@V?$_Tree_val@U?$_Tree_simple_types@U?$pair@$$CBGPAVCUser@@@std@@@std@@@std@@@std@@QBEPAU?$pair@$$CBGPAVCUser@@@1@XZ 005d62e0 f i Npc.obj
 0002:0007f340       ??C?$_Tree_iterator@V?$_Tree_val@U?$_Tree_simple_types@U?$pair@$$CBIPAU_K_MONSTER_ITEM@@@std@@@std@@@std@@@std@@QBEPAU?$pair@$$CBIPAU_K_MONSTER_ITEM@@@1@XZ 005d6340 f i Npc.obj
 0002:0007f3a0       ??C?$_Tree_iterator@V?$_Tree_val@U?$_Tree_simple_types@U?$pair@$$CBIPAU_MAKE_ITEM_GRADE_CODE@@@std@@@std@@@std@@@std@@QBEPAU?$pair@$$CBIPAU_MAKE_ITEM_GRADE_CODE@@@1@XZ 005d63a0 f i Npc.obj
 0002:0007f400       ??C?$_Tree_iterator@V?$_Tree_val@U?$_Tree_simple_types@U?$pair@$$CBIPAU_MAKE_ITEM_GROUP@@@std@@@std@@@std@@@std@@QBEPAU?$pair@$$CBIPAU_MAKE_ITEM_GROUP@@@1@XZ 005d6400 f i Npc.obj
 0002:0007f460       ??C?$_Tree_iterator@V?$_Tree_val@U?$_Tree_simple_types@U?$pair@$$CBIPAU_MAKE_ITEM_LARE_CODE@@@std@@@std@@@std@@@std@@QBEPAU?$pair@$$CBIPAU_MAKE_ITEM_LARE_CODE@@@1@XZ 005d6460 f i Npc.obj
 0002:0007f4c0       ??C?$_Tree_iterator@V?$_Tree_val@U?$_Tree_simple_types@U?$pair@$$CBIPAU_MAKE_WEAPON@@@std@@@std@@@std@@@std@@QBEPAU?$pair@$$CBIPAU_MAKE_WEAPON@@@1@XZ 005d64c0 f i Npc.obj
 0002:0007f520       ??C?$_Tree_iterator@V?$_Tree_val@U?$_Tree_simple_types@U?$pair@QAVCUser@@I@std@@@std@@@std@@@std@@QBEPAU?$pair@QAVCUser@@I@1@XZ 005d6520 f i Npc.obj
 0002:0007f580       ??D?$_Tree_const_iterator@V?$_Tree_val@U?$_Tree_simple_types@U?$pair@$$CBGI@std@@@std@@@std@@@std@@QBEABU?$pair@$$CBGI@1@XZ 005d6580 f i Npc.obj
 0002:0007f690       ??D?$_Tree_const_iterator@V?$_Tree_val@U?$_Tree_simple_types@U?$pair@$$CBGPAVCUser@@@std@@@std@@@std@@@std@@QBEABU?$pair@$$CBGPAVCUser@@@1@XZ 005d6690 f i Npc.obj
 0002:0007f7a0       ??D?$_Tree_const_iterator@V?$_Tree_val@U?$_Tree_simple_types@U?$pair@$$CBIPAU_K_MONSTER_ITEM@@@std@@@std@@@std@@@std@@QBEABU?$pair@$$CBIPAU_K_MONSTER_ITEM@@@1@XZ 005d67a0 f i Npc.obj
 0002:0007f8b0       ??D?$_Tree_const_iterator@V?$_Tree_val@U?$_Tree_simple_types@U?$pair@$$CBIPAU_MAKE_ITEM_GRADE_CODE@@@std@@@std@@@std@@@std@@QBEABU?$pair@$$CBIPAU_MAKE_ITEM_GRADE_CODE@@@1@XZ 005d68b0 f i Npc.obj
 0002:0007f9c0       ??D?$_Tree_const_iterator@V?$_Tree_val@U?$_Tree_simple_types@U?$pair@$$CBIPAU_MAKE_ITEM_GROUP@@@std@@@std@@@std@@@std@@QBEABU?$pair@$$CBIPAU_MAKE_ITEM_GROUP@@@1@XZ 005d69c0 f i Npc.obj
 0002:0007fad0       ??D?$_Tree_const_iterator@V?$_Tree_val@U?$_Tree_simple_types@U?$pair@$$CBIPAU_MAKE_ITEM_LARE_CODE@@@std@@@std@@@std@@@std@@QBEABU?$pair@$$CBIPAU_MAKE_ITEM_LARE_CODE@@@1@XZ 005d6ad0 f i Npc.obj
 0002:0007fbe0       ??D?$_Tree_const_iterator@V?$_Tree_val@U?$_Tree_simple_types@U?$pair@$$CBIPAU_MAKE_WEAPON@@@std@@@std@@@std@@@std@@QBEABU?$pair@$$CBIPAU_MAKE_WEAPON@@@1@XZ 005d6be0 f i Npc.obj
 0002:0007fcf0       ??D?$_Tree_const_iterator@V?$_Tree_val@U?$_Tree_simple_types@U?$pair@QAVCUser@@I@std@@@std@@@std@@@std@@QBEABU?$pair@QAVCUser@@I@1@XZ 005d6cf0 f i Npc.obj
 0002:0007fe00       ??D?$_Tree_iterator@V?$_Tree_val@U?$_Tree_simple_types@U?$pair@$$CBGI@std@@@std@@@std@@@std@@QBEAAU?$pair@$$CBGI@1@XZ 005d6e00 f i Npc.obj
 0002:0007fe50       ??D?$_Tree_iterator@V?$_Tree_val@U?$_Tree_simple_types@U?$pair@$$CBGPAVCUser@@@std@@@std@@@std@@@std@@QBEAAU?$pair@$$CBGPAVCUser@@@1@XZ 005d6e50 f i Npc.obj
 0002:0007fea0       ??D?$_Tree_iterator@V?$_Tree_val@U?$_Tree_simple_types@U?$pair@$$CBIPAU_K_MONSTER_ITEM@@@std@@@std@@@std@@@std@@QBEAAU?$pair@$$CBIPAU_K_MONSTER_ITEM@@@1@XZ 005d6ea0 f i Npc.obj
 0002:0007fef0       ??D?$_Tree_iterator@V?$_Tree_val@U?$_Tree_simple_types@U?$pair@$$CBIPAU_MAKE_ITEM_GRADE_CODE@@@std@@@std@@@std@@@std@@QBEAAU?$pair@$$CBIPAU_MAKE_ITEM_GRADE_CODE@@@1@XZ 005d6ef0 f i Npc.obj
 0002:0007ff40       ??D?$_Tree_iterator@V?$_Tree_val@U?$_Tree_simple_types@U?$pair@$$CBIPAU_MAKE_ITEM_GROUP@@@std@@@std@@@std@@@std@@QBEAAU?$pair@$$CBIPAU_MAKE_ITEM_GROUP@@@1@XZ 005d6f40 f i Npc.obj
 0002:0007ff90       ??D?$_Tree_iterator@V?$_Tree_val@U?$_Tree_simple_types@U?$pair@$$CBIPAU_MAKE_ITEM_LARE_CODE@@@std@@@std@@@std@@@std@@QBEAAU?$pair@$$CBIPAU_MAKE_ITEM_LARE_CODE@@@1@XZ 005d6f90 f i Npc.obj
 0002:0007ffe0       ??D?$_Tree_iterator@V?$_Tree_val@U?$_Tree_simple_types@U?$pair@$$CBIPAU_MAKE_WEAPON@@@std@@@std@@@std@@@std@@QBEAAU?$pair@$$CBIPAU_MAKE_WEAPON@@@1@XZ 005d6fe0 f i Npc.obj
 0002:00080030       ??D?$_Tree_iterator@V?$_Tree_val@U?$_Tree_simple_types@U?$pair@QAVCUser@@I@std@@@std@@@std@@@std@@QBEAAU?$pair@QAVCUser@@I@1@XZ 005d7030 f i Npc.obj
 0002:00080080       ??E?$_Tree_const_iterator@V?$_Tree_val@U?$_Tree_simple_types@U?$pair@$$CBGI@std@@@std@@@std@@@std@@QAE?AV01@H@Z 005d7080 f i Npc.obj
 0002:000801a0       ??E?$_Tree_const_iterator@V?$_Tree_val@U?$_Tree_simple_types@U?$pair@$$CBGI@std@@@std@@@std@@@std@@QAEAAV01@XZ 005d71a0 f i Npc.obj
 0002:000802b0       ??E?$_Tree_const_iterator@V?$_Tree_val@U?$_Tree_simple_types@U?$pair@$$CBGPAVCUser@@@std@@@std@@@std@@@std@@QAE?AV01@H@Z 005d72b0 f i Npc.obj
 0002:000803d0       ??E?$_Tree_const_iterator@V?$_Tree_val@U?$_Tree_simple_types@U?$pair@$$CBGPAVCUser@@@std@@@std@@@std@@@std@@QAEAAV01@XZ 005d73d0 f i Npc.obj
 0002:000804e0       ??E?$_Tree_const_iterator@V?$_Tree_val@U?$_Tree_simple_types@U?$pair@QAVCUser@@I@std@@@std@@@std@@@std@@QAE?AV01@H@Z 005d74e0 f i Npc.obj
 0002:00080600       ??E?$_Tree_const_iterator@V?$_Tree_val@U?$_Tree_simple_types@U?$pair@QAVCUser@@I@std@@@std@@@std@@@std@@QAEAAV01@XZ 005d7600 f i Npc.obj
 0002:00080710       ??E?$_Tree_iterator@V?$_Tree_val@U?$_Tree_simple_types@U?$pair@$$CBGI@std@@@std@@@std@@@std@@QAE?AV01@H@Z 005d7710 f i Npc.obj
 0002:00080830       ??E?$_Tree_iterator@V?$_Tree_val@U?$_Tree_simple_types@U?$pair@$$CBGI@std@@@std@@@std@@@std@@QAEAAV01@XZ 005d7830 f i Npc.obj
 0002:00080890       ??E?$_Tree_iterator@V?$_Tree_val@U?$_Tree_simple_types@U?$pair@QAVCUser@@I@std@@@std@@@std@@@std@@QAE?AV01@H@Z 005d7890 f i Npc.obj
 0002:000809b0       ??E?$_Tree_iterator@V?$_Tree_val@U?$_Tree_simple_types@U?$pair@QAVCUser@@I@std@@@std@@@std@@@std@@QAEAAV01@XZ 005d79b0 f i Npc.obj
 0002:00080a10       ??E?$_Tree_unchecked_const_iterator@V?$_Tree_val@U?$_Tree_simple_types@U?$pair@$$CBGI@std@@@std@@@std@@U_Iterator_base12@2@@std@@QAEAAV01@XZ 005d7a10 f i Npc.obj
 0002:00080b40       ??E?$_Tree_unchecked_const_iterator@V?$_Tree_val@U?$_Tree_simple_types@U?$pair@$$CBGPAVCUser@@@std@@@std@@@std@@U_Iterator_base12@2@@std@@QAEAAV01@XZ 005d7b40 f i Npc.obj
 0002:00080c70       ??E?$_Tree_unchecked_const_iterator@V?$_Tree_val@U?$_Tree_simple_types@U?$pair@QAVCUser@@I@std@@@std@@@std@@U_Iterator_base12@2@@std@@QAEAAV01@XZ 005d7c70 f i Npc.obj
 0002:00080da0       ??Eatomic_ushort@std@@QAEGXZ 005d7da0 f i Npc.obj
 0002:00080e00       ??F?$_Tree_const_iterator@V?$_Tree_val@U?$_Tree_simple_types@U?$pair@$$CBGI@std@@@std@@@std@@@std@@QAEAAV01@XZ 005d7e00 f i Npc.obj
 0002:00080f90       ??F?$_Tree_const_iterator@V?$_Tree_val@U?$_Tree_simple_types@U?$pair@$$CBGPAVCUser@@@std@@@std@@@std@@@std@@QAEAAV01@XZ 005d7f90 f i Npc.obj
 0002:00081120       ??F?$_Tree_const_iterator@V?$_Tree_val@U?$_Tree_simple_types@U?$pair@QAVCUser@@I@std@@@std@@@std@@@std@@QAEAAV01@XZ 005d8120 f i Npc.obj
 0002:000812b0       ??F?$_Tree_iterator@V?$_Tree_val@U?$_Tree_simple_types@U?$pair@$$CBGI@std@@@std@@@std@@@std@@QAEAAV01@XZ 005d82b0 f i Npc.obj
 0002:00081310       ??F?$_Tree_iterator@V?$_Tree_val@U?$_Tree_simple_types@U?$pair@$$CBGPAVCUser@@@std@@@std@@@std@@@std@@QAEAAV01@XZ 005d8310 f i Npc.obj
 0002:00081370       ??F?$_Tree_iterator@V?$_Tree_val@U?$_Tree_simple_types@U?$pair@QAVCUser@@I@std@@@std@@@std@@@std@@QAEAAV01@XZ 005d8370 f i Npc.obj
 0002:000813d0       ??F?$_Tree_unchecked_const_iterator@V?$_Tree_val@U?$_Tree_simple_types@U?$pair@$$CBGI@std@@@std@@@std@@U_Iterator_base12@2@@std@@QAEAAV01@XZ 005d83d0 f i Npc.obj
 0002:00081530       ??F?$_Tree_unchecked_const_iterator@V?$_Tree_val@U?$_Tree_simple_types@U?$pair@$$CBGPAVCUser@@@std@@@std@@@std@@U_Iterator_base12@2@@std@@QAEAAV01@XZ 005d8530 f i Npc.obj
 0002:00081690       ??F?$_Tree_unchecked_const_iterator@V?$_Tree_val@U?$_Tree_simple_types@U?$pair@QAVCUser@@I@std@@@std@@@std@@U_Iterator_base12@2@@std@@QAEAAV01@XZ 005d8690 f i Npc.obj
 0002:000817f0       ??G__Vector3@@QBE?AU0@ABU_D3DVECTOR@@@Z 005d87f0 f i Npc.obj
 0002:00081930       ??R?$less@G@std@@QBE_NABG0@Z 005d8930 f i Npc.obj
 0002:000819a0       ??R?$less@PAVCUser@@@std@@QBE_NABQAVCUser@@0@Z 005d89a0 f i Npc.obj
 0002:00081a10       ??X__Vector3@@QAEXABU_D3DMATRIX@@@Z 005d8a10 f i Npc.obj
 0002:00081c20       ??X__Vector3@@QAEXM@Z      005d8c20 f i Npc.obj
 0002:00081cb0       ??Y__Vector3@@QAEXABU_D3DVECTOR@@@Z 005d8cb0 f i Npc.obj
 0002:00081d40       ??_GCNpc@@UAEPAXI@Z        005d8d40 f i Npc.obj
 0002:00081d40       ??_ECNpc@@UAEPAXI@Z        005d8d40 f i Npc.obj
 0002:00081db0       ?AddToRegion@CNpc@@UAEXFF@Z 005d8db0 f i Npc.obj
 0002:00081df0       ?Attack@CNpc@@QAE_JXZ      005d8df0 f   Npc.obj
 0002:00082460       ?CalcAdaptivePosition@CNpc@@QAEXAAU__Vector3@@0MPAU2@@Z 005d9460 f   Npc.obj
 0002:00082520       ?ChangeAbility@CNpc@@QAEXH@Z 005d9520 f   Npc.obj
 0002:00082870       ?ChangeNTarget@CNpc@@QAEXPAV1@@Z 005d9870 f   Npc.obj
 0002:00082d40       ?ChangeTarget@CNpc@@QAEXHPAVCUser@@@Z 005d9d40 f   Npc.obj
 0002:00083430       ?CheckFindEnemy@CNpc@@QAE_NXZ 005da430 f   Npc.obj
 0002:00083540       ?ClearPathFindData@CNpc@@IAEXXZ 005da540 f   Npc.obj
 0002:00083670       ?ComputeDestPos@CNpc@@QAEXAAU__Vector3@@MMPAU2@@Z 005da670 f   Npc.obj
 0002:000837b0       ?Dead@CNpc@@QAEXPAVUnit@@_N@Z 005da7b0 f   Npc.obj
 0002:00083990       ?FillNpcInfo@CNpc@@QAEXAAVPacket@@@Z 005da990 f   Npc.obj
 0002:00083d40       ?FindEnemy@CNpc@@QAE_NXZ   005dad40 f   Npc.obj
 0002:00084410       ?FindEnemyExpand@CNpc@@QAEMHHMW4UnitType@@@Z 005db410 f   Npc.obj
 0002:00084dc0       ?FindEnemyRegion@CNpc@@QAEHXZ 005dbdc0 f   Npc.obj
 0002:000859d0       ?FindFriend@CNpc@@QAEHW4MonSearchType@@@Z 005dc9d0 f   Npc.obj
 0002:00085df0       ?FindFriendRegion@CNpc@@QAEXHHPAVMAP@@PAU_TargetHealer@@W4MonSearchType@@@Z 005dcdf0 f   Npc.obj
 0002:00086690       ?GetData@?$CSTLMap@U_K_MONSTER_ITEM@@@@QAEPAU_K_MONSTER_ITEM@@I@Z 005dd690 f i Npc.obj
 0002:00086850       ?GetData@?$CSTLMap@U_MAKE_ITEM_GRADE_CODE@@@@QAEPAU_MAKE_ITEM_GRADE_CODE@@I@Z 005dd850 f i Npc.obj
 0002:00086a10       ?GetData@?$CSTLMap@U_MAKE_ITEM_GROUP@@@@QAEPAU_MAKE_ITEM_GROUP@@I@Z 005dda10 f i Npc.obj
 0002:00086bd0       ?GetData@?$CSTLMap@U_MAKE_ITEM_LARE_CODE@@@@QAEPAU_MAKE_ITEM_LARE_CODE@@I@Z 005ddbd0 f i Npc.obj
 0002:00086d90       ?GetData@?$CSTLMap@U_MAKE_WEAPON@@@@QAEPAU_MAKE_WEAPON@@I@Z 005ddd90 f i Npc.obj
 0002:00086f50       ?GetDir@CNpc@@QAEHMMMM@Z   005ddf50 f   Npc.obj
 0002:00087300       ?GetDistance@CNpc@@QAEMAAU__Vector3@@0@Z 005de300 f   Npc.obj
 0002:00087380       ?GetHealth@CNpc@@UAEHXZ    005de380 f i Npc.obj
 0002:000873c0       ?GetID@CNpc@@UAEGXZ        005de3c0 f i Npc.obj
 0002:00087410       ?GetInOut@CNpc@@UAEXAAVPacket@@E@Z 005de410 f i Npc.obj
 0002:00087450       ?GetItemCodeNumber@CNpc@@QAEHHH@Z 005de450 f   Npc.obj
 0002:00087740       ?GetItemGrade@CNpc@@QAEHH@Z 005de740 f   Npc.obj
 0002:00087910       ?GetMana@CNpc@@UAEHXZ      005de910 f i Npc.obj
 0002:00087960       ?GetMaxHealth@CNpc@@UAEHXZ 005de960 f i Npc.obj
 0002:000879c0       ?GetMaxMana@CNpc@@UAEHXZ   005de9c0 f i Npc.obj
 0002:00087a20       ?GetMyField@CNpc@@QAEHXZ   005dea20 f   Npc.obj
 0002:00087bd0       ?GetName@CNpc@@UAEAAV?$basic_string@DU?$char_traits@D@std@@V?$allocator@D@2@@std@@XZ 005debd0 f i Npc.obj
 0002:00087c30       ?GetNearPathPoint@CNpc@@QAEHXZ 005dec30 f   Npc.obj
 0002:00088070       ?GetPartyExp@CNpc@@QAEHHHH@Z 005df070 f   Npc.obj
 0002:000881c0       ?GetProtoID@CNpc@@QAEGXZ   005df1c0 f i Npc.obj
 0002:00088220       ?GetRegionX@Unit@@QAEGXZ   005df220 f i Npc.obj
 0002:00088260       ?GetRegionZ@Unit@@QAEGXZ   005df260 f i Npc.obj
 0002:000882a0       ?GetTargetPath@CNpc@@QAEHH@Z 005df2a0 f   Npc.obj
 0002:00089280       ?GetTargetPos@CNpc@@QAE_NAAM0@Z 005e0280 f   Npc.obj
 0002:00089330       ?GetUserInView@CNpc@@QAE_NXZ 005e0330 f   Npc.obj
 0002:00089570       ?GetUserInViewRange@CNpc@@QAE_NHH@Z 005e0570 f   Npc.obj
 0002:00089910       ?GetVectorPosition@CNpc@@QAEXAAU__Vector3@@0MPAU2@@Z 005e0910 f   Npc.obj
 0002:000899d0       ?GetWeaponItemCodeNumber@CNpc@@QAEH_N@Z 005e09d0 f   Npc.obj
 0002:00089b50       ?GetY@Unit@@QAEMXZ         005e0b50 f i Npc.obj
 0002:00089b90       ?GiveNpcHaveItem@CNpc@@QAEXXZ 005e0b90 f   Npc.obj
 0002:0008a150       ?HpChange@CNpc@@QAEXXZ     005e1150 f   Npc.obj
 0002:0008a250       ?HpChange@CNpc@@UAEXHPAVUnit@@_N@Z 005e1250 f   Npc.obj
 0002:0008a4e0       ?Identity@__Matrix44@@QAEXXZ 005e14e0 f i Npc.obj
 0002:0008a660       ?Init@CNpc@@QAEXXZ         005e1660 f   Npc.obj
 0002:0008a760       ?InitPos@CNpc@@QAEXXZ      005e1760 f   Npc.obj
 0002:0008abe0       ?InitTarget@CNpc@@QAEXXZ   005e1be0 f   Npc.obj
 0002:0008ad50       ?InitUserList@CNpc@@QAEXXZ 005e1d50 f   Npc.obj
 0002:0008add0       ?IsChangePath@CNpc@@QAE_NXZ 005e1dd0 f   Npc.obj
 0002:0008afb0       ?IsCloseTarget@CNpc@@QAE?AW4CloseTargetResult@@HW4AttackType@@@Z 005e1fb0 f   Npc.obj
 0002:0008b690       ?IsCloseTarget@CNpc@@QAE_NPAVCUser@@H@Z 005e2690 f   Npc.obj
 0002:0008b7b0       ?IsDamagedUserList@CNpc@@QAE_NPAVCUser@@@Z 005e27b0 f   Npc.obj
 0002:0008b990       ?IsInPathRange@CNpc@@QAE_NXZ 005e2990 f   Npc.obj
 0002:0008ba80       ?IsMovingEnd@CNpc@@QAE_NXZ 005e2a80 f   Npc.obj
 0002:0008bb10       ?IsNoPathFind@CNpc@@QAEXM@Z 005e2b10 f   Npc.obj
 0002:0008c0c0       ?IsPathFindCheck@CNpc@@QAE_NM@Z 005e30c0 f   Npc.obj
 0002:0008c530       ?IsSurround@CNpc@@QAEHPAVCUser@@@Z 005e3530 f   Npc.obj
 0002:0008c630       ?ItemProdution@CNpc@@QAEHH@Z 005e3630 f   Npc.obj
 0002:0008d000       ?Load@CNpc@@QAEXGPAVCNpcTable@@_NE@Z 005e4000 f   Npc.obj
 0002:0008d4f0       ?LongAndMagicAttack@CNpc@@QAE_JXZ 005e44f0 f   Npc.obj
 0002:0008d7d0       ?MSpChange@CNpc@@UAEXH@Z   005e47d0 f i Npc.obj
 0002:0008d810       ?Magnitude@__Vector3@@QBEMXZ 005e4810 f i Npc.obj
 0002:0008d8b0       ?MoveAttack@CNpc@@QAEXXZ   005e48b0 f   Npc.obj
 0002:0008df00       ?Normalize@__Vector3@@QAEXXZ 005e4f00 f i Npc.obj
 0002:0008e010       ?NpcAttacking@CNpc@@QAE_JXZ 005e5010 f   Npc.obj
 0002:0008e1e0       ?NpcBack@CNpc@@QAE_JXZ     005e51e0 f   Npc.obj
 0002:0008e620       ?NpcCasting@CNpc@@QAE_JXZ  005e5620 f   Npc.obj
 0002:0008e760       ?NpcFainting@CNpc@@QAE_JXZ 005e5760 f   Npc.obj
 0002:0008e820       ?NpcHealing@CNpc@@QAE_JXZ  005e5820 f   Npc.obj
 0002:0008eb90       ?NpcLive@CNpc@@QAE_JXZ     005e5b90 f   Npc.obj
 0002:0008ec80       ?NpcMoveEnd@CNpc@@QAEXXZ   005e5c80 f   Npc.obj
 0002:0008ed40       ?NpcMoving@CNpc@@QAE_JXZ   005e5d40 f   Npc.obj
 0002:0008f120       ?NpcSleeping@CNpc@@QAE_JXZ 005e6120 f   Npc.obj
 0002:0008f1b0       ?NpcStanding@CNpc@@QAE_JXZ 005e61b0 f   Npc.obj
 0002:0008f650       ?NpcStrategy@CNpc@@QAEXE@Z 005e6650 f   Npc.obj
 0002:0008f700       ?NpcTracing@CNpc@@QAE_JXZ  005e6700 f   Npc.obj
 0002:0008fc40       ?PathFind@CNpc@@QAEHUCPoint@@0M@Z 005e6c40 f   Npc.obj
 0002:000900b0       ?RandomBackMove@CNpc@@QAE_NXZ 005e70b0 f   Npc.obj
 0002:00090cb0       ?RandomMove@CNpc@@QAE_NXZ  005e7cb0 f   Npc.obj
 0002:00092240       ?RecvAttackReq@CNpc@@QAEXHGW4AttributeType@@@Z 005e9240 f   Npc.obj
 0002:00092720       ?RegisterRegion@CNpc@@QAE_NMM@Z 005e9720 f   Npc.obj
 0002:00092a30       ?ResetPath@CNpc@@QAE_NXZ   005e9a30 f   Npc.obj
 0002:00092bb0       ?RotationY@__Matrix44@@QAEXM@Z 005e9bb0 f i Npc.obj
 0002:00092c90       ?SendAttackRequest@CNpc@@QAEXF@Z 005e9c90 f   Npc.obj
 0002:00092dc0       ?SendExpToUserList@CNpc@@QAEXXZ 005e9dc0 f   Npc.obj
 0002:00093960       ?SendInOut@CNpc@@QAEXW4InOutType@@@Z 005ea960 f   Npc.obj
 0002:00093ad0       ?SendMoveResult@CNpc@@QAEXMMMM@Z 005eaad0 f   Npc.obj
 0002:00093c70       ?SendNpcInfo@CNpc@@QAEXXZ  005eac70 f   Npc.obj
 0002:00093d80       ?SendRegionUpdate@CNpc@@QAEXXZ 005ead80 f   Npc.obj
 0002:00093ee0       ?Set@__Vector3@@QAEXMMM@Z  005eaee0 f i Npc.obj
 0002:00093f50       ?SetLive@CNpc@@QAE_NXZ     005eaf50 f   Npc.obj
 0002:00094c40       ?StepMove@CNpc@@QAE_NXZ    005ebc40 f   Npc.obj
 0002:000954d0       ?StepNoPathMove@CNpc@@QAE_NXZ 005ec4d0 f   Npc.obj
 0002:00095a10       ?TracingAttack@CNpc@@QAEXXZ 005eca10 f   Npc.obj
 0002:00095b90       ?Yaw2D@CNpc@@QAEXMMAAM@Z   005ecb90 f   Npc.obj
 0002:00095d00       ?_Alloc_proxy@?$_Tree_alloc@$0A@U?$_Tree_base_types@U?$pair@$$CBGI@std@@V?$allocator@U?$pair@$$CBGI@std@@@2@@std@@@std@@QAEXXZ 005ecd00 f i Npc.obj
 0002:00095de0       ?_Alloc_proxy@?$_Tree_alloc@$0A@U?$_Tree_base_types@U?$pair@$$CBGPAVCUser@@@std@@V?$allocator@U?$pair@$$CBGPAVCUser@@@std@@@2@@std@@@std@@QAEXXZ 005ecde0 f i Npc.obj
 0002:00095ec0       ?_Alloc_proxy@?$_Tree_alloc@$0A@U?$_Tree_base_types@U?$pair@QAVCUser@@I@std@@V?$allocator@U?$pair@QAVCUser@@I@std@@@2@@std@@@std@@QAEXXZ 005ecec0 f i Npc.obj
 0002:00095fa0       ?_Atomic_fetch_add_2@std@@YAGPCGGW4memory_order@1@@Z 005ecfa0 f i Npc.obj
 0002:00096130       ?_Atomic_load_2@std@@YAGPCGW4memory_order@1@@Z 005ed130 f i Npc.obj
 0002:00096290       ?_Buyheadnode@?$_Tree_alloc@$0A@U?$_Tree_base_types@U?$pair@$$CBGI@std@@V?$allocator@U?$pair@$$CBGI@std@@@2@@std@@@std@@QAEPAU?$_Tree_node@U?$pair@$$CBGI@std@@PAX@2@XZ 005ed290 f i Npc.obj
 0002:000964f0       ?_Buyheadnode@?$_Tree_alloc@$0A@U?$_Tree_base_types@U?$pair@$$CBGPAVCUser@@@std@@V?$allocator@U?$pair@$$CBGPAVCUser@@@std@@@2@@std@@@std@@QAEPAU?$_Tree_node@U?$pair@$$CBGPAVCUser@@@std@@PAX@2@XZ 005ed4f0 f i Npc.obj
 0002:00096750       ?_Buyheadnode@?$_Tree_alloc@$0A@U?$_Tree_base_types@U?$pair@QAVCUser@@I@std@@V?$allocator@U?$pair@QAVCUser@@I@std@@@2@@std@@@std@@QAEPAU?$_Tree_node@U?$pair@QAVCUser@@I@std@@PAX@2@XZ 005ed750 f i Npc.obj
 0002:000969b0       ?_Buynode0@?$_Tree_buy@U?$pair@$$CBGI@std@@V?$allocator@U?$pair@$$CBGI@std@@@2@@std@@QAEPAU?$_Tree_node@U?$pair@$$CBGI@std@@PAX@2@XZ 005ed9b0 f i Npc.obj
 0002:00096bc0       ?_Buynode0@?$_Tree_buy@U?$pair@$$CBGPAVCUser@@@std@@V?$allocator@U?$pair@$$CBGPAVCUser@@@std@@@2@@std@@QAEPAU?$_Tree_node@U?$pair@$$CBGPAVCUser@@@std@@PAX@2@XZ 005edbc0 f i Npc.obj
 0002:00096dd0       ?_Buynode0@?$_Tree_buy@U?$pair@QAVCUser@@I@std@@V?$allocator@U?$pair@QAVCUser@@I@std@@@2@@std@@QAEPAU?$_Tree_node@U?$pair@QAVCUser@@I@std@@PAX@2@XZ 005eddd0 f i Npc.obj
 0002:00096fe0       ?_Change_alloc@?$_String_alloc@$0A@U?$_String_base_types@DV?$allocator@D@std@@@std@@@std@@QAEXABU?$_Wrap_alloc@V?$allocator@D@std@@@2@@Z 005edfe0 f i Npc.obj
 0002:00097020       ?_Color@?$_Tree_val@U?$_Tree_simple_types@U?$pair@$$CBGI@std@@@std@@@std@@SAAADPAU?$_Tree_node@U?$pair@$$CBGI@std@@PAX@2@@Z 005ee020 f i Npc.obj
 0002:00097060       ?_Color@?$_Tree_val@U?$_Tree_simple_types@U?$pair@$$CBGPAVCUser@@@std@@@std@@@std@@SAAADPAU?$_Tree_node@U?$pair@$$CBGPAVCUser@@@std@@PAX@2@@Z 005ee060 f i Npc.obj
 0002:000970a0       ?_Color@?$_Tree_val@U?$_Tree_simple_types@U?$pair@QAVCUser@@I@std@@@std@@@std@@SAAADPAU?$_Tree_node@U?$pair@QAVCUser@@I@std@@PAX@2@@Z 005ee0a0 f i Npc.obj
 0002:000970e0       ?_Destroy_if_not_nil@?$_Tree@V?$_Tmap_traits@GIU?$less@G@std@@V?$allocator@U?$pair@$$CBGI@std@@@2@$0A@@std@@@std@@IAEXPAU?$_Tree_node@U?$pair@$$CBGI@std@@PAX@2@@Z 005ee0e0 f i Npc.obj
 0002:00097190       ?_Destroy_if_not_nil@?$_Tree@V?$_Tmap_traits@GPAVCUser@@U?$less@G@std@@V?$allocator@U?$pair@$$CBGPAVCUser@@@std@@@3@$0A@@std@@@std@@IAEXPAU?$_Tree_node@U?$pair@$$CBGPAVCUser@@@std@@PAX@2@@Z 005ee190 f i Npc.obj
 0002:00097240       ?_Destroy_if_not_nil@?$_Tree@V?$_Tmap_traits@PAVCUser@@IU?$less@PAVCUser@@@std@@V?$allocator@U?$pair@QAVCUser@@I@std@@@3@$0A@@std@@@std@@IAEXPAU?$_Tree_node@U?$pair@QAVCUser@@I@std@@PAX@2@@Z 005ee240 f i Npc.obj
 0002:000972f0       ?_Erase@?$_Tree@V?$_Tmap_traits@GIU?$less@G@std@@V?$allocator@U?$pair@$$CBGI@std@@@2@$0A@@std@@@std@@IAEXPAU?$_Tree_node@U?$pair@$$CBGI@std@@PAX@2@@Z 005ee2f0 f i Npc.obj
 0002:00097400       ?_Erase@?$_Tree@V?$_Tmap_traits@GPAVCUser@@U?$less@G@std@@V?$allocator@U?$pair@$$CBGPAVCUser@@@std@@@3@$0A@@std@@@std@@IAEXPAU?$_Tree_node@U?$pair@$$CBGPAVCUser@@@std@@PAX@2@@Z 005ee400 f i Npc.obj
 0002:00097510       ?_Erase@?$_Tree@V?$_Tmap_traits@PAVCUser@@IU?$less@PAVCUser@@@std@@V?$allocator@U?$pair@QAVCUser@@I@std@@@3@$0A@@std@@@std@@IAEXPAU?$_Tree_node@U?$pair@QAVCUser@@I@std@@PAX@2@@Z 005ee510 f i Npc.obj
 0002:00097620       ?_Fetch_add_acquire_2@std@@YAGPCGG@Z 005ee620 f i Npc.obj
 0002:00097670       ?_Fetch_add_relaxed_2@std@@YAGPCGG@Z 005ee670 f i Npc.obj
 0002:000976c0       ?_Fetch_add_release_2@std@@YAGPCGG@Z 005ee6c0 f i Npc.obj
 0002:00097710       ?_Fetch_add_seq_cst_2@std@@YAGPCGG@Z 005ee710 f i Npc.obj
 0002:00097760       ?_Free_proxy@?$_Tree_alloc@$0A@U?$_Tree_base_types@U?$pair@$$CBGI@std@@V?$allocator@U?$pair@$$CBGI@std@@@2@@std@@@std@@QAEXXZ 005ee760 f i Npc.obj
 0002:00097840       ?_Free_proxy@?$_Tree_alloc@$0A@U?$_Tree_base_types@U?$pair@$$CBGPAVCUser@@@std@@V?$allocator@U?$pair@$$CBGPAVCUser@@@std@@@2@@std@@@std@@QAEXXZ 005ee840 f i Npc.obj
 0002:00097920       ?_Free_proxy@?$_Tree_alloc@$0A@U?$_Tree_base_types@U?$pair@QAVCUser@@I@std@@V?$allocator@U?$pair@QAVCUser@@I@std@@@2@@std@@@std@@QAEXXZ 005ee920 f i Npc.obj
 0002:00097a00       ?_Freeheadnode@?$_Tree_alloc@$0A@U?$_Tree_base_types@U?$pair@$$CBGI@std@@V?$allocator@U?$pair@$$CBGI@std@@@2@@std@@@std@@QAEXPAU?$_Tree_node@U?$pair@$$CBGI@std@@PAX@2@@Z 005eea00 f i Npc.obj
 0002:00097b10       ?_Freeheadnode@?$_Tree_alloc@$0A@U?$_Tree_base_types@U?$pair@$$CBGPAVCUser@@@std@@V?$allocator@U?$pair@$$CBGPAVCUser@@@std@@@2@@std@@@std@@QAEXPAU?$_Tree_node@U?$pair@$$CBGPAVCUser@@@std@@PAX@2@@Z 005eeb10 f i Npc.obj
 0002:00097c20       ?_Freeheadnode@?$_Tree_alloc@$0A@U?$_Tree_base_types@U?$pair@QAVCUser@@I@std@@V?$allocator@U?$pair@QAVCUser@@I@std@@@2@@std@@@std@@QAEXPAU?$_Tree_node@U?$pair@QAVCUser@@I@std@@PAX@2@@Z 005eec20 f i Npc.obj
 0002:00097d30       ?_Freenode0@?$_Tree_buy@U?$pair@$$CBGI@std@@V?$allocator@U?$pair@$$CBGI@std@@@2@@std@@QAEXPAU?$_Tree_node@U?$pair@$$CBGI@std@@PAX@2@@Z 005eed30 f i Npc.obj
 0002:00097e40       ?_Freenode0@?$_Tree_buy@U?$pair@$$CBGPAVCUser@@@std@@V?$allocator@U?$pair@$$CBGPAVCUser@@@std@@@2@@std@@QAEXPAU?$_Tree_node@U?$pair@$$CBGPAVCUser@@@std@@PAX@2@@Z 005eee40 f i Npc.obj
 0002:00097f50       ?_Freenode0@?$_Tree_buy@U?$pair@QAVCUser@@I@std@@V?$allocator@U?$pair@QAVCUser@@I@std@@@2@@std@@QAEXPAU?$_Tree_node@U?$pair@QAVCUser@@I@std@@PAX@2@@Z 005eef50 f i Npc.obj
 0002:00098060       ?_Getal@?$_Tree_alloc@$0A@U?$_Tree_base_types@U?$pair@$$CBGI@std@@V?$allocator@U?$pair@$$CBGI@std@@@2@@std@@@std@@QBE?AU?$_Wrap_alloc@V?$allocator@U?$_Tree_node@U?$pair@$$CBGI@std@@PAX@std@@@std@@@2@XZ 005ef060 f i Npc.obj
 0002:000980c0       ?_Getal@?$_Tree_alloc@$0A@U?$_Tree_base_types@U?$pair@$$CBGPAVCUser@@@std@@V?$allocator@U?$pair@$$CBGPAVCUser@@@std@@@2@@std@@@std@@QBE?AU?$_Wrap_alloc@V?$allocator@U?$_Tree_node@U?$pair@$$CBGPAVCUser@@@std@@PAX@std@@@std@@@2@XZ 005ef0c0 f i Npc.obj
 0002:00098120       ?_Getal@?$_Tree_alloc@$0A@U?$_Tree_base_types@U?$pair@QAVCUser@@I@std@@V?$allocator@U?$pair@QAVCUser@@I@std@@@2@@std@@@std@@QBE?AU?$_Wrap_alloc@V?$allocator@U?$_Tree_node@U?$pair@QAVCUser@@I@std@@PAX@std@@@std@@@2@XZ 005ef120 f i Npc.obj
 0002:00098180       ?_Getcomp@?$_Tree_comp@$0A@V?$_Tmap_traits@GIU?$less@G@std@@V?$allocator@U?$pair@$$CBGI@std@@@2@$0A@@std@@@std@@QBE?AU?$less@G@2@XZ 005ef180 f i Npc.obj
 0002:000981c0       ?_Getcomp@?$_Tree_comp@$0A@V?$_Tmap_traits@GPAVCUser@@U?$less@G@std@@V?$allocator@U?$pair@$$CBGPAVCUser@@@std@@@3@$0A@@std@@@std@@QBE?AU?$less@G@2@XZ 005ef1c0 f i Npc.obj
 0002:00098200       ?_Getcomp@?$_Tree_comp@$0A@V?$_Tmap_traits@IPAU_K_MONSTER_ITEM@@U?$less@I@std@@V?$allocator@U?$pair@$$CBIPAU_K_MONSTER_ITEM@@@std@@@3@$0A@@std@@@std@@QBE?AU?$less@I@2@XZ 005ef200 f i Npc.obj
 0002:00098240       ?_Getcomp@?$_Tree_comp@$0A@V?$_Tmap_traits@IPAU_MAKE_ITEM_GRADE_CODE@@U?$less@I@std@@V?$allocator@U?$pair@$$CBIPAU_MAKE_ITEM_GRADE_CODE@@@std@@@3@$0A@@std@@@std@@QBE?AU?$less@I@2@XZ 005ef240 f i Npc.obj
 0002:00098280       ?_Getcomp@?$_Tree_comp@$0A@V?$_Tmap_traits@IPAU_MAKE_ITEM_GROUP@@U?$less@I@std@@V?$allocator@U?$pair@$$CBIPAU_MAKE_ITEM_GROUP@@@std@@@3@$0A@@std@@@std@@QBE?AU?$less@I@2@XZ 005ef280 f i Npc.obj
 0002:000982c0       ?_Getcomp@?$_Tree_comp@$0A@V?$_Tmap_traits@IPAU_MAKE_ITEM_LARE_CODE@@U?$less@I@std@@V?$allocator@U?$pair@$$CBIPAU_MAKE_ITEM_LARE_CODE@@@std@@@3@$0A@@std@@@std@@QBE?AU?$less@I@2@XZ 005ef2c0 f i Npc.obj
 0002:00098300       ?_Getcomp@?$_Tree_comp@$0A@V?$_Tmap_traits@IPAU_MAKE_WEAPON@@U?$less@I@std@@V?$allocator@U?$pair@$$CBIPAU_MAKE_WEAPON@@@std@@@3@$0A@@std@@@std@@QBE?AU?$less@I@2@XZ 005ef300 f i Npc.obj
 0002:00098340       ?_Getcomp@?$_Tree_comp@$0A@V?$_Tmap_traits@PAVCUser@@IU?$less@PAVCUser@@@std@@V?$allocator@U?$pair@QAVCUser@@I@std@@@3@$0A@@std@@@std@@QBE?AU?$less@PAVCUser@@@2@XZ 005ef340 f i Npc.obj
 0002:00098380       ?_Isnil@?$_Tree_val@U?$_Tree_simple_types@U?$pair@$$CBGI@std@@@std@@@std@@SAAADPAU?$_Tree_node@U?$pair@$$CBGI@std@@PAX@2@@Z 005ef380 f i Npc.obj
 0002:000983c0       ?_Isnil@?$_Tree_val@U?$_Tree_simple_types@U?$pair@$$CBGPAVCUser@@@std@@@std@@@std@@SAAADPAU?$_Tree_node@U?$pair@$$CBGPAVCUser@@@std@@PAX@2@@Z 005ef3c0 f i Npc.obj
 0002:00098400       ?_Isnil@?$_Tree_val@U?$_Tree_simple_types@U?$pair@$$CBIPAU_K_MONSTER_ITEM@@@std@@@std@@@std@@SAAADPAU?$_Tree_node@U?$pair@$$CBIPAU_K_MONSTER_ITEM@@@std@@PAX@2@@Z 005ef400 f i Npc.obj
 0002:00098440       ?_Isnil@?$_Tree_val@U?$_Tree_simple_types@U?$pair@$$CBIPAU_MAKE_ITEM_GRADE_CODE@@@std@@@std@@@std@@SAAADPAU?$_Tree_node@U?$pair@$$CBIPAU_MAKE_ITEM_GRADE_CODE@@@std@@PAX@2@@Z 005ef440 f i Npc.obj
 0002:00098480       ?_Isnil@?$_Tree_val@U?$_Tree_simple_types@U?$pair@$$CBIPAU_MAKE_ITEM_GROUP@@@std@@@std@@@std@@SAAADPAU?$_Tree_node@U?$pair@$$CBIPAU_MAKE_ITEM_GROUP@@@std@@PAX@2@@Z 005ef480 f i Npc.obj
 0002:000984c0       ?_Isnil@?$_Tree_val@U?$_Tree_simple_types@U?$pair@$$CBIPAU_MAKE_ITEM_LARE_CODE@@@std@@@std@@@std@@SAAADPAU?$_Tree_node@U?$pair@$$CBIPAU_MAKE_ITEM_LARE_CODE@@@std@@PAX@2@@Z 005ef4c0 f i Npc.obj
 0002:00098500       ?_Isnil@?$_Tree_val@U?$_Tree_simple_types@U?$pair@$$CBIPAU_MAKE_WEAPON@@@std@@@std@@@std@@SAAADPAU?$_Tree_node@U?$pair@$$CBIPAU_MAKE_WEAPON@@@std@@PAX@2@@Z 005ef500 f i Npc.obj
 0002:00098540       ?_Isnil@?$_Tree_val@U?$_Tree_simple_types@U?$pair@QAVCUser@@I@std@@@std@@@std@@SAAADPAU?$_Tree_node@U?$pair@QAVCUser@@I@std@@PAX@2@@Z 005ef540 f i Npc.obj
 0002:00098580       ?_Key@?$_Tree@V?$_Tmap_traits@GIU?$less@G@std@@V?$allocator@U?$pair@$$CBGI@std@@@2@$0A@@std@@@std@@IBEABGPAU?$_Tree_node@U?$pair@$$CBGI@std@@PAX@2@@Z 005ef580 f i Npc.obj
 0002:000985f0       ?_Key@?$_Tree@V?$_Tmap_traits@GPAVCUser@@U?$less@G@std@@V?$allocator@U?$pair@$$CBGPAVCUser@@@std@@@3@$0A@@std@@@std@@IBEABGPAU?$_Tree_node@U?$pair@$$CBGPAVCUser@@@std@@PAX@2@@Z 005ef5f0 f i Npc.obj
 0002:00098660       ?_Key@?$_Tree@V?$_Tmap_traits@IPAU_K_MONSTER_ITEM@@U?$less@I@std@@V?$allocator@U?$pair@$$CBIPAU_K_MONSTER_ITEM@@@std@@@3@$0A@@std@@@std@@IBEABIPAU?$_Tree_node@U?$pair@$$CBIPAU_K_MONSTER_ITEM@@@std@@PAX@2@@Z 005ef660 f i Npc.obj
 0002:000986d0       ?_Key@?$_Tree@V?$_Tmap_traits@IPAU_MAKE_ITEM_GRADE_CODE@@U?$less@I@std@@V?$allocator@U?$pair@$$CBIPAU_MAKE_ITEM_GRADE_CODE@@@std@@@3@$0A@@std@@@std@@IBEABIPAU?$_Tree_node@U?$pair@$$CBIPAU_MAKE_ITEM_GRADE_CODE@@@std@@PAX@2@@Z 005ef6d0 f i Npc.obj
 0002:00098740       ?_Key@?$_Tree@V?$_Tmap_traits@IPAU_MAKE_ITEM_GROUP@@U?$less@I@std@@V?$allocator@U?$pair@$$CBIPAU_MAKE_ITEM_GROUP@@@std@@@3@$0A@@std@@@std@@IBEABIPAU?$_Tree_node@U?$pair@$$CBIPAU_MAKE_ITEM_GROUP@@@std@@PAX@2@@Z 005ef740 f i Npc.obj
 0002:000987b0       ?_Key@?$_Tree@V?$_Tmap_traits@IPAU_MAKE_ITEM_LARE_CODE@@U?$less@I@std@@V?$allocator@U?$pair@$$CBIPAU_MAKE_ITEM_LARE_CODE@@@std@@@3@$0A@@std@@@std@@IBEABIPAU?$_Tree_node@U?$pair@$$CBIPAU_MAKE_ITEM_LARE_CODE@@@std@@PAX@2@@Z 005ef7b0 f i Npc.obj
 0002:00098820       ?_Key@?$_Tree@V?$_Tmap_traits@IPAU_MAKE_WEAPON@@U?$less@I@std@@V?$allocator@U?$pair@$$CBIPAU_MAKE_WEAPON@@@std@@@3@$0A@@std@@@std@@IBEABIPAU?$_Tree_node@U?$pair@$$CBIPAU_MAKE_WEAPON@@@std@@PAX@2@@Z 005ef820 f i Npc.obj
 0002:00098890       ?_Key@?$_Tree@V?$_Tmap_traits@PAVCUser@@IU?$less@PAVCUser@@@std@@V?$allocator@U?$pair@QAVCUser@@I@std@@@3@$0A@@std@@@std@@IBEABQAVCUser@@PAU?$_Tree_node@U?$pair@QAVCUser@@I@std@@PAX@2@@Z 005ef890 f i Npc.obj
 0002:00098900       ?_Kfn@?$_Tree@V?$_Tmap_traits@GIU?$less@G@std@@V?$allocator@U?$pair@$$CBGI@std@@@2@$0A@@std@@@std@@IBEABGABU?$pair@$$CBGI@2@@Z 005ef900 f i Npc.obj
 0002:00098960       ?_Kfn@?$_Tree@V?$_Tmap_traits@GPAVCUser@@U?$less@G@std@@V?$allocator@U?$pair@$$CBGPAVCUser@@@std@@@3@$0A@@std@@@std@@IBEABGABU?$pair@$$CBGPAVCUser@@@2@@Z 005ef960 f i Npc.obj
 0002:000989c0       ?_Kfn@?$_Tree@V?$_Tmap_traits@IPAU_K_MONSTER_ITEM@@U?$less@I@std@@V?$allocator@U?$pair@$$CBIPAU_K_MONSTER_ITEM@@@std@@@3@$0A@@std@@@std@@IBEABIABU?$pair@$$CBIPAU_K_MONSTER_ITEM@@@2@@Z 005ef9c0 f i Npc.obj
 0002:00098a20       ?_Kfn@?$_Tree@V?$_Tmap_traits@IPAU_MAKE_ITEM_GRADE_CODE@@U?$less@I@std@@V?$allocator@U?$pair@$$CBIPAU_MAKE_ITEM_GRADE_CODE@@@std@@@3@$0A@@std@@@std@@IBEABIABU?$pair@$$CBIPAU_MAKE_ITEM_GRADE_CODE@@@2@@Z 005efa20 f i Npc.obj
 0002:00098a80       ?_Kfn@?$_Tree@V?$_Tmap_traits@IPAU_MAKE_ITEM_GROUP@@U?$less@I@std@@V?$allocator@U?$pair@$$CBIPAU_MAKE_ITEM_GROUP@@@std@@@3@$0A@@std@@@std@@IBEABIABU?$pair@$$CBIPAU_MAKE_ITEM_GROUP@@@2@@Z 005efa80 f i Npc.obj
 0002:00098ae0       ?_Kfn@?$_Tree@V?$_Tmap_traits@IPAU_MAKE_ITEM_LARE_CODE@@U?$less@I@std@@V?$allocator@U?$pair@$$CBIPAU_MAKE_ITEM_LARE_CODE@@@std@@@3@$0A@@std@@@std@@IBEABIABU?$pair@$$CBIPAU_MAKE_ITEM_LARE_CODE@@@2@@Z 005efae0 f i Npc.obj
 0002:00098b40       ?_Kfn@?$_Tree@V?$_Tmap_traits@IPAU_MAKE_WEAPON@@U?$less@I@std@@V?$allocator@U?$pair@$$CBIPAU_MAKE_WEAPON@@@std@@@3@$0A@@std@@@std@@IBEABIABU?$pair@$$CBIPAU_MAKE_WEAPON@@@2@@Z 005efb40 f i Npc.obj
 0002:00098ba0       ?_Kfn@?$_Tree@V?$_Tmap_traits@PAVCUser@@IU?$less@PAVCUser@@@std@@V?$allocator@U?$pair@QAVCUser@@I@std@@@3@$0A@@std@@@std@@IBEABQAVCUser@@ABU?$pair@QAVCUser@@I@2@@Z 005efba0 f i Npc.obj
 0002:00098c00       ?_Lbound@?$_Tree@V?$_Tmap_traits@GIU?$less@G@std@@V?$allocator@U?$pair@$$CBGI@std@@@2@$0A@@std@@@std@@IAEPAU?$_Tree_node@U?$pair@$$CBGI@std@@PAX@2@ABG@Z 005efc00 f i Npc.obj
 0002:00098d10       ?_Lbound@?$_Tree@V?$_Tmap_traits@GPAVCUser@@U?$less@G@std@@V?$allocator@U?$pair@$$CBGPAVCUser@@@std@@@3@$0A@@std@@@std@@IAEPAU?$_Tree_node@U?$pair@$$CBGPAVCUser@@@std@@PAX@2@ABG@Z 005efd10 f i Npc.obj
 0002:00098e20       ?_Lbound@?$_Tree@V?$_Tmap_traits@IPAU_K_MONSTER_ITEM@@U?$less@I@std@@V?$allocator@U?$pair@$$CBIPAU_K_MONSTER_ITEM@@@std@@@3@$0A@@std@@@std@@IAEPAU?$_Tree_node@U?$pair@$$CBIPAU_K_MONSTER_ITEM@@@std@@PAX@2@ABI@Z 005efe20 f i Npc.obj
 0002:00098f30       ?_Lbound@?$_Tree@V?$_Tmap_traits@IPAU_MAKE_ITEM_GRADE_CODE@@U?$less@I@std@@V?$allocator@U?$pair@$$CBIPAU_MAKE_ITEM_GRADE_CODE@@@std@@@3@$0A@@std@@@std@@IAEPAU?$_Tree_node@U?$pair@$$CBIPAU_MAKE_ITEM_GRADE_CODE@@@std@@PAX@2@ABI@Z 005eff30 f i Npc.obj
 0002:00099040       ?_Lbound@?$_Tree@V?$_Tmap_traits@IPAU_MAKE_ITEM_GROUP@@U?$less@I@std@@V?$allocator@U?$pair@$$CBIPAU_MAKE_ITEM_GROUP@@@std@@@3@$0A@@std@@@std@@IAEPAU?$_Tree_node@U?$pair@$$CBIPAU_MAKE_ITEM_GROUP@@@std@@PAX@2@ABI@Z 005f0040 f i Npc.obj
 0002:00099150       ?_Lbound@?$_Tree@V?$_Tmap_traits@IPAU_MAKE_ITEM_LARE_CODE@@U?$less@I@std@@V?$allocator@U?$pair@$$CBIPAU_MAKE_ITEM_LARE_CODE@@@std@@@3@$0A@@std@@@std@@IAEPAU?$_Tree_node@U?$pair@$$CBIPAU_MAKE_ITEM_LARE_CODE@@@std@@PAX@2@ABI@Z 005f0150 f i Npc.obj
 0002:00099260       ?_Lbound@?$_Tree@V?$_Tmap_traits@IPAU_MAKE_WEAPON@@U?$less@I@std@@V?$allocator@U?$pair@$$CBIPAU_MAKE_WEAPON@@@std@@@3@$0A@@std@@@std@@IAEPAU?$_Tree_node@U?$pair@$$CBIPAU_MAKE_WEAPON@@@std@@PAX@2@ABI@Z 005f0260 f i Npc.obj
 0002:00099370       ?_Lbound@?$_Tree@V?$_Tmap_traits@PAVCUser@@IU?$less@PAVCUser@@@std@@V?$allocator@U?$pair@QAVCUser@@I@std@@@3@$0A@@std@@@std@@IAEPAU?$_Tree_node@U?$pair@QAVCUser@@I@std@@PAX@2@ABQAVCUser@@@Z 005f0370 f i Npc.obj
 0002:00099480       ?_Left@?$_Tree_val@U?$_Tree_simple_types@U?$pair@$$CBGI@std@@@std@@@std@@SAAAPAU?$_Tree_node@U?$pair@$$CBGI@std@@PAX@2@PAU32@@Z 005f0480 f i Npc.obj
 0002:000994c0       ?_Left@?$_Tree_val@U?$_Tree_simple_types@U?$pair@$$CBGPAVCUser@@@std@@@std@@@std@@SAAAPAU?$_Tree_node@U?$pair@$$CBGPAVCUser@@@std@@PAX@2@PAU32@@Z 005f04c0 f i Npc.obj
 0002:00099500       ?_Left@?$_Tree_val@U?$_Tree_simple_types@U?$pair@$$CBIPAU_K_MONSTER_ITEM@@@std@@@std@@@std@@SAAAPAU?$_Tree_node@U?$pair@$$CBIPAU_K_MONSTER_ITEM@@@std@@PAX@2@PAU32@@Z 005f0500 f i Npc.obj
 0002:00099540       ?_Left@?$_Tree_val@U?$_Tree_simple_types@U?$pair@$$CBIPAU_MAKE_ITEM_GRADE_CODE@@@std@@@std@@@std@@SAAAPAU?$_Tree_node@U?$pair@$$CBIPAU_MAKE_ITEM_GRADE_CODE@@@std@@PAX@2@PAU32@@Z 005f0540 f i Npc.obj
 0002:00099580       ?_Left@?$_Tree_val@U?$_Tree_simple_types@U?$pair@$$CBIPAU_MAKE_ITEM_GROUP@@@std@@@std@@@std@@SAAAPAU?$_Tree_node@U?$pair@$$CBIPAU_MAKE_ITEM_GROUP@@@std@@PAX@2@PAU32@@Z 005f0580 f i Npc.obj
 0002:000995c0       ?_Left@?$_Tree_val@U?$_Tree_simple_types@U?$pair@$$CBIPAU_MAKE_ITEM_LARE_CODE@@@std@@@std@@@std@@SAAAPAU?$_Tree_node@U?$pair@$$CBIPAU_MAKE_ITEM_LARE_CODE@@@std@@PAX@2@PAU32@@Z 005f05c0 f i Npc.obj
 0002:00099600       ?_Left@?$_Tree_val@U?$_Tree_simple_types@U?$pair@$$CBIPAU_MAKE_WEAPON@@@std@@@std@@@std@@SAAAPAU?$_Tree_node@U?$pair@$$CBIPAU_MAKE_WEAPON@@@std@@PAX@2@PAU32@@Z 005f0600 f i Npc.obj
 0002:00099640       ?_Left@?$_Tree_val@U?$_Tree_simple_types@U?$pair@QAVCUser@@I@std@@@std@@@std@@SAAAPAU?$_Tree_node@U?$pair@QAVCUser@@I@std@@PAX@2@PAU32@@Z 005f0640 f i Npc.obj
 0002:00099680       ?_Lmost@?$_Tree@V?$_Tmap_traits@GIU?$less@G@std@@V?$allocator@U?$pair@$$CBGI@std@@@2@$0A@@std@@@std@@IBEAAPAU?$_Tree_node@U?$pair@$$CBGI@std@@PAX@2@XZ 005f0680 f i Npc.obj
 0002:000996e0       ?_Lmost@?$_Tree@V?$_Tmap_traits@GPAVCUser@@U?$less@G@std@@V?$allocator@U?$pair@$$CBGPAVCUser@@@std@@@3@$0A@@std@@@std@@IBEAAPAU?$_Tree_node@U?$pair@$$CBGPAVCUser@@@std@@PAX@2@XZ 005f06e0 f i Npc.obj
 0002:00099740       ?_Lmost@?$_Tree@V?$_Tmap_traits@PAVCUser@@IU?$less@PAVCUser@@@std@@V?$allocator@U?$pair@QAVCUser@@I@std@@@3@$0A@@std@@@std@@IBEAAPAU?$_Tree_node@U?$pair@QAVCUser@@I@std@@PAX@2@XZ 005f0740 f i Npc.obj
 0002:000997a0       ?_Load_acquire_2@std@@YAGPCG@Z 005f07a0 f i Npc.obj
 0002:00099810       ?_Load_relaxed_2@std@@YAGPCG@Z 005f0810 f i Npc.obj
 0002:00099880       ?_Load_seq_cst_2@std@@YAGPCG@Z 005f0880 f i Npc.obj
 0002:000998f0       ?_Lrotate@?$_Tree@V?$_Tmap_traits@GIU?$less@G@std@@V?$allocator@U?$pair@$$CBGI@std@@@2@$0A@@std@@@std@@IAEXPAU?$_Tree_node@U?$pair@$$CBGI@std@@PAX@2@@Z 005f08f0 f i Npc.obj
 0002:00099aa0       ?_Lrotate@?$_Tree@V?$_Tmap_traits@GPAVCUser@@U?$less@G@std@@V?$allocator@U?$pair@$$CBGPAVCUser@@@std@@@3@$0A@@std@@@std@@IAEXPAU?$_Tree_node@U?$pair@$$CBGPAVCUser@@@std@@PAX@2@@Z 005f0aa0 f i Npc.obj
 0002:00099c50       ?_Lrotate@?$_Tree@V?$_Tmap_traits@PAVCUser@@IU?$less@PAVCUser@@@std@@V?$allocator@U?$pair@QAVCUser@@I@std@@@3@$0A@@std@@@std@@IAEXPAU?$_Tree_node@U?$pair@QAVCUser@@I@std@@PAX@2@@Z 005f0c50 f i Npc.obj
 0002:00099e00       ?_Max@?$_Tree_val@U?$_Tree_simple_types@U?$pair@$$CBGI@std@@@std@@@std@@SAPAU?$_Tree_node@U?$pair@$$CBGI@std@@PAX@2@PAU32@@Z 005f0e00 f i Npc.obj
 0002:00099e80       ?_Max@?$_Tree_val@U?$_Tree_simple_types@U?$pair@$$CBGPAVCUser@@@std@@@std@@@std@@SAPAU?$_Tree_node@U?$pair@$$CBGPAVCUser@@@std@@PAX@2@PAU32@@Z 005f0e80 f i Npc.obj
 0002:00099f00       ?_Max@?$_Tree_val@U?$_Tree_simple_types@U?$pair@QAVCUser@@I@std@@@std@@@std@@SAPAU?$_Tree_node@U?$pair@QAVCUser@@I@std@@PAX@2@PAU32@@Z 005f0f00 f i Npc.obj
 0002:00099f80       ?_Min@?$_Tree_val@U?$_Tree_simple_types@U?$pair@$$CBGI@std@@@std@@@std@@SAPAU?$_Tree_node@U?$pair@$$CBGI@std@@PAX@2@PAU32@@Z 005f0f80 f i Npc.obj
 0002:0009a000       ?_Min@?$_Tree_val@U?$_Tree_simple_types@U?$pair@$$CBGPAVCUser@@@std@@@std@@@std@@SAPAU?$_Tree_node@U?$pair@$$CBGPAVCUser@@@std@@PAX@2@PAU32@@Z 005f1000 f i Npc.obj
 0002:0009a080       ?_Min@?$_Tree_val@U?$_Tree_simple_types@U?$pair@QAVCUser@@I@std@@@std@@@std@@SAPAU?$_Tree_node@U?$pair@QAVCUser@@I@std@@PAX@2@PAU32@@Z 005f1080 f i Npc.obj
 0002:0009a100       ?_Mynode@?$_Tree_unchecked_const_iterator@V?$_Tree_val@U?$_Tree_simple_types@U?$pair@$$CBGI@std@@@std@@@std@@U_Iterator_base12@2@@std@@QBEPAU?$_Tree_node@U?$pair@$$CBGI@std@@PAX@2@XZ 005f1100 f i Npc.obj
 0002:0009a140       ?_Mynode@?$_Tree_unchecked_const_iterator@V?$_Tree_val@U?$_Tree_simple_types@U?$pair@$$CBGPAVCUser@@@std@@@std@@@std@@U_Iterator_base12@2@@std@@QBEPAU?$_Tree_node@U?$pair@$$CBGPAVCUser@@@std@@PAX@2@XZ 005f1140 f i Npc.obj
 0002:0009a180       ?_Mynode@?$_Tree_unchecked_const_iterator@V?$_Tree_val@U?$_Tree_simple_types@U?$pair@$$CBIPAU_K_MONSTER_ITEM@@@std@@@std@@@std@@U_Iterator_base12@2@@std@@QBEPAU?$_Tree_node@U?$pair@$$CBIPAU_K_MONSTER_ITEM@@@std@@PAX@2@XZ 005f1180 f i Npc.obj
 0002:0009a1c0       ?_Mynode@?$_Tree_unchecked_const_iterator@V?$_Tree_val@U?$_Tree_simple_types@U?$pair@$$CBIPAU_MAKE_ITEM_GRADE_CODE@@@std@@@std@@@std@@U_Iterator_base12@2@@std@@QBEPAU?$_Tree_node@U?$pair@$$CBIPAU_MAKE_ITEM_GRADE_CODE@@@std@@PAX@2@XZ 005f11c0 f i Npc.obj
 0002:0009a200       ?_Mynode@?$_Tree_unchecked_const_iterator@V?$_Tree_val@U?$_Tree_simple_types@U?$pair@$$CBIPAU_MAKE_ITEM_GROUP@@@std@@@std@@@std@@U_Iterator_base12@2@@std@@QBEPAU?$_Tree_node@U?$pair@$$CBIPAU_MAKE_ITEM_GROUP@@@std@@PAX@2@XZ 005f1200 f i Npc.obj
 0002:0009a240       ?_Mynode@?$_Tree_unchecked_const_iterator@V?$_Tree_val@U?$_Tree_simple_types@U?$pair@$$CBIPAU_MAKE_ITEM_LARE_CODE@@@std@@@std@@@std@@U_Iterator_base12@2@@std@@QBEPAU?$_Tree_node@U?$pair@$$CBIPAU_MAKE_ITEM_LARE_CODE@@@std@@PAX@2@XZ 005f1240 f i Npc.obj
 0002:0009a280       ?_Mynode@?$_Tree_unchecked_const_iterator@V?$_Tree_val@U?$_Tree_simple_types@U?$pair@$$CBIPAU_MAKE_WEAPON@@@std@@@std@@@std@@U_Iterator_base12@2@@std@@QBEPAU?$_Tree_node@U?$pair@$$CBIPAU_MAKE_WEAPON@@@std@@PAX@2@XZ 005f1280 f i Npc.obj
 0002:0009a2c0       ?_Mynode@?$_Tree_unchecked_const_iterator@V?$_Tree_val@U?$_Tree_simple_types@U?$pair@QAVCUser@@I@std@@@std@@@std@@U_Iterator_base12@2@@std@@QBEPAU?$_Tree_node@U?$pair@QAVCUser@@I@std@@PAX@2@XZ 005f12c0 f i Npc.obj
 0002:0009a300       ?_Myval@?$_Tree_val@U?$_Tree_simple_types@U?$pair@$$CBGI@std@@@std@@@std@@SAAAU?$pair@$$CBGI@2@PAU?$_Tree_node@U?$pair@$$CBGI@std@@PAX@2@@Z 005f1300 f i Npc.obj
 0002:0009a340       ?_Myval@?$_Tree_val@U?$_Tree_simple_types@U?$pair@$$CBGPAVCUser@@@std@@@std@@@std@@SAAAU?$pair@$$CBGPAVCUser@@@2@PAU?$_Tree_node@U?$pair@$$CBGPAVCUser@@@std@@PAX@2@@Z 005f1340 f i Npc.obj
 0002:0009a380       ?_Myval@?$_Tree_val@U?$_Tree_simple_types@U?$pair@$$CBIPAU_K_MONSTER_ITEM@@@std@@@std@@@std@@SAAAU?$pair@$$CBIPAU_K_MONSTER_ITEM@@@2@PAU?$_Tree_node@U?$pair@$$CBIPAU_K_MONSTER_ITEM@@@std@@PAX@2@@Z 005f1380 f i Npc.obj
 0002:0009a3c0       ?_Myval@?$_Tree_val@U?$_Tree_simple_types@U?$pair@$$CBIPAU_MAKE_ITEM_GRADE_CODE@@@std@@@std@@@std@@SAAAU?$pair@$$CBIPAU_MAKE_ITEM_GRADE_CODE@@@2@PAU?$_Tree_node@U?$pair@$$CBIPAU_MAKE_ITEM_GRADE_CODE@@@std@@PAX@2@@Z 005f13c0 f i Npc.obj
 0002:0009a400       ?_Myval@?$_Tree_val@U?$_Tree_simple_types@U?$pair@$$CBIPAU_MAKE_ITEM_GROUP@@@std@@@std@@@std@@SAAAU?$pair@$$CBIPAU_MAKE_ITEM_GROUP@@@2@PAU?$_Tree_node@U?$pair@$$CBIPAU_MAKE_ITEM_GROUP@@@std@@PAX@2@@Z 005f1400 f i Npc.obj
 0002:0009a440       ?_Myval@?$_Tree_val@U?$_Tree_simple_types@U?$pair@$$CBIPAU_MAKE_ITEM_LARE_CODE@@@std@@@std@@@std@@SAAAU?$pair@$$CBIPAU_MAKE_ITEM_LARE_CODE@@@2@PAU?$_Tree_node@U?$pair@$$CBIPAU_MAKE_ITEM_LARE_CODE@@@std@@PAX@2@@Z 005f1440 f i Npc.obj
 0002:0009a480       ?_Myval@?$_Tree_val@U?$_Tree_simple_types@U?$pair@$$CBIPAU_MAKE_WEAPON@@@std@@@std@@@std@@SAAAU?$pair@$$CBIPAU_MAKE_WEAPON@@@2@PAU?$_Tree_node@U?$pair@$$CBIPAU_MAKE_WEAPON@@@std@@PAX@2@@Z 005f1480 f i Npc.obj
 0002:0009a4c0       ?_Myval@?$_Tree_val@U?$_Tree_simple_types@U?$pair@QAVCUser@@I@std@@@std@@@std@@SAAAU?$pair@QAVCUser@@I@2@PAU?$_Tree_node@U?$pair@QAVCUser@@I@std@@PAX@2@@Z 005f14c0 f i Npc.obj
 0002:0009a500       ?_Orphan_ptr@?$_Tree@V?$_Tmap_traits@GIU?$less@G@std@@V?$allocator@U?$pair@$$CBGI@std@@@2@$0A@@std@@@std@@IBEXAAV12@PAU?$_Tree_node@U?$pair@$$CBGI@std@@PAX@2@@Z 005f1500 f i Npc.obj
 0002:0009a660       ?_Orphan_ptr@?$_Tree@V?$_Tmap_traits@GPAVCUser@@U?$less@G@std@@V?$allocator@U?$pair@$$CBGPAVCUser@@@std@@@3@$0A@@std@@@std@@IBEXAAV12@PAU?$_Tree_node@U?$pair@$$CBGPAVCUser@@@std@@PAX@2@@Z 005f1660 f i Npc.obj
 0002:0009a7c0       ?_Orphan_ptr@?$_Tree@V?$_Tmap_traits@PAVCUser@@IU?$less@PAVCUser@@@std@@V?$allocator@U?$pair@QAVCUser@@I@std@@@3@$0A@@std@@@std@@IBEXAAV12@PAU?$_Tree_node@U?$pair@QAVCUser@@I@std@@PAX@2@@Z 005f17c0 f i Npc.obj
 0002:0009a920       ?_Parent@?$_Tree_val@U?$_Tree_simple_types@U?$pair@$$CBGI@std@@@std@@@std@@SAAAPAU?$_Tree_node@U?$pair@$$CBGI@std@@PAX@2@PAU32@@Z 005f1920 f i Npc.obj
 0002:0009a960       ?_Parent@?$_Tree_val@U?$_Tree_simple_types@U?$pair@$$CBGPAVCUser@@@std@@@std@@@std@@SAAAPAU?$_Tree_node@U?$pair@$$CBGPAVCUser@@@std@@PAX@2@PAU32@@Z 005f1960 f i Npc.obj
 0002:0009a9a0       ?_Parent@?$_Tree_val@U?$_Tree_simple_types@U?$pair@$$CBIPAU_K_MONSTER_ITEM@@@std@@@std@@@std@@SAAAPAU?$_Tree_node@U?$pair@$$CBIPAU_K_MONSTER_ITEM@@@std@@PAX@2@PAU32@@Z 005f19a0 f i Npc.obj
 0002:0009a9e0       ?_Parent@?$_Tree_val@U?$_Tree_simple_types@U?$pair@$$CBIPAU_MAKE_ITEM_GRADE_CODE@@@std@@@std@@@std@@SAAAPAU?$_Tree_node@U?$pair@$$CBIPAU_MAKE_ITEM_GRADE_CODE@@@std@@PAX@2@PAU32@@Z 005f19e0 f i Npc.obj
 0002:0009aa20       ?_Parent@?$_Tree_val@U?$_Tree_simple_types@U?$pair@$$CBIPAU_MAKE_ITEM_GROUP@@@std@@@std@@@std@@SAAAPAU?$_Tree_node@U?$pair@$$CBIPAU_MAKE_ITEM_GROUP@@@std@@PAX@2@PAU32@@Z 005f1a20 f i Npc.obj
 0002:0009aa60       ?_Parent@?$_Tree_val@U?$_Tree_simple_types@U?$pair@$$CBIPAU_MAKE_ITEM_LARE_CODE@@@std@@@std@@@std@@SAAAPAU?$_Tree_node@U?$pair@$$CBIPAU_MAKE_ITEM_LARE_CODE@@@std@@PAX@2@PAU32@@Z 005f1a60 f i Npc.obj
 0002:0009aaa0       ?_Parent@?$_Tree_val@U?$_Tree_simple_types@U?$pair@$$CBIPAU_MAKE_WEAPON@@@std@@@std@@@std@@SAAAPAU?$_Tree_node@U?$pair@$$CBIPAU_MAKE_WEAPON@@@std@@PAX@2@PAU32@@Z 005f1aa0 f i Npc.obj
 0002:0009aae0       ?_Parent@?$_Tree_val@U?$_Tree_simple_types@U?$pair@QAVCUser@@I@std@@@std@@@std@@SAAAPAU?$_Tree_node@U?$pair@QAVCUser@@I@std@@PAX@2@PAU32@@Z 005f1ae0 f i Npc.obj
 0002:0009ab20       ?_Right@?$_Tree_val@U?$_Tree_simple_types@U?$pair@$$CBGI@std@@@std@@@std@@SAAAPAU?$_Tree_node@U?$pair@$$CBGI@std@@PAX@2@PAU32@@Z 005f1b20 f i Npc.obj
 0002:0009ab60       ?_Right@?$_Tree_val@U?$_Tree_simple_types@U?$pair@$$CBGPAVCUser@@@std@@@std@@@std@@SAAAPAU?$_Tree_node@U?$pair@$$CBGPAVCUser@@@std@@PAX@2@PAU32@@Z 005f1b60 f i Npc.obj
 0002:0009aba0       ?_Right@?$_Tree_val@U?$_Tree_simple_types@U?$pair@$$CBIPAU_K_MONSTER_ITEM@@@std@@@std@@@std@@SAAAPAU?$_Tree_node@U?$pair@$$CBIPAU_K_MONSTER_ITEM@@@std@@PAX@2@PAU32@@Z 005f1ba0 f i Npc.obj
 0002:0009abe0       ?_Right@?$_Tree_val@U?$_Tree_simple_types@U?$pair@$$CBIPAU_MAKE_ITEM_GRADE_CODE@@@std@@@std@@@std@@SAAAPAU?$_Tree_node@U?$pair@$$CBIPAU_MAKE_ITEM_GRADE_CODE@@@std@@PAX@2@PAU32@@Z 005f1be0 f i Npc.obj
 0002:0009ac20       ?_Right@?$_Tree_val@U?$_Tree_simple_types@U?$pair@$$CBIPAU_MAKE_ITEM_GROUP@@@std@@@std@@@std@@SAAAPAU?$_Tree_node@U?$pair@$$CBIPAU_MAKE_ITEM_GROUP@@@std@@PAX@2@PAU32@@Z 005f1c20 f i Npc.obj
 0002:0009ac60       ?_Right@?$_Tree_val@U?$_Tree_simple_types@U?$pair@$$CBIPAU_MAKE_ITEM_LARE_CODE@@@std@@@std@@@std@@SAAAPAU?$_Tree_node@U?$pair@$$CBIPAU_MAKE_ITEM_LARE_CODE@@@std@@PAX@2@PAU32@@Z 005f1c60 f i Npc.obj
 0002:0009aca0       ?_Right@?$_Tree_val@U?$_Tree_simple_types@U?$pair@$$CBIPAU_MAKE_WEAPON@@@std@@@std@@@std@@SAAAPAU?$_Tree_node@U?$pair@$$CBIPAU_MAKE_WEAPON@@@std@@PAX@2@PAU32@@Z 005f1ca0 f i Npc.obj
 0002:0009ace0       ?_Right@?$_Tree_val@U?$_Tree_simple_types@U?$pair@QAVCUser@@I@std@@@std@@@std@@SAAAPAU?$_Tree_node@U?$pair@QAVCUser@@I@std@@PAX@2@PAU32@@Z 005f1ce0 f i Npc.obj
 0002:0009ad20       ?_Rmost@?$_Tree@V?$_Tmap_traits@GIU?$less@G@std@@V?$allocator@U?$pair@$$CBGI@std@@@2@$0A@@std@@@std@@IBEAAPAU?$_Tree_node@U?$pair@$$CBGI@std@@PAX@2@XZ 005f1d20 f i Npc.obj
 0002:0009ad80       ?_Rmost@?$_Tree@V?$_Tmap_traits@GPAVCUser@@U?$less@G@std@@V?$allocator@U?$pair@$$CBGPAVCUser@@@std@@@3@$0A@@std@@@std@@IBEAAPAU?$_Tree_node@U?$pair@$$CBGPAVCUser@@@std@@PAX@2@XZ 005f1d80 f i Npc.obj
 0002:0009ade0       ?_Rmost@?$_Tree@V?$_Tmap_traits@PAVCUser@@IU?$less@PAVCUser@@@std@@V?$allocator@U?$pair@QAVCUser@@I@std@@@3@$0A@@std@@@std@@IBEAAPAU?$_Tree_node@U?$pair@QAVCUser@@I@std@@PAX@2@XZ 005f1de0 f i Npc.obj
 0002:0009ae40       ?_Root@?$_Tree@V?$_Tmap_traits@GIU?$less@G@std@@V?$allocator@U?$pair@$$CBGI@std@@@2@$0A@@std@@@std@@IBEAAPAU?$_Tree_node@U?$pair@$$CBGI@std@@PAX@2@XZ 005f1e40 f i Npc.obj
 0002:0009aea0       ?_Root@?$_Tree@V?$_Tmap_traits@GPAVCUser@@U?$less@G@std@@V?$allocator@U?$pair@$$CBGPAVCUser@@@std@@@3@$0A@@std@@@std@@IBEAAPAU?$_Tree_node@U?$pair@$$CBGPAVCUser@@@std@@PAX@2@XZ 005f1ea0 f i Npc.obj
 0002:0009af00       ?_Root@?$_Tree@V?$_Tmap_traits@IPAU_K_MONSTER_ITEM@@U?$less@I@std@@V?$allocator@U?$pair@$$CBIPAU_K_MONSTER_ITEM@@@std@@@3@$0A@@std@@@std@@IBEAAPAU?$_Tree_node@U?$pair@$$CBIPAU_K_MONSTER_ITEM@@@std@@PAX@2@XZ 005f1f00 f i Npc.obj
 0002:0009af60       ?_Root@?$_Tree@V?$_Tmap_traits@IPAU_MAKE_ITEM_GRADE_CODE@@U?$less@I@std@@V?$allocator@U?$pair@$$CBIPAU_MAKE_ITEM_GRADE_CODE@@@std@@@3@$0A@@std@@@std@@IBEAAPAU?$_Tree_node@U?$pair@$$CBIPAU_MAKE_ITEM_GRADE_CODE@@@std@@PAX@2@XZ 005f1f60 f i Npc.obj
 0002:0009afc0       ?_Root@?$_Tree@V?$_Tmap_traits@IPAU_MAKE_ITEM_GROUP@@U?$less@I@std@@V?$allocator@U?$pair@$$CBIPAU_MAKE_ITEM_GROUP@@@std@@@3@$0A@@std@@@std@@IBEAAPAU?$_Tree_node@U?$pair@$$CBIPAU_MAKE_ITEM_GROUP@@@std@@PAX@2@XZ 005f1fc0 f i Npc.obj
 0002:0009b020       ?_Root@?$_Tree@V?$_Tmap_traits@IPAU_MAKE_ITEM_LARE_CODE@@U?$less@I@std@@V?$allocator@U?$pair@$$CBIPAU_MAKE_ITEM_LARE_CODE@@@std@@@3@$0A@@std@@@std@@IBEAAPAU?$_Tree_node@U?$pair@$$CBIPAU_MAKE_ITEM_LARE_CODE@@@std@@PAX@2@XZ 005f2020 f i Npc.obj
 0002:0009b080       ?_Root@?$_Tree@V?$_Tmap_traits@IPAU_MAKE_WEAPON@@U?$less@I@std@@V?$allocator@U?$pair@$$CBIPAU_MAKE_WEAPON@@@std@@@3@$0A@@std@@@std@@IBEAAPAU?$_Tree_node@U?$pair@$$CBIPAU_MAKE_WEAPON@@@std@@PAX@2@XZ 005f2080 f i Npc.obj
 0002:0009b0e0       ?_Root@?$_Tree@V?$_Tmap_traits@PAVCUser@@IU?$less@PAVCUser@@@std@@V?$allocator@U?$pair@QAVCUser@@I@std@@@3@$0A@@std@@@std@@IBEAAPAU?$_Tree_node@U?$pair@QAVCUser@@I@std@@PAX@2@XZ 005f20e0 f i Npc.obj
 0002:0009b140       ?_Rrotate@?$_Tree@V?$_Tmap_traits@GIU?$less@G@std@@V?$allocator@U?$pair@$$CBGI@std@@@2@$0A@@std@@@std@@IAEXPAU?$_Tree_node@U?$pair@$$CBGI@std@@PAX@2@@Z 005f2140 f i Npc.obj
 0002:0009b2f0       ?_Rrotate@?$_Tree@V?$_Tmap_traits@GPAVCUser@@U?$less@G@std@@V?$allocator@U?$pair@$$CBGPAVCUser@@@std@@@3@$0A@@std@@@std@@IAEXPAU?$_Tree_node@U?$pair@$$CBGPAVCUser@@@std@@PAX@2@@Z 005f22f0 f i Npc.obj
 0002:0009b4a0       ?_Rrotate@?$_Tree@V?$_Tmap_traits@PAVCUser@@IU?$less@PAVCUser@@@std@@V?$allocator@U?$pair@QAVCUser@@I@std@@@3@$0A@@std@@@std@@IAEXPAU?$_Tree_node@U?$pair@QAVCUser@@I@std@@PAX@2@@Z 005f24a0 f i Npc.obj
 0002:0009b650       ?_Tidy@?$_Tree@V?$_Tmap_traits@GIU?$less@G@std@@V?$allocator@U?$pair@$$CBGI@std@@@2@$0A@@std@@@std@@IAEXXZ 005f2650 f i Npc.obj
 0002:0009b7e0       ?_Tidy@?$_Tree@V?$_Tmap_traits@GPAVCUser@@U?$less@G@std@@V?$allocator@U?$pair@$$CBGPAVCUser@@@std@@@3@$0A@@std@@@std@@IAEXXZ 005f27e0 f i Npc.obj
 0002:0009b970       ?_Tidy@?$_Tree@V?$_Tmap_traits@PAVCUser@@IU?$less@PAVCUser@@@std@@V?$allocator@U?$pair@QAVCUser@@I@std@@@3@$0A@@std@@@std@@IAEXXZ 005f2970 f i Npc.obj
 0002:0009bb00       ?acos@@YAMM@Z              005f2b00 f i Npc.obj
 0002:0009bb60       ?allocate@?$_Wrap_alloc@V?$allocator@U?$_Tree_node@U?$pair@$$CBGI@std@@PAX@std@@@std@@@std@@QAEPAU?$_Tree_node@U?$pair@$$CBGI@std@@PAX@2@I@Z 005f2b60 f i Npc.obj
 0002:0009bbc0       ?allocate@?$_Wrap_alloc@V?$allocator@U?$_Tree_node@U?$pair@$$CBGPAVCUser@@@std@@PAX@std@@@std@@@std@@QAEPAU?$_Tree_node@U?$pair@$$CBGPAVCUser@@@std@@PAX@2@I@Z 005f2bc0 f i Npc.obj
 0002:0009bc20       ?allocate@?$_Wrap_alloc@V?$allocator@U?$_Tree_node@U?$pair@QAVCUser@@I@std@@PAX@std@@@std@@@std@@QAEPAU?$_Tree_node@U?$pair@QAVCUser@@I@std@@PAX@2@I@Z 005f2c20 f i Npc.obj
 0002:0009bc80       ?allocate@?$allocator@U?$_Tree_node@U?$pair@$$CBGI@std@@PAX@std@@@std@@QAEPAU?$_Tree_node@U?$pair@$$CBGI@std@@PAX@2@I@Z 005f2c80 f i Npc.obj
 0002:0009bce0       ?allocate@?$allocator@U?$_Tree_node@U?$pair@$$CBGPAVCUser@@@std@@PAX@std@@@std@@QAEPAU?$_Tree_node@U?$pair@$$CBGPAVCUser@@@std@@PAX@2@I@Z 005f2ce0 f i Npc.obj
 0002:0009bd40       ?allocate@?$allocator@U?$_Tree_node@U?$pair@QAVCUser@@I@std@@PAX@std@@@std@@QAEPAU?$_Tree_node@U?$pair@QAVCUser@@I@std@@PAX@2@I@Z 005f2d40 f i Npc.obj
 0002:0009bda0       ?asin@@YAMM@Z              005f2da0 f i Npc.obj
 0002:0009be00       ?assign@?$basic_string@DU?$char_traits@D@std@@V?$allocator@D@2@@std@@QAEAAV12@ABV12@@Z 005f2e00 f i Npc.obj
 0002:0009be60       ?atomic_fetch_add@std@@YAGPAUatomic_ushort@1@G@Z 005f2e60 f i Npc.obj
 0002:0009bec0       ?atomic_fetch_add_explicit@std@@YAGPAUatomic_ushort@1@GW4memory_order@1@@Z 005f2ec0 f i Npc.obj
 0002:0009bf20       ?atomic_load@std@@YAGPBUatomic_ushort@1@@Z 005f2f20 f i Npc.obj
 0002:0009bf70       ?atomic_load_explicit@std@@YAGPBUatomic_ushort@1@W4memory_order@1@@Z 005f2f70 f i Npc.obj
 0002:0009bfd0       ?begin@?$_Tree@V?$_Tmap_traits@GIU?$less@G@std@@V?$allocator@U?$pair@$$CBGI@std@@@2@$0A@@std@@@std@@QAE?AV?$_Tree_iterator@V?$_Tree_val@U?$_Tree_simple_types@U?$pair@$$CBGI@std@@@std@@@std@@@2@XZ 005f2fd0 f i Npc.obj
 0002:0009c040       ?begin@?$_Tree@V?$_Tmap_traits@GPAVCUser@@U?$less@G@std@@V?$allocator@U?$pair@$$CBGPAVCUser@@@std@@@3@$0A@@std@@@std@@QAE?AV?$_Tree_iterator@V?$_Tree_val@U?$_Tree_simple_types@U?$pair@$$CBGPAVCUser@@@std@@@std@@@std@@@2@XZ 005f3040 f i Npc.obj
 0002:0009c0b0       ?begin@?$_Tree@V?$_Tmap_traits@PAVCUser@@IU?$less@PAVCUser@@@std@@V?$allocator@U?$pair@QAVCUser@@I@std@@@3@$0A@@std@@@std@@QAE?AV?$_Tree_iterator@V?$_Tree_val@U?$_Tree_simple_types@U?$pair@QAVCUser@@I@std@@@std@@@std@@@2@XZ 005f30b0 f i Npc.obj
 0002:0009c120       ?clear@?$_Tree@V?$_Tmap_traits@GIU?$less@G@std@@V?$allocator@U?$pair@$$CBGI@std@@@2@$0A@@std@@@std@@QAEXXZ 005f3120 f i Npc.obj
 0002:0009c1e0       ?clear@?$_Tree@V?$_Tmap_traits@GPAVCUser@@U?$less@G@std@@V?$allocator@U?$pair@$$CBGPAVCUser@@@std@@@3@$0A@@std@@@std@@QAEXXZ 005f31e0 f i Npc.obj
 0002:0009c2a0       ?clear@?$_Tree@V?$_Tmap_traits@PAVCUser@@IU?$less@PAVCUser@@@std@@V?$allocator@U?$pair@QAVCUser@@I@std@@@3@$0A@@std@@@std@@QAEXXZ 005f32a0 f i Npc.obj
 0002:0009c360       ?clear@ByteBuffer@@QAEXXZ  005f3360 f i Npc.obj
 0002:0009c3d0       ?deallocate@?$_Wrap_alloc@V?$allocator@U?$_Tree_node@U?$pair@$$CBGI@std@@PAX@std@@@std@@@std@@QAEXPAU?$_Tree_node@U?$pair@$$CBGI@std@@PAX@2@I@Z 005f33d0 f i Npc.obj
 0002:0009c430       ?deallocate@?$_Wrap_alloc@V?$allocator@U?$_Tree_node@U?$pair@$$CBGPAVCUser@@@std@@PAX@std@@@std@@@std@@QAEXPAU?$_Tree_node@U?$pair@$$CBGPAVCUser@@@std@@PAX@2@I@Z 005f3430 f i Npc.obj
 0002:0009c490       ?deallocate@?$_Wrap_alloc@V?$allocator@U?$_Tree_node@U?$pair@QAVCUser@@I@std@@PAX@std@@@std@@@std@@QAEXPAU?$_Tree_node@U?$pair@QAVCUser@@I@std@@PAX@2@I@Z 005f3490 f i Npc.obj
 0002:0009c4f0       ?deallocate@?$allocator@U?$_Tree_node@U?$pair@$$CBGI@std@@PAX@std@@@std@@QAEXPAU?$_Tree_node@U?$pair@$$CBGI@std@@PAX@2@I@Z 005f34f0 f i Npc.obj
 0002:0009c550       ?deallocate@?$allocator@U?$_Tree_node@U?$pair@$$CBGPAVCUser@@@std@@PAX@std@@@std@@QAEXPAU?$_Tree_node@U?$pair@$$CBGPAVCUser@@@std@@PAX@2@I@Z 005f3550 f i Npc.obj
 0002:0009c5b0       ?deallocate@?$allocator@U?$_Tree_node@U?$pair@QAVCUser@@I@std@@PAX@std@@@std@@QAEXPAU?$_Tree_node@U?$pair@QAVCUser@@I@std@@PAX@2@I@Z 005f35b0 f i Npc.obj
 0002:0009c610       ?end@?$_Tree@V?$_Tmap_traits@GIU?$less@G@std@@V?$allocator@U?$pair@$$CBGI@std@@@2@$0A@@std@@@std@@QAE?AV?$_Tree_iterator@V?$_Tree_val@U?$_Tree_simple_types@U?$pair@$$CBGI@std@@@std@@@std@@@2@XZ 005f3610 f i Npc.obj
 0002:0009c680       ?end@?$_Tree@V?$_Tmap_traits@GPAVCUser@@U?$less@G@std@@V?$allocator@U?$pair@$$CBGPAVCUser@@@std@@@3@$0A@@std@@@std@@QAE?AV?$_Tree_iterator@V?$_Tree_val@U?$_Tree_simple_types@U?$pair@$$CBGPAVCUser@@@std@@@std@@@std@@@2@XZ 005f3680 f i Npc.obj
 0002:0009c6f0       ?end@?$_Tree@V?$_Tmap_traits@IPAU_K_MONSTER_ITEM@@U?$less@I@std@@V?$allocator@U?$pair@$$CBIPAU_K_MONSTER_ITEM@@@std@@@3@$0A@@std@@@std@@QAE?AV?$_Tree_iterator@V?$_Tree_val@U?$_Tree_simple_types@U?$pair@$$CBIPAU_K_MONSTER_ITEM@@@std@@@std@@@std@@@2@XZ 005f36f0 f i Npc.obj
 0002:0009c760       ?end@?$_Tree@V?$_Tmap_traits@IPAU_MAKE_ITEM_GRADE_CODE@@U?$less@I@std@@V?$allocator@U?$pair@$$CBIPAU_MAKE_ITEM_GRADE_CODE@@@std@@@3@$0A@@std@@@std@@QAE?AV?$_Tree_iterator@V?$_Tree_val@U?$_Tree_simple_types@U?$pair@$$CBIPAU_MAKE_ITEM_GRADE_CODE@@@std@@@std@@@std@@@2@XZ 005f3760 f i Npc.obj
 0002:0009c7d0       ?end@?$_Tree@V?$_Tmap_traits@IPAU_MAKE_ITEM_GROUP@@U?$less@I@std@@V?$allocator@U?$pair@$$CBIPAU_MAKE_ITEM_GROUP@@@std@@@3@$0A@@std@@@std@@QAE?AV?$_Tree_iterator@V?$_Tree_val@U?$_Tree_simple_types@U?$pair@$$CBIPAU_MAKE_ITEM_GROUP@@@std@@@std@@@std@@@2@XZ 005f37d0 f i Npc.obj
 0002:0009c840       ?end@?$_Tree@V?$_Tmap_traits@IPAU_MAKE_ITEM_LARE_CODE@@U?$less@I@std@@V?$allocator@U?$pair@$$CBIPAU_MAKE_ITEM_LARE_CODE@@@std@@@3@$0A@@std@@@std@@QAE?AV?$_Tree_iterator@V?$_Tree_val@U?$_Tree_simple_types@U?$pair@$$CBIPAU_MAKE_ITEM_LARE_CODE@@@std@@@std@@@std@@@2@XZ 005f3840 f i Npc.obj
 0002:0009c8b0       ?end@?$_Tree@V?$_Tmap_traits@IPAU_MAKE_WEAPON@@U?$less@I@std@@V?$allocator@U?$pair@$$CBIPAU_MAKE_WEAPON@@@std@@@3@$0A@@std@@@std@@QAE?AV?$_Tree_iterator@V?$_Tree_val@U?$_Tree_simple_types@U?$pair@$$CBIPAU_MAKE_WEAPON@@@std@@@std@@@std@@@2@XZ 005f38b0 f i Npc.obj
 0002:0009c920       ?end@?$_Tree@V?$_Tmap_traits@PAVCUser@@IU?$less@PAVCUser@@@std@@V?$allocator@U?$pair@QAVCUser@@I@std@@@3@$0A@@std@@@std@@QAE?AV?$_Tree_iterator@V?$_Tree_val@U?$_Tree_simple_types@U?$pair@QAVCUser@@I@std@@@std@@@std@@@2@XZ 005f3920 f i Npc.obj
 0002:0009c990       ?erase@?$_Tree@V?$_Tmap_traits@GIU?$less@G@std@@V?$allocator@U?$pair@$$CBGI@std@@@2@$0A@@std@@@std@@QAE?AV?$_Tree_iterator@V?$_Tree_val@U?$_Tree_simple_types@U?$pair@$$CBGI@std@@@std@@@std@@@2@V?$_Tree_const_iterator@V?$_Tree_val@U?$_Tree_simple_types@U?$pair@$$CBGI@std@@@std@@@std@@@2@0@Z 005f3990 f i Npc.obj
 0002:0009ccb0       ?erase@?$_Tree@V?$_Tmap_traits@GIU?$less@G@std@@V?$allocator@U?$pair@$$CBGI@std@@@2@$0A@@std@@@std@@QAE?AV?$_Tree_iterator@V?$_Tree_val@U?$_Tree_simple_types@U?$pair@$$CBGI@std@@@std@@@std@@@2@V?$_Tree_const_iterator@V?$_Tree_val@U?$_Tree_simple_types@U?$pair@$$CBGI@std@@@std@@@std@@@2@@Z 005f3cb0 f i Npc.obj
 0002:0009d720       ?erase@?$_Tree@V?$_Tmap_traits@GPAVCUser@@U?$less@G@std@@V?$allocator@U?$pair@$$CBGPAVCUser@@@std@@@3@$0A@@std@@@std@@QAE?AV?$_Tree_iterator@V?$_Tree_val@U?$_Tree_simple_types@U?$pair@$$CBGPAVCUser@@@std@@@std@@@std@@@2@V?$_Tree_const_iterator@V?$_Tree_val@U?$_Tree_simple_types@U?$pair@$$CBGPAVCUser@@@std@@@std@@@std@@@2@0@Z 005f4720 f i Npc.obj
 0002:0009da40       ?erase@?$_Tree@V?$_Tmap_traits@GPAVCUser@@U?$less@G@std@@V?$allocator@U?$pair@$$CBGPAVCUser@@@std@@@3@$0A@@std@@@std@@QAE?AV?$_Tree_iterator@V?$_Tree_val@U?$_Tree_simple_types@U?$pair@$$CBGPAVCUser@@@std@@@std@@@std@@@2@V?$_Tree_const_iterator@V?$_Tree_val@U?$_Tree_simple_types@U?$pair@$$CBGPAVCUser@@@std@@@std@@@std@@@2@@Z 005f4a40 f i Npc.obj
 0002:0009e4b0       ?erase@?$_Tree@V?$_Tmap_traits@PAVCUser@@IU?$less@PAVCUser@@@std@@V?$allocator@U?$pair@QAVCUser@@I@std@@@3@$0A@@std@@@std@@QAE?AV?$_Tree_iterator@V?$_Tree_val@U?$_Tree_simple_types@U?$pair@QAVCUser@@I@std@@@std@@@std@@@2@V?$_Tree_const_iterator@V?$_Tree_val@U?$_Tree_simple_types@U?$pair@QAVCUser@@I@std@@@std@@@std@@@2@0@Z 005f54b0 f i Npc.obj
 0002:0009e7d0       ?erase@?$_Tree@V?$_Tmap_traits@PAVCUser@@IU?$less@PAVCUser@@@std@@V?$allocator@U?$pair@QAVCUser@@I@std@@@3@$0A@@std@@@std@@QAE?AV?$_Tree_iterator@V?$_Tree_val@U?$_Tree_simple_types@U?$pair@QAVCUser@@I@std@@@std@@@std@@@2@V?$_Tree_const_iterator@V?$_Tree_val@U?$_Tree_simple_types@U?$pair@QAVCUser@@I@std@@@std@@@std@@@2@@Z 005f57d0 f i Npc.obj
 0002:0009f240       ?find@?$_Tree@V?$_Tmap_traits@GIU?$less@G@std@@V?$allocator@U?$pair@$$CBGI@std@@@2@$0A@@std@@@std@@QAE?AV?$_Tree_iterator@V?$_Tree_val@U?$_Tree_simple_types@U?$pair@$$CBGI@std@@@std@@@std@@@2@ABG@Z 005f6240 f i Npc.obj
 0002:0009f550       ?find@?$_Tree@V?$_Tmap_traits@GPAVCUser@@U?$less@G@std@@V?$allocator@U?$pair@$$CBGPAVCUser@@@std@@@3@$0A@@std@@@std@@QAE?AV?$_Tree_iterator@V?$_Tree_val@U?$_Tree_simple_types@U?$pair@$$CBGPAVCUser@@@std@@@std@@@std@@@2@ABG@Z 005f6550 f i Npc.obj
 0002:0009f860       ?find@?$_Tree@V?$_Tmap_traits@IPAU_K_MONSTER_ITEM@@U?$less@I@std@@V?$allocator@U?$pair@$$CBIPAU_K_MONSTER_ITEM@@@std@@@3@$0A@@std@@@std@@QAE?AV?$_Tree_iterator@V?$_Tree_val@U?$_Tree_simple_types@U?$pair@$$CBIPAU_K_MONSTER_ITEM@@@std@@@std@@@std@@@2@ABI@Z 005f6860 f i Npc.obj
 0002:0009fb70       ?find@?$_Tree@V?$_Tmap_traits@IPAU_MAKE_ITEM_GRADE_CODE@@U?$less@I@std@@V?$allocator@U?$pair@$$CBIPAU_MAKE_ITEM_GRADE_CODE@@@std@@@3@$0A@@std@@@std@@QAE?AV?$_Tree_iterator@V?$_Tree_val@U?$_Tree_simple_types@U?$pair@$$CBIPAU_MAKE_ITEM_GRADE_CODE@@@std@@@std@@@std@@@2@ABI@Z 005f6b70 f i Npc.obj
 0002:0009fe80       ?find@?$_Tree@V?$_Tmap_traits@IPAU_MAKE_ITEM_GROUP@@U?$less@I@std@@V?$allocator@U?$pair@$$CBIPAU_MAKE_ITEM_GROUP@@@std@@@3@$0A@@std@@@std@@QAE?AV?$_Tree_iterator@V?$_Tree_val@U?$_Tree_simple_types@U?$pair@$$CBIPAU_MAKE_ITEM_GROUP@@@std@@@std@@@std@@@2@ABI@Z 005f6e80 f i Npc.obj
 0002:000a0190       ?find@?$_Tree@V?$_Tmap_traits@IPAU_MAKE_ITEM_LARE_CODE@@U?$less@I@std@@V?$allocator@U?$pair@$$CBIPAU_MAKE_ITEM_LARE_CODE@@@std@@@3@$0A@@std@@@std@@QAE?AV?$_Tree_iterator@V?$_Tree_val@U?$_Tree_simple_types@U?$pair@$$CBIPAU_MAKE_ITEM_LARE_CODE@@@std@@@std@@@std@@@2@ABI@Z 005f7190 f i Npc.obj
 0002:000a04a0       ?find@?$_Tree@V?$_Tmap_traits@IPAU_MAKE_WEAPON@@U?$less@I@std@@V?$allocator@U?$pair@$$CBIPAU_MAKE_WEAPON@@@std@@@3@$0A@@std@@@std@@QAE?AV?$_Tree_iterator@V?$_Tree_val@U?$_Tree_simple_types@U?$pair@$$CBIPAU_MAKE_WEAPON@@@std@@@std@@@std@@@2@ABI@Z 005f74a0 f i Npc.obj
 0002:000a07b0       ?getMSTime@@YA_JXZ         005f77b0 f i Npc.obj
 0002:000a0880       ?hasTarget@CNpc@@QAE_NXZ   005f7880 f i Npc.obj
 0002:000a08c0       ?increment@?$Atomic@G@@QAEGXZ 005f78c0 f i Npc.obj
 0002:000a0910       ?isAlive@CNpc@@UAE_NXZ     005f7910 f i Npc.obj
 0002:000a09a0       ?isArtifact@CNpc@@QAE_NXZ  005f79a0 f i Npc.obj
 0002:000a0a80       ?isDead@CNpc@@UAE_NXZ      005f7a80 f i Npc.obj
 0002:000a0b00       ?isGM@CUser@@QAE_NXZ       005f7b00 f i Npc.obj
 0002:000a0b70       ?isGuard@CNpc@@QAE_NXZ     005f7b70 f i Npc.obj
 0002:000a0c20       ?isHealer@CNpc@@QAE_NXZ    005f7c20 f i Npc.obj
 0002:000a0ca0       ?isInSpawnRange@CNpc@@QAE_NHH@Z 005f7ca0 f   Npc.obj
 0002:000a0d70       ?isNonAttackableObject@CNpc@@QAE_NXZ 005f7d70 f i Npc.obj
 0002:000a0e00       ?isNonAttackingObject@CNpc@@QAE_NXZ 005f7e00 f i Npc.obj
 0002:000a0ec0       ?isShowBox@CNpc@@QAE_NXZ   005f7ec0 f   Npc.obj
 0002:000a1020       ?lower_bound@?$_Tree@V?$_Tmap_traits@GIU?$less@G@std@@V?$allocator@U?$pair@$$CBGI@std@@@2@$0A@@std@@@std@@QAE?AV?$_Tree_iterator@V?$_Tree_val@U?$_Tree_simple_types@U?$pair@$$CBGI@std@@@std@@@std@@@2@ABG@Z 005f8020 f i Npc.obj
 0002:000a10b0       ?lower_bound@?$_Tree@V?$_Tmap_traits@GPAVCUser@@U?$less@G@std@@V?$allocator@U?$pair@$$CBGPAVCUser@@@std@@@3@$0A@@std@@@std@@QAE?AV?$_Tree_iterator@V?$_Tree_val@U?$_Tree_simple_types@U?$pair@$$CBGPAVCUser@@@std@@@std@@@std@@@2@ABG@Z 005f80b0 f i Npc.obj
 0002:000a1140       ?lower_bound@?$_Tree@V?$_Tmap_traits@IPAU_K_MONSTER_ITEM@@U?$less@I@std@@V?$allocator@U?$pair@$$CBIPAU_K_MONSTER_ITEM@@@std@@@3@$0A@@std@@@std@@QAE?AV?$_Tree_iterator@V?$_Tree_val@U?$_Tree_simple_types@U?$pair@$$CBIPAU_K_MONSTER_ITEM@@@std@@@std@@@std@@@2@ABI@Z 005f8140 f i Npc.obj
 0002:000a11d0       ?lower_bound@?$_Tree@V?$_Tmap_traits@IPAU_MAKE_ITEM_GRADE_CODE@@U?$less@I@std@@V?$allocator@U?$pair@$$CBIPAU_MAKE_ITEM_GRADE_CODE@@@std@@@3@$0A@@std@@@std@@QAE?AV?$_Tree_iterator@V?$_Tree_val@U?$_Tree_simple_types@U?$pair@$$CBIPAU_MAKE_ITEM_GRADE_CODE@@@std@@@std@@@std@@@2@ABI@Z 005f81d0 f i Npc.obj
 0002:000a1260       ?lower_bound@?$_Tree@V?$_Tmap_traits@IPAU_MAKE_ITEM_GROUP@@U?$less@I@std@@V?$allocator@U?$pair@$$CBIPAU_MAKE_ITEM_GROUP@@@std@@@3@$0A@@std@@@std@@QAE?AV?$_Tree_iterator@V?$_Tree_val@U?$_Tree_simple_types@U?$pair@$$CBIPAU_MAKE_ITEM_GROUP@@@std@@@std@@@std@@@2@ABI@Z 005f8260 f i Npc.obj
 0002:000a12f0       ?lower_bound@?$_Tree@V?$_Tmap_traits@IPAU_MAKE_ITEM_LARE_CODE@@U?$less@I@std@@V?$allocator@U?$pair@$$CBIPAU_MAKE_ITEM_LARE_CODE@@@std@@@3@$0A@@std@@@std@@QAE?AV?$_Tree_iterator@V?$_Tree_val@U?$_Tree_simple_types@U?$pair@$$CBIPAU_MAKE_ITEM_LARE_CODE@@@std@@@std@@@std@@@2@ABI@Z 005f82f0 f i Npc.obj
 0002:000a1380       ?lower_bound@?$_Tree@V?$_Tmap_traits@IPAU_MAKE_WEAPON@@U?$less@I@std@@V?$allocator@U?$pair@$$CBIPAU_MAKE_WEAPON@@@std@@@3@$0A@@std@@@std@@QAE?AV?$_Tree_iterator@V?$_Tree_val@U?$_Tree_simple_types@U?$pair@$$CBIPAU_MAKE_WEAPON@@@std@@@std@@@std@@@2@ABI@Z 005f8380 f i Npc.obj
 0002:000a1410       ?lower_bound@?$_Tree@V?$_Tmap_traits@PAVCUser@@IU?$less@PAVCUser@@@std@@V?$allocator@U?$pair@QAVCUser@@I@std@@@3@$0A@@std@@@std@@QAE?AV?$_Tree_iterator@V?$_Tree_val@U?$_Tree_simple_types@U?$pair@QAVCUser@@I@std@@@std@@@std@@@2@ABQAVCUser@@@Z 005f8410 f i Npc.obj
 0002:000a14a0       ?max_size@?$_Tree@V?$_Tmap_traits@GIU?$less@G@std@@V?$allocator@U?$pair@$$CBGI@std@@@2@$0A@@std@@@std@@QBEIXZ 005f84a0 f i Npc.obj
 0002:000a1500       ?max_size@?$_Tree@V?$_Tmap_traits@GPAVCUser@@U?$less@G@std@@V?$allocator@U?$pair@$$CBGPAVCUser@@@std@@@3@$0A@@std@@@std@@QBEIXZ 005f8500 f i Npc.obj
 0002:000a1560       ?max_size@?$_Tree@V?$_Tmap_traits@PAVCUser@@IU?$less@PAVCUser@@@std@@V?$allocator@U?$pair@QAVCUser@@I@std@@@3@$0A@@std@@@std@@QBEIXZ 005f8560 f i Npc.obj
 0002:000a15c0       ?max_size@?$_Wrap_alloc@V?$allocator@U?$_Tree_node@U?$pair@$$CBGI@std@@PAX@std@@@std@@@std@@QBEIXZ 005f85c0 f i Npc.obj
 0002:000a1620       ?max_size@?$_Wrap_alloc@V?$allocator@U?$_Tree_node@U?$pair@$$CBGPAVCUser@@@std@@PAX@std@@@std@@@std@@QBEIXZ 005f8620 f i Npc.obj
 0002:000a1680       ?max_size@?$_Wrap_alloc@V?$allocator@U?$_Tree_node@U?$pair@QAVCUser@@I@std@@PAX@std@@@std@@@std@@QBEIXZ 005f8680 f i Npc.obj
 0002:000a16e0       ?max_size@?$allocator@U?$_Tree_node@U?$pair@$$CBGI@std@@PAX@std@@@std@@QBEIXZ 005f86e0 f i Npc.obj
 0002:000a1720       ?max_size@?$allocator@U?$_Tree_node@U?$pair@$$CBGPAVCUser@@@std@@PAX@std@@@std@@QBEIXZ 005f8720 f i Npc.obj
 0002:000a1760       ?max_size@?$allocator@U?$_Tree_node@U?$pair@QAVCUser@@I@std@@PAX@std@@@std@@QBEIXZ 005f8760 f i Npc.obj
 0002:000a17a0       ?max_size@?$allocator_traits@V?$allocator@U?$_Tree_node@U?$pair@$$CBGI@std@@PAX@std@@@std@@@std@@SAIABV?$allocator@U?$_Tree_node@U?$pair@$$CBGI@std@@PAX@std@@@2@@Z 005f87a0 f i Npc.obj
 0002:000a17f0       ?max_size@?$allocator_traits@V?$allocator@U?$_Tree_node@U?$pair@$$CBGPAVCUser@@@std@@PAX@std@@@std@@@std@@SAIABV?$allocator@U?$_Tree_node@U?$pair@$$CBGPAVCUser@@@std@@PAX@std@@@2@@Z 005f87f0 f i Npc.obj
 0002:000a1840       ?max_size@?$allocator_traits@V?$allocator@U?$_Tree_node@U?$pair@QAVCUser@@I@std@@PAX@std@@@std@@@std@@SAIABV?$allocator@U?$_Tree_node@U?$pair@QAVCUser@@I@std@@PAX@std@@@2@@Z 005f8840 f i Npc.obj
 0002:000a1890       ?pointer_to@?$pointer_traits@PAU?$pair@$$CBGI@std@@@std@@SAPAU?$pair@$$CBGI@2@AAU32@@Z 005f8890 f i Npc.obj
 0002:000a18e0       ?pointer_to@?$pointer_traits@PAU?$pair@$$CBGPAVCUser@@@std@@@std@@SAPAU?$pair@$$CBGPAVCUser@@@2@AAU32@@Z 005f88e0 f i Npc.obj
 0002:000a1930       ?pointer_to@?$pointer_traits@PAU?$pair@$$CBIPAU_K_MONSTER_ITEM@@@std@@@std@@SAPAU?$pair@$$CBIPAU_K_MONSTER_ITEM@@@2@AAU32@@Z 005f8930 f i Npc.obj
 0002:000a1980       ?pointer_to@?$pointer_traits@PAU?$pair@$$CBIPAU_MAKE_ITEM_GRADE_CODE@@@std@@@std@@SAPAU?$pair@$$CBIPAU_MAKE_ITEM_GRADE_CODE@@@2@AAU32@@Z 005f8980 f i Npc.obj
 0002:000a19d0       ?pointer_to@?$pointer_traits@PAU?$pair@$$CBIPAU_MAKE_ITEM_GROUP@@@std@@@std@@SAPAU?$pair@$$CBIPAU_MAKE_ITEM_GROUP@@@2@AAU32@@Z 005f89d0 f i Npc.obj
 0002:000a1a20       ?pointer_to@?$pointer_traits@PAU?$pair@$$CBIPAU_MAKE_ITEM_LARE_CODE@@@std@@@std@@SAPAU?$pair@$$CBIPAU_MAKE_ITEM_LARE_CODE@@@2@AAU32@@Z 005f8a20 f i Npc.obj
 0002:000a1a70       ?pointer_to@?$pointer_traits@PAU?$pair@$$CBIPAU_MAKE_WEAPON@@@std@@@std@@SAPAU?$pair@$$CBIPAU_MAKE_WEAPON@@@2@AAU32@@Z 005f8a70 f i Npc.obj
 0002:000a1ac0       ?pointer_to@?$pointer_traits@PAU?$pair@QAVCUser@@I@std@@@std@@SAPAU?$pair@QAVCUser@@I@2@AAU32@@Z 005f8ac0 f i Npc.obj
 0002:000a1b10       ?size@?$_Tree@V?$_Tmap_traits@GIU?$less@G@std@@V?$allocator@U?$pair@$$CBGI@std@@@2@$0A@@std@@@std@@QBEIXZ 005f8b10 f i Npc.obj
 0002:000a1b50       ?size@?$_Tree@V?$_Tmap_traits@PAVCUser@@IU?$less@PAVCUser@@@std@@V?$allocator@U?$pair@QAVCUser@@I@std@@@3@$0A@@std@@@std@@QBEIXZ 005f8b50 f i Npc.obj
 0002:000a1b90       ?size@?$vector@IV?$allocator@I@std@@@std@@QBEIXZ 005f8b90 f i Npc.obj
 0002:000a1be0       _acosf                     005f8be0 f i Npc.obj
 0002:000a1c60       _asinf                     005f8c60 f i Npc.obj
 0002:000a1ce0       _cosf                      005f8ce0 f i Npc.obj
 0002:000a1d60       _sinf                      005f8d60 f i Npc.obj
 0002:000a1de0       ?MagicPacket@CNpcMagicProcess@@SA_JEIFFFFF@Z 005f8de0 f   NpcMagicProcess.obj
 0002:000a2090       ??$?0AAV?$_Tree_const_iterator@V?$_Tree_val@U?$_Tree_simple_types@PAVCNpc@@@std@@@std@@@std@@AAV01@@?$pair@V?$_Tree_const_iterator@V?$_Tree_val@U?$_Tree_simple_types@PAVCNpc@@@std@@@std@@@std@@V12@@std@@QAE@AAV?$_Tree_const_iterator@V?$_Tree_val@U?$_Tree_simple_types@PAVCNpc@@@std@@@std@@@1@0PAPAX@Z 005f9090 f i NpcThread.obj
 0002:000a2160       ??$?0AAV?$_Tree_const_iterator@V?$_Tree_val@U?$_Tree_simple_types@PAVCNpc@@@std@@@std@@@std@@_N@?$pair@V?$_Tree_const_iterator@V?$_Tree_val@U?$_Tree_simple_types@PAVCNpc@@@std@@@std@@@std@@_N@std@@QAE@AAV?$_Tree_const_iterator@V?$_Tree_val@U?$_Tree_simple_types@PAVCNpc@@@std@@@std@@@1@$$QA_NPAPAX@Z 005f9160 f i NpcThread.obj
 0002:000a2230       ??$?0U?$_Tree_node@PAVCNpc@@PAX@std@@@?$allocator@U_Container_proxy@std@@@std@@QAE@ABV?$allocator@U?$_Tree_node@PAVCNpc@@PAX@std@@@1@@Z 005f9230 f i NpcThread.obj
 0002:000a2270       ??$?0U?$_Wrap_alloc@V?$allocator@U?$_Tree_node@PAVCNpc@@PAX@std@@@std@@@std@@@?$_Wrap_alloc@V?$allocator@U_Container_proxy@std@@@std@@@std@@QAE@ABU?$_Wrap_alloc@V?$allocator@U?$_Tree_node@PAVCNpc@@PAX@std@@@std@@@1@@Z 005f9270 f i NpcThread.obj
 0002:000a22d0       ??$?0V?$_Tree_const_iterator@V?$_Tree_val@U?$_Tree_simple_types@PAVCNpc@@@std@@@std@@@std@@V01@@?$pair@V?$_Tree_const_iterator@V?$_Tree_val@U?$_Tree_simple_types@PAVCNpc@@@std@@@std@@@std@@V12@@std@@QAE@$$QAU01@PAPAX@Z 005f92d0 f i NpcThread.obj
 0002:000a23a0       ??$?0V?$_Tree_const_iterator@V?$_Tree_val@U?$_Tree_simple_types@PAVCNpc@@@std@@@std@@@std@@_N@?$pair@V?$_Tree_const_iterator@V?$_Tree_val@U?$_Tree_simple_types@PAVCNpc@@@std@@@std@@@std@@_N@std@@QAE@$$QAU01@PAPAX@Z 005f93a0 f i NpcThread.obj
 0002:000a2470       ??$?0V?$_Tree_const_iterator@V?$_Tree_val@U?$_Tree_simple_types@PAVCNpc@@@std@@@std@@@std@@_N@?$pair@V?$_Tree_const_iterator@V?$_Tree_val@U?$_Tree_simple_types@PAVCNpc@@@std@@@std@@@std@@_N@std@@QAE@$$QAV?$_Tree_const_iterator@V?$_Tree_val@U?$_Tree_simple_types@PAVCNpc@@@std@@@std@@@1@$$QA_NPAPAX@Z 005f9470 f i NpcThread.obj
 0002:000a2540       ??$?9H@@YA_NAAV?$Atomic@G@@H@Z 005f9540 f i NpcThread.obj
 0002:000a25c0       ??$_Allocate@U?$_Tree_node@PAVCNpc@@PAX@std@@@std@@YAPAU?$_Tree_node@PAVCNpc@@PAX@0@IPAU10@@Z 005f95c0 f i NpcThread.obj
 0002:000a2650       ??$_Buynode@ABQAVCNpc@@@?$_Tree_buy@PAVCNpc@@V?$allocator@PAVCNpc@@@std@@@std@@QAEPAU?$_Tree_node@PAVCNpc@@PAX@1@ABQAVCNpc@@@Z 005f9650 f i NpcThread.obj
 0002:000a27c0       ??$_Buynode_if_nil@ABQAVCNpc@@@?$_Tree@V?$_Tset_traits@PAVCNpc@@U?$less@PAVCNpc@@@std@@V?$allocator@PAVCNpc@@@3@$0A@@std@@@std@@IAEPAU?$_Tree_node@PAVCNpc@@PAX@1@U_Nil@1@ABQAVCNpc@@@Z 005f97c0 f i NpcThread.obj
 0002:000a2830       ??$_Debug_lt_pred@U?$less@PAVCNpc@@@std@@PAVCNpc@@PAV3@@std@@YA_NU?$less@PAVCNpc@@@0@ABQAVCNpc@@1PB_WI@Z 005f9830 f i NpcThread.obj
 0002:000a28d0       ??$_Distance2@V?$_Tree_const_iterator@V?$_Tree_val@U?$_Tree_simple_types@PAVCNpc@@@std@@@std@@@std@@I@std@@YAXV?$_Tree_const_iterator@V?$_Tree_val@U?$_Tree_simple_types@PAVCNpc@@@std@@@std@@@0@0AAIUbidirectional_iterator_tag@0@@Z 005f98d0 f i NpcThread.obj
 0002:000a29b0       ??$_Distance@V?$_Tree_const_iterator@V?$_Tree_val@U?$_Tree_simple_types@PAVCNpc@@@std@@@std@@@std@@I@std@@YAXV?$_Tree_const_iterator@V?$_Tree_val@U?$_Tree_simple_types@PAVCNpc@@@std@@@std@@@0@0AAI@Z 005f99b0 f i NpcThread.obj
 0002:000a2ae0       ??$_Insert_at@ABQAVCNpc@@U_Nil@std@@@?$_Tree@V?$_Tset_traits@PAVCNpc@@U?$less@PAVCNpc@@@std@@V?$allocator@PAVCNpc@@@3@$0A@@std@@@std@@IAE?AV?$_Tree_const_iterator@V?$_Tree_val@U?$_Tree_simple_types@PAVCNpc@@@std@@@std@@@1@_NPAU?$_Tree_node@PAVCNpc@@PAX@1@ABQAVCNpc@@U_Nil@1@@Z 005f9ae0 f i NpcThread.obj
 0002:000a3070       ??$_Insert_nohint@ABQAVCNpc@@U_Nil@std@@@?$_Tree@V?$_Tset_traits@PAVCNpc@@U?$less@PAVCNpc@@@std@@V?$allocator@PAVCNpc@@@3@$0A@@std@@@std@@IAE?AU?$pair@V?$_Tree_const_iterator@V?$_Tree_val@U?$_Tree_simple_types@PAVCNpc@@@std@@@std@@@std@@_N@1@_NABQAVCNpc@@U_Nil@1@@Z 005fa070 f i NpcThread.obj
 0002:000a38e0       ??$_Iter_cat@V?$_Tree_const_iterator@V?$_Tree_val@U?$_Tree_simple_types@PAVCNpc@@@std@@@std@@@std@@@std@@YA?AUbidirectional_iterator_tag@0@ABV?$_Tree_const_iterator@V?$_Tree_val@U?$_Tree_simple_types@PAVCNpc@@@std@@@std@@@0@@Z 005fa8e0 f i NpcThread.obj
 0002:000a3960       ??$addressof@PAU?$_Tree_node@PAVCNpc@@PAX@std@@@std@@YAPAPAU?$_Tree_node@PAVCNpc@@PAX@0@AAPAU10@@Z 005fa960 f i NpcThread.obj
 0002:000a39a0       ??$addressof@PAVCNpc@@@std@@YAPAPAVCNpc@@AAPAV1@@Z 005fa9a0 f i NpcThread.obj
 0002:000a39e0       ??$addressof@U?$pair@$$CBIPAVMAP@@@std@@@std@@YAPAU?$pair@$$CBIPAVMAP@@@0@AAU10@@Z 005fa9e0 f i NpcThread.obj
 0002:000a3a20       ??$construct@PAU?$_Tree_node@PAVCNpc@@PAX@std@@AAPAU12@@?$_Wrap_alloc@V?$allocator@U?$_Tree_node@PAVCNpc@@PAX@std@@@std@@@std@@QAEXPAPAU?$_Tree_node@PAVCNpc@@PAX@1@AAPAU21@@Z 005faa20 f i NpcThread.obj
 0002:000a3a90       ??$construct@PAU?$_Tree_node@PAVCNpc@@PAX@std@@AAPAU12@@?$allocator@U?$_Tree_node@PAVCNpc@@PAX@std@@@std@@QAEXPAPAU?$_Tree_node@PAVCNpc@@PAX@1@AAPAU21@@Z 005faa90 f i NpcThread.obj
 0002:000a3b90       ??$construct@PAU?$_Tree_node@PAVCNpc@@PAX@std@@AAPAU12@@?$allocator_traits@V?$allocator@U?$_Tree_node@PAVCNpc@@PAX@std@@@std@@@std@@SAXAAV?$allocator@U?$_Tree_node@PAVCNpc@@PAX@std@@@1@PAPAU?$_Tree_node@PAVCNpc@@PAX@1@AAPAU31@@Z 005fab90 f i NpcThread.obj
 0002:000a3bf0       ??$construct@PAVCNpc@@ABQAV1@@?$_Wrap_alloc@V?$allocator@U?$_Tree_node@PAVCNpc@@PAX@std@@@std@@@std@@QAEXPAPAVCNpc@@ABQAV2@@Z 005fabf0 f i NpcThread.obj
 0002:000a3c60       ??$construct@PAVCNpc@@ABQAV1@@?$allocator@U?$_Tree_node@PAVCNpc@@PAX@std@@@std@@QAEXPAPAVCNpc@@ABQAV2@@Z 005fac60 f i NpcThread.obj
 0002:000a3d60       ??$construct@PAVCNpc@@ABQAV1@@?$allocator_traits@V?$allocator@U?$_Tree_node@PAVCNpc@@PAX@std@@@std@@@std@@SAXAAV?$allocator@U?$_Tree_node@PAVCNpc@@PAX@std@@@1@PAPAVCNpc@@ABQAV3@@Z 005fad60 f i NpcThread.obj
 0002:000a3dc0       ??$destroy@PAU?$_Tree_node@PAVCNpc@@PAX@std@@@?$_Wrap_alloc@V?$allocator@U?$_Tree_node@PAVCNpc@@PAX@std@@@std@@@std@@QAEXPAPAU?$_Tree_node@PAVCNpc@@PAX@1@@Z 005fadc0 f i NpcThread.obj
 0002:000a3e20       ??$destroy@PAU?$_Tree_node@PAVCNpc@@PAX@std@@@?$allocator@U?$_Tree_node@PAVCNpc@@PAX@std@@@std@@QAEXPAPAU?$_Tree_node@PAVCNpc@@PAX@1@@Z 005fae20 f i NpcThread.obj
 0002:000a3e60       ??$destroy@PAU?$_Tree_node@PAVCNpc@@PAX@std@@@?$allocator_traits@V?$allocator@U?$_Tree_node@PAVCNpc@@PAX@std@@@std@@@std@@SAXAAV?$allocator@U?$_Tree_node@PAVCNpc@@PAX@std@@@1@PAPAU?$_Tree_node@PAVCNpc@@PAX@1@@Z 005fae60 f i NpcThread.obj
 0002:000a3eb0       ??$destroy@PAVCNpc@@@?$_Wrap_alloc@V?$allocator@U?$_Tree_node@PAVCNpc@@PAX@std@@@std@@@std@@QAEXPAPAVCNpc@@@Z 005faeb0 f i NpcThread.obj
 0002:000a3f10       ??$destroy@PAVCNpc@@@?$allocator@U?$_Tree_node@PAVCNpc@@PAX@std@@@std@@QAEXPAPAVCNpc@@@Z 005faf10 f i NpcThread.obj
 0002:000a3f50       ??$destroy@PAVCNpc@@@?$allocator_traits@V?$allocator@U?$_Tree_node@PAVCNpc@@PAX@std@@@std@@@std@@SAXAAV?$allocator@U?$_Tree_node@PAVCNpc@@PAX@std@@@1@PAPAVCNpc@@@Z 005faf50 f i NpcThread.obj
 0002:000a3fa0       ??$forward@AAPAU?$_Tree_node@PAVCNpc@@PAX@std@@@std@@YAAAPAU?$_Tree_node@PAVCNpc@@PAX@0@AAPAU10@@Z 005fafa0 f i NpcThread.obj
 0002:000a3fe0       ??$forward@AAV?$_Tree_const_iterator@V?$_Tree_val@U?$_Tree_simple_types@PAVCNpc@@@std@@@std@@@std@@@std@@YAAAV?$_Tree_const_iterator@V?$_Tree_val@U?$_Tree_simple_types@PAVCNpc@@@std@@@std@@@0@AAV10@@Z 005fafe0 f i NpcThread.obj
 0002:000a4020       ??$forward@ABQAVCNpc@@@std@@YAABQAVCNpc@@ABQAV1@@Z 005fb020 f i NpcThread.obj
 0002:000a4060       ??$forward@V?$_Tree_const_iterator@V?$_Tree_val@U?$_Tree_simple_types@PAVCNpc@@@std@@@std@@@std@@@std@@YA$$QAV?$_Tree_const_iterator@V?$_Tree_val@U?$_Tree_simple_types@PAVCNpc@@@std@@@std@@@0@AAV10@@Z 005fb060 f i NpcThread.obj
 0002:000a40a0       ??0?$_Iterator012@Ubidirectional_iterator_tag@std@@PAVCNpc@@HPBQAV3@ABQAV3@U_Iterator_base12@2@@std@@QAE@ABU01@@Z 005fb0a0 f i NpcThread.obj
 0002:000a4100       ??0?$_Iterator012@Ubidirectional_iterator_tag@std@@PAVCNpc@@HPBQAV3@ABQAV3@U_Iterator_base12@2@@std@@QAE@XZ 005fb100 f i NpcThread.obj
 0002:000a4160       ??0?$_Iterator012@Ubidirectional_iterator_tag@std@@U?$pair@$$CBIPAVMAP@@@2@HPBU32@ABU32@U_Iterator_base12@2@@std@@QAE@ABU01@@Z 005fb160 f i NpcThread.obj
 0002:000a41c0       ??0?$_Iterator012@Ubidirectional_iterator_tag@std@@U?$pair@$$CBIPAVMAP@@@2@HPBU32@ABU32@U_Iterator_base12@2@@std@@QAE@XZ 005fb1c0 f i NpcThread.obj
 0002:000a4220       ??0?$_Tree@V?$_Tset_traits@PAVCNpc@@U?$less@PAVCNpc@@@std@@V?$allocator@PAVCNpc@@@3@$0A@@std@@@std@@QAE@ABU?$less@PAVCNpc@@@1@ABV?$allocator@PAVCNpc@@@1@@Z 005fb220 f i NpcThread.obj
 0002:000a4280       ??0?$_Tree_alloc@$0A@U?$_Tree_base_types@PAVCNpc@@V?$allocator@PAVCNpc@@@std@@@std@@@std@@QAE@ABV?$allocator@PAVCNpc@@@1@@Z 005fb280 f i NpcThread.obj
 0002:000a4380       ??0?$_Tree_buy@PAVCNpc@@V?$allocator@PAVCNpc@@@std@@@std@@QAE@ABV?$allocator@PAVCNpc@@@1@@Z 005fb380 f i NpcThread.obj
 0002:000a43e0       ??0?$_Tree_comp@$0A@V?$_Tset_traits@PAVCNpc@@U?$less@PAVCNpc@@@std@@V?$allocator@PAVCNpc@@@3@$0A@@std@@@std@@QAE@ABU?$less@PAVCNpc@@@1@ABV?$allocator@PAVCNpc@@@1@@Z 005fb3e0 f i NpcThread.obj
 0002:000a4440       ??0?$_Tree_const_iterator@V?$_Tree_val@U?$_Tree_simple_types@PAVCNpc@@@std@@@std@@@std@@QAE@ABV01@@Z 005fb440 f i NpcThread.obj
 0002:000a44a0       ??0?$_Tree_const_iterator@V?$_Tree_val@U?$_Tree_simple_types@PAVCNpc@@@std@@@std@@@std@@QAE@PAU?$_Tree_node@PAVCNpc@@PAX@1@PBV?$_Tree_val@U?$_Tree_simple_types@PAVCNpc@@@std@@@1@@Z 005fb4a0 f i NpcThread.obj
 0002:000a4500       ??0?$_Tree_const_iterator@V?$_Tree_val@U?$_Tree_simple_types@U?$pair@$$CBIPAVMAP@@@std@@@std@@@std@@@std@@QAE@ABV01@@Z 005fb500 f i NpcThread.obj
 0002:000a4560       ??0?$_Tree_const_iterator@V?$_Tree_val@U?$_Tree_simple_types@U?$pair@$$CBIPAVMAP@@@std@@@std@@@std@@@std@@QAE@PAU?$_Tree_node@U?$pair@$$CBIPAVMAP@@@std@@PAX@1@PBV?$_Tree_val@U?$_Tree_simple_types@U?$pair@$$CBIPAVMAP@@@std@@@std@@@1@@Z 005fb560 f i NpcThread.obj
 0002:000a45c0       ??0?$_Tree_iterator@V?$_Tree_val@U?$_Tree_simple_types@U?$pair@$$CBIPAVMAP@@@std@@@std@@@std@@@std@@QAE@ABV01@@Z 005fb5c0 f i NpcThread.obj
 0002:000a4620       ??0?$_Tree_iterator@V?$_Tree_val@U?$_Tree_simple_types@U?$pair@$$CBIPAVMAP@@@std@@@std@@@std@@@std@@QAE@PAU?$_Tree_node@U?$pair@$$CBIPAVMAP@@@std@@PAX@1@PBV?$_Tree_val@U?$_Tree_simple_types@U?$pair@$$CBIPAVMAP@@@std@@@std@@@1@@Z 005fb620 f i NpcThread.obj
 0002:000a4680       ??0?$_Tree_unchecked_const_iterator@V?$_Tree_val@U?$_Tree_simple_types@PAVCNpc@@@std@@@std@@U_Iterator_base12@2@@std@@QAE@ABV01@@Z 005fb680 f i NpcThread.obj
 0002:000a46f0       ??0?$_Tree_unchecked_const_iterator@V?$_Tree_val@U?$_Tree_simple_types@PAVCNpc@@@std@@@std@@U_Iterator_base12@2@@std@@QAE@PAU?$_Tree_node@PAVCNpc@@PAX@1@PBV?$_Tree_val@U?$_Tree_simple_types@PAVCNpc@@@std@@@1@@Z 005fb6f0 f i NpcThread.obj
 0002:000a47b0       ??0?$_Tree_unchecked_const_iterator@V?$_Tree_val@U?$_Tree_simple_types@U?$pair@$$CBIPAVMAP@@@std@@@std@@@std@@U_Iterator_base12@2@@std@@QAE@ABV01@@Z 005fb7b0 f i NpcThread.obj
 0002:000a4820       ??0?$_Tree_unchecked_const_iterator@V?$_Tree_val@U?$_Tree_simple_types@U?$pair@$$CBIPAVMAP@@@std@@@std@@@std@@U_Iterator_base12@2@@std@@QAE@PAU?$_Tree_node@U?$pair@$$CBIPAVMAP@@@std@@PAX@1@PBV?$_Tree_val@U?$_Tree_simple_types@U?$pair@$$CBIPAVMAP@@@std@@@std@@@1@@Z 005fb820 f i NpcThread.obj
 0002:000a48e0       ??0?$_Tree_val@U?$_Tree_simple_types@PAVCNpc@@@std@@@std@@QAE@XZ 005fb8e0 f i NpcThread.obj
 0002:000a4950       ??0?$_Wrap_alloc@V?$allocator@U?$_Tree_node@PAVCNpc@@PAX@std@@@std@@@std@@QAE@XZ 005fb950 f i NpcThread.obj
 0002:000a49b0       ??0?$allocator@PAVCNpc@@@std@@QAE@XZ 005fb9b0 f i NpcThread.obj
 0002:000a49f0       ??0?$allocator@U?$_Tree_node@PAVCNpc@@PAX@std@@@std@@QAE@XZ 005fb9f0 f i NpcThread.obj
 0002:000a4a30       ??0?$set@PAVCNpc@@U?$less@PAVCNpc@@@std@@V?$allocator@PAVCNpc@@@3@@std@@QAE@XZ 005fba30 f i NpcThread.obj
 0002:000a4aa0       ??0CNpcThread@@QAE@XZ      005fbaa0 f   NpcThread.obj
 0002:000a4b70       ??1?$_Iterator012@Ubidirectional_iterator_tag@std@@PAVCNpc@@HPBQAV3@ABQAV3@U_Iterator_base12@2@@std@@QAE@XZ 005fbb70 f i NpcThread.obj
 0002:000a4bc0       ??1?$_Iterator012@Ubidirectional_iterator_tag@std@@U?$pair@$$CBIPAVMAP@@@2@HPBU32@ABU32@U_Iterator_base12@2@@std@@QAE@XZ 005fbbc0 f i NpcThread.obj
 0002:000a4c10       ??1?$_Tree@V?$_Tset_traits@PAVCNpc@@U?$less@PAVCNpc@@@std@@V?$allocator@PAVCNpc@@@3@$0A@@std@@@std@@QAE@XZ 005fbc10 f i NpcThread.obj
 0002:000a4c70       ??1?$_Tree_alloc@$0A@U?$_Tree_base_types@PAVCNpc@@V?$allocator@PAVCNpc@@@std@@@std@@@std@@QAE@XZ 005fbc70 f i NpcThread.obj
 0002:000a4ce0       ??1?$_Tree_buy@PAVCNpc@@V?$allocator@PAVCNpc@@@std@@@std@@QAE@XZ 005fbce0 f i NpcThread.obj
 0002:000a4d30       ??1?$_Tree_comp@$0A@V?$_Tset_traits@PAVCNpc@@U?$less@PAVCNpc@@@std@@V?$allocator@PAVCNpc@@@3@$0A@@std@@@std@@QAE@XZ 005fbd30 f i NpcThread.obj
 0002:000a4d80       ??1?$_Tree_const_iterator@V?$_Tree_val@U?$_Tree_simple_types@PAVCNpc@@@std@@@std@@@std@@QAE@XZ 005fbd80 f i NpcThread.obj
 0002:000a4dd0       ??1?$_Tree_const_iterator@V?$_Tree_val@U?$_Tree_simple_types@U?$pair@$$CBIPAVMAP@@@std@@@std@@@std@@@std@@QAE@XZ 005fbdd0 f i NpcThread.obj
 0002:000a4e20       ??1?$_Tree_iterator@V?$_Tree_val@U?$_Tree_simple_types@U?$pair@$$CBIPAVMAP@@@std@@@std@@@std@@@std@@QAE@XZ 005fbe20 f i NpcThread.obj
 0002:000a4e70       ??1?$_Tree_unchecked_const_iterator@V?$_Tree_val@U?$_Tree_simple_types@PAVCNpc@@@std@@@std@@U_Iterator_base12@2@@std@@QAE@XZ 005fbe70 f i NpcThread.obj
 0002:000a4ec0       ??1?$_Tree_unchecked_const_iterator@V?$_Tree_val@U?$_Tree_simple_types@U?$pair@$$CBIPAVMAP@@@std@@@std@@@std@@U_Iterator_base12@2@@std@@QAE@XZ 005fbec0 f i NpcThread.obj
 0002:000a4f10       ??1?$_Tree_val@U?$_Tree_simple_types@PAVCNpc@@@std@@@std@@QAE@XZ 005fbf10 f i NpcThread.obj
 0002:000a4f60       ??1?$pair@V?$_Tree_const_iterator@V?$_Tree_val@U?$_Tree_simple_types@PAVCNpc@@@std@@@std@@@std@@V12@@std@@QAE@XZ 005fbf60 f i NpcThread.obj
 0002:000a4fc0       ??1?$pair@V?$_Tree_const_iterator@V?$_Tree_val@U?$_Tree_simple_types@PAVCNpc@@@std@@@std@@@std@@_N@std@@QAE@XZ 005fbfc0 f i NpcThread.obj
 0002:000a5010       ??1?$set@PAVCNpc@@U?$less@PAVCNpc@@@std@@V?$allocator@PAVCNpc@@@3@@std@@QAE@XZ 005fc010 f i NpcThread.obj
 0002:000a5060       ??1CNpcThread@@UAE@XZ      005fc060 f   NpcThread.obj
 0002:000a5190       ??1Thread@@UAE@XZ          005fc190 f i NpcThread.obj
 0002:000a51f0       ??1thread@std@@QAE@XZ      005fc1f0 f i NpcThread.obj
 0002:000a5250       ??8?$_Tree_const_iterator@V?$_Tree_val@U?$_Tree_simple_types@PAVCNpc@@@std@@@std@@@std@@QBE_NABV01@@Z 005fc250 f i NpcThread.obj
 0002:000a5380       ??8?$_Tree_const_iterator@V?$_Tree_val@U?$_Tree_simple_types@U?$pair@$$CBIPAVMAP@@@std@@@std@@@std@@@std@@QBE_NABV01@@Z 005fc380 f i NpcThread.obj
 0002:000a54b0       ??9?$_Tree_const_iterator@V?$_Tree_val@U?$_Tree_simple_types@PAVCNpc@@@std@@@std@@@std@@QBE_NABV01@@Z 005fc4b0 f i NpcThread.obj
 0002:000a5540       ??9?$_Tree_const_iterator@V?$_Tree_val@U?$_Tree_simple_types@U?$pair@$$CBIPAVMAP@@@std@@@std@@@std@@@std@@QBE_NABV01@@Z 005fc540 f i NpcThread.obj
 0002:000a55d0       ??C?$_Tree_iterator@V?$_Tree_val@U?$_Tree_simple_types@U?$pair@$$CBIPAVMAP@@@std@@@std@@@std@@@std@@QBEPAU?$pair@$$CBIPAVMAP@@@1@XZ 005fc5d0 f i NpcThread.obj
 0002:000a5630       ??D?$_Tree_const_iterator@V?$_Tree_val@U?$_Tree_simple_types@PAVCNpc@@@std@@@std@@@std@@QBEABQAVCNpc@@XZ 005fc630 f i NpcThread.obj
 0002:000a5740       ??D?$_Tree_const_iterator@V?$_Tree_val@U?$_Tree_simple_types@U?$pair@$$CBIPAVMAP@@@std@@@std@@@std@@@std@@QBEABU?$pair@$$CBIPAVMAP@@@1@XZ 005fc740 f i NpcThread.obj
 0002:000a5850       ??D?$_Tree_iterator@V?$_Tree_val@U?$_Tree_simple_types@U?$pair@$$CBIPAVMAP@@@std@@@std@@@std@@@std@@QBEAAU?$pair@$$CBIPAVMAP@@@1@XZ 005fc850 f i NpcThread.obj
 0002:000a58a0       ??E?$_Tree_const_iterator@V?$_Tree_val@U?$_Tree_simple_types@PAVCNpc@@@std@@@std@@@std@@QAE?AV01@H@Z 005fc8a0 f i NpcThread.obj
 0002:000a59c0       ??E?$_Tree_const_iterator@V?$_Tree_val@U?$_Tree_simple_types@PAVCNpc@@@std@@@std@@@std@@QAEAAV01@XZ 005fc9c0 f i NpcThread.obj
 0002:000a5ad0       ??E?$_Tree_const_iterator@V?$_Tree_val@U?$_Tree_simple_types@U?$pair@$$CBIPAVMAP@@@std@@@std@@@std@@@std@@QAEAAV01@XZ 005fcad0 f i NpcThread.obj
 0002:000a5be0       ??E?$_Tree_iterator@V?$_Tree_val@U?$_Tree_simple_types@U?$pair@$$CBIPAVMAP@@@std@@@std@@@std@@@std@@QAE?AV01@H@Z 005fcbe0 f i NpcThread.obj
 0002:000a5d00       ??E?$_Tree_iterator@V?$_Tree_val@U?$_Tree_simple_types@U?$pair@$$CBIPAVMAP@@@std@@@std@@@std@@@std@@QAEAAV01@XZ 005fcd00 f i NpcThread.obj
 0002:000a5d60       ??E?$_Tree_unchecked_const_iterator@V?$_Tree_val@U?$_Tree_simple_types@PAVCNpc@@@std@@@std@@U_Iterator_base12@2@@std@@QAEAAV01@XZ 005fcd60 f i NpcThread.obj
 0002:000a5e90       ??E?$_Tree_unchecked_const_iterator@V?$_Tree_val@U?$_Tree_simple_types@U?$pair@$$CBIPAVMAP@@@std@@@std@@@std@@U_Iterator_base12@2@@std@@QAEAAV01@XZ 005fce90 f i NpcThread.obj
 0002:000a5fc0       ??F?$_Tree_const_iterator@V?$_Tree_val@U?$_Tree_simple_types@PAVCNpc@@@std@@@std@@@std@@QAEAAV01@XZ 005fcfc0 f i NpcThread.obj
 0002:000a6150       ??F?$_Tree_unchecked_const_iterator@V?$_Tree_val@U?$_Tree_simple_types@PAVCNpc@@@std@@@std@@U_Iterator_base12@2@@std@@QAEAAV01@XZ 005fd150 f i NpcThread.obj
 0002:000a62b0       ??R?$less@PAVCNpc@@@std@@QBE_NABQAVCNpc@@0@Z 005fd2b0 f i NpcThread.obj
 0002:000a6320       ??_GCNpcThread@@UAEPAXI@Z  005fd320 f i NpcThread.obj
 0002:000a6320       ??_ECNpcThread@@UAEPAXI@Z  005fd320 f i NpcThread.obj
 0002:000a6390       ??_EThread@@UAEPAXI@Z      005fd390 f i NpcThread.obj
 0002:000a6390       ??_GThread@@UAEPAXI@Z      005fd390 f i NpcThread.obj
 0002:000a6400       ?AddNPC@CNpcThread@@QAEXPAVCNpc@@@Z 005fd400 f   NpcThread.obj
 0002:000a6510       ?NpcThreadProc@@YGIPAX@Z   005fd510 f   NpcThread.obj
 0002:000a7030       ?RemoveNPC@CNpcThread@@QAEXPAVCNpc@@@Z 005fe030 f   NpcThread.obj
 0002:000a7130       ?ZoneEventThreadProc@@YGIPAX@Z 005fe130 f   NpcThread.obj
 0002:000a74b0       ?_Alloc_proxy@?$_Tree_alloc@$0A@U?$_Tree_base_types@PAVCNpc@@V?$allocator@PAVCNpc@@@std@@@std@@@std@@QAEXXZ 005fe4b0 f i NpcThread.obj
 0002:000a7590       ?_Buyheadnode@?$_Tree_alloc@$0A@U?$_Tree_base_types@PAVCNpc@@V?$allocator@PAVCNpc@@@std@@@std@@@std@@QAEPAU?$_Tree_node@PAVCNpc@@PAX@2@XZ 005fe590 f i NpcThread.obj
 0002:000a77f0       ?_Buynode0@?$_Tree_buy@PAVCNpc@@V?$allocator@PAVCNpc@@@std@@@std@@QAEPAU?$_Tree_node@PAVCNpc@@PAX@2@XZ 005fe7f0 f i NpcThread.obj
 0002:000a7a00       ?_Color@?$_Tree_val@U?$_Tree_simple_types@PAVCNpc@@@std@@@std@@SAAADPAU?$_Tree_node@PAVCNpc@@PAX@2@@Z 005fea00 f i NpcThread.obj
 0002:000a7a40       ?_Destroy_if_not_nil@?$_Tree@V?$_Tset_traits@PAVCNpc@@U?$less@PAVCNpc@@@std@@V?$allocator@PAVCNpc@@@3@$0A@@std@@@std@@IAEXU_Nil@2@@Z 005fea40 f i NpcThread.obj
 0002:000a7a80       ?_Eqrange@?$_Tree@V?$_Tset_traits@PAVCNpc@@U?$less@PAVCNpc@@@std@@V?$allocator@PAVCNpc@@@3@$0A@@std@@@std@@IAE?AU?$pair@V?$_Tree_const_iterator@V?$_Tree_val@U?$_Tree_simple_types@PAVCNpc@@@std@@@std@@@std@@V12@@2@ABQAVCNpc@@@Z 005fea80 f i NpcThread.obj
 0002:000a7e50       ?_Erase@?$_Tree@V?$_Tset_traits@PAVCNpc@@U?$less@PAVCNpc@@@std@@V?$allocator@PAVCNpc@@@3@$0A@@std@@@std@@IAEXPAU?$_Tree_node@PAVCNpc@@PAX@2@@Z 005fee50 f i NpcThread.obj
 0002:000a7f60       ?_Free_proxy@?$_Tree_alloc@$0A@U?$_Tree_base_types@PAVCNpc@@V?$allocator@PAVCNpc@@@std@@@std@@@std@@QAEXXZ 005fef60 f i NpcThread.obj
 0002:000a8040       ?_Freeheadnode@?$_Tree_alloc@$0A@U?$_Tree_base_types@PAVCNpc@@V?$allocator@PAVCNpc@@@std@@@std@@@std@@QAEXPAU?$_Tree_node@PAVCNpc@@PAX@2@@Z 005ff040 f i NpcThread.obj
 0002:000a8150       ?_Freenode0@?$_Tree_buy@PAVCNpc@@V?$allocator@PAVCNpc@@@std@@@std@@QAEXPAU?$_Tree_node@PAVCNpc@@PAX@2@@Z 005ff150 f i NpcThread.obj
 0002:000a8260       ?_Getal@?$_Tree_alloc@$0A@U?$_Tree_base_types@PAVCNpc@@V?$allocator@PAVCNpc@@@std@@@std@@@std@@QBE?AU?$_Wrap_alloc@V?$allocator@U?$_Tree_node@PAVCNpc@@PAX@std@@@std@@@2@XZ 005ff260 f i NpcThread.obj
 0002:000a82c0       ?_Getcomp@?$_Tree_comp@$0A@V?$_Tset_traits@PAVCNpc@@U?$less@PAVCNpc@@@std@@V?$allocator@PAVCNpc@@@3@$0A@@std@@@std@@QBE?AU?$less@PAVCNpc@@@2@XZ 005ff2c0 f i NpcThread.obj
 0002:000a8300       ?_Isnil@?$_Tree_val@U?$_Tree_simple_types@PAVCNpc@@@std@@@std@@SAAADPAU?$_Tree_node@PAVCNpc@@PAX@2@@Z 005ff300 f i NpcThread.obj
 0002:000a8340       ?_Isnil@?$_Tree_val@U?$_Tree_simple_types@U?$pair@$$CBIPAVMAP@@@std@@@std@@@std@@SAAADPAU?$_Tree_node@U?$pair@$$CBIPAVMAP@@@std@@PAX@2@@Z 005ff340 f i NpcThread.obj
 0002:000a8380       ?_Key@?$_Tree@V?$_Tset_traits@PAVCNpc@@U?$less@PAVCNpc@@@std@@V?$allocator@PAVCNpc@@@3@$0A@@std@@@std@@IBEABQAVCNpc@@PAU?$_Tree_node@PAVCNpc@@PAX@2@@Z 005ff380 f i NpcThread.obj
 0002:000a83f0       ?_Kfn@?$_Tree@V?$_Tset_traits@PAVCNpc@@U?$less@PAVCNpc@@@std@@V?$allocator@PAVCNpc@@@3@$0A@@std@@@std@@IBEABQAVCNpc@@ABQAV3@@Z 005ff3f0 f i NpcThread.obj
 0002:000a8450       ?_Kfn@?$_Tset_traits@PAVCNpc@@U?$less@PAVCNpc@@@std@@V?$allocator@PAVCNpc@@@3@$0A@@std@@SAABQAVCNpc@@ABQAV3@@Z 005ff450 f i NpcThread.obj
 0002:000a8490       ?_Left@?$_Tree_val@U?$_Tree_simple_types@PAVCNpc@@@std@@@std@@SAAAPAU?$_Tree_node@PAVCNpc@@PAX@2@PAU32@@Z 005ff490 f i NpcThread.obj
 0002:000a84d0       ?_Left@?$_Tree_val@U?$_Tree_simple_types@U?$pair@$$CBIPAVMAP@@@std@@@std@@@std@@SAAAPAU?$_Tree_node@U?$pair@$$CBIPAVMAP@@@std@@PAX@2@PAU32@@Z 005ff4d0 f i NpcThread.obj
 0002:000a8510       ?_Lmost@?$_Tree@V?$_Tmap_traits@IPAVMAP@@U?$less@I@std@@V?$allocator@U?$pair@$$CBIPAVMAP@@@std@@@3@$0A@@std@@@std@@IBEAAPAU?$_Tree_node@U?$pair@$$CBIPAVMAP@@@std@@PAX@2@XZ 005ff510 f i NpcThread.obj
 0002:000a8570       ?_Lmost@?$_Tree@V?$_Tset_traits@PAVCNpc@@U?$less@PAVCNpc@@@std@@V?$allocator@PAVCNpc@@@3@$0A@@std@@@std@@IBEAAPAU?$_Tree_node@PAVCNpc@@PAX@2@XZ 005ff570 f i NpcThread.obj
 0002:000a85d0       ?_Lrotate@?$_Tree@V?$_Tset_traits@PAVCNpc@@U?$less@PAVCNpc@@@std@@V?$allocator@PAVCNpc@@@3@$0A@@std@@@std@@IAEXPAU?$_Tree_node@PAVCNpc@@PAX@2@@Z 005ff5d0 f i NpcThread.obj
 0002:000a8780       ?_Max@?$_Tree_val@U?$_Tree_simple_types@PAVCNpc@@@std@@@std@@SAPAU?$_Tree_node@PAVCNpc@@PAX@2@PAU32@@Z 005ff780 f i NpcThread.obj
 0002:000a8800       ?_Min@?$_Tree_val@U?$_Tree_simple_types@PAVCNpc@@@std@@@std@@SAPAU?$_Tree_node@PAVCNpc@@PAX@2@PAU32@@Z 005ff800 f i NpcThread.obj
 0002:000a8880       ?_Min@?$_Tree_val@U?$_Tree_simple_types@U?$pair@$$CBIPAVMAP@@@std@@@std@@@std@@SAPAU?$_Tree_node@U?$pair@$$CBIPAVMAP@@@std@@PAX@2@PAU32@@Z 005ff880 f i NpcThread.obj
 0002:000a8900       ?_Mynode@?$_Tree_unchecked_const_iterator@V?$_Tree_val@U?$_Tree_simple_types@PAVCNpc@@@std@@@std@@U_Iterator_base12@2@@std@@QBEPAU?$_Tree_node@PAVCNpc@@PAX@2@XZ 005ff900 f i NpcThread.obj
 0002:000a8940       ?_Myval@?$_Tree_val@U?$_Tree_simple_types@PAVCNpc@@@std@@@std@@SAAAPAVCNpc@@PAU?$_Tree_node@PAVCNpc@@PAX@2@@Z 005ff940 f i NpcThread.obj
 0002:000a8980       ?_Myval@?$_Tree_val@U?$_Tree_simple_types@U?$pair@$$CBIPAVMAP@@@std@@@std@@@std@@SAAAU?$pair@$$CBIPAVMAP@@@2@PAU?$_Tree_node@U?$pair@$$CBIPAVMAP@@@std@@PAX@2@@Z 005ff980 f i NpcThread.obj
 0002:000a89c0       ?_Orphan_ptr@?$_Tree@V?$_Tset_traits@PAVCNpc@@U?$less@PAVCNpc@@@std@@V?$allocator@PAVCNpc@@@3@$0A@@std@@@std@@IBEXAAV12@PAU?$_Tree_node@PAVCNpc@@PAX@2@@Z 005ff9c0 f i NpcThread.obj
 0002:000a8b20       ?_Parent@?$_Tree_val@U?$_Tree_simple_types@PAVCNpc@@@std@@@std@@SAAAPAU?$_Tree_node@PAVCNpc@@PAX@2@PAU32@@Z 005ffb20 f i NpcThread.obj
 0002:000a8b60       ?_Parent@?$_Tree_val@U?$_Tree_simple_types@U?$pair@$$CBIPAVMAP@@@std@@@std@@@std@@SAAAPAU?$_Tree_node@U?$pair@$$CBIPAVMAP@@@std@@PAX@2@PAU32@@Z 005ffb60 f i NpcThread.obj
 0002:000a8ba0       ?_Right@?$_Tree_val@U?$_Tree_simple_types@PAVCNpc@@@std@@@std@@SAAAPAU?$_Tree_node@PAVCNpc@@PAX@2@PAU32@@Z 005ffba0 f i NpcThread.obj
 0002:000a8be0       ?_Right@?$_Tree_val@U?$_Tree_simple_types@U?$pair@$$CBIPAVMAP@@@std@@@std@@@std@@SAAAPAU?$_Tree_node@U?$pair@$$CBIPAVMAP@@@std@@PAX@2@PAU32@@Z 005ffbe0 f i NpcThread.obj
 0002:000a8c20       ?_Rmost@?$_Tree@V?$_Tset_traits@PAVCNpc@@U?$less@PAVCNpc@@@std@@V?$allocator@PAVCNpc@@@3@$0A@@std@@@std@@IBEAAPAU?$_Tree_node@PAVCNpc@@PAX@2@XZ 005ffc20 f i NpcThread.obj
 0002:000a8c80       ?_Root@?$_Tree@V?$_Tset_traits@PAVCNpc@@U?$less@PAVCNpc@@@std@@V?$allocator@PAVCNpc@@@3@$0A@@std@@@std@@IBEAAPAU?$_Tree_node@PAVCNpc@@PAX@2@XZ 005ffc80 f i NpcThread.obj
 0002:000a8ce0       ?_Rrotate@?$_Tree@V?$_Tset_traits@PAVCNpc@@U?$less@PAVCNpc@@@std@@V?$allocator@PAVCNpc@@@3@$0A@@std@@@std@@IAEXPAU?$_Tree_node@PAVCNpc@@PAX@2@@Z 005ffce0 f i NpcThread.obj
 0002:000a8e90       ?_Tidy@?$_Tree@V?$_Tset_traits@PAVCNpc@@U?$less@PAVCNpc@@@std@@V?$allocator@PAVCNpc@@@3@$0A@@std@@@std@@IAEXXZ 005ffe90 f i NpcThread.obj
 0002:000a8f40       ?allocate@?$_Wrap_alloc@V?$allocator@U?$_Tree_node@PAVCNpc@@PAX@std@@@std@@@std@@QAEPAU?$_Tree_node@PAVCNpc@@PAX@2@I@Z 005fff40 f i NpcThread.obj
 0002:000a8fa0       ?allocate@?$allocator@U?$_Tree_node@PAVCNpc@@PAX@std@@@std@@QAEPAU?$_Tree_node@PAVCNpc@@PAX@2@I@Z 005fffa0 f i NpcThread.obj
 0002:000a9000       ?begin@?$_Tree@V?$_Tmap_traits@IPAVMAP@@U?$less@I@std@@V?$allocator@U?$pair@$$CBIPAVMAP@@@std@@@3@$0A@@std@@@std@@QAE?AV?$_Tree_iterator@V?$_Tree_val@U?$_Tree_simple_types@U?$pair@$$CBIPAVMAP@@@std@@@std@@@std@@@2@XZ 00600000 f i NpcThread.obj
 0002:000a9070       ?begin@?$_Tree@V?$_Tset_traits@PAVCNpc@@U?$less@PAVCNpc@@@std@@V?$allocator@PAVCNpc@@@3@$0A@@std@@@std@@QAE?AV?$_Tree_const_iterator@V?$_Tree_val@U?$_Tree_simple_types@PAVCNpc@@@std@@@std@@@2@XZ 00600070 f i NpcThread.obj
 0002:000a90e0       ?clear@?$_Tree@V?$_Tset_traits@PAVCNpc@@U?$less@PAVCNpc@@@std@@V?$allocator@PAVCNpc@@@3@$0A@@std@@@std@@QAEXXZ 006000e0 f i NpcThread.obj
 0002:000a91a0       ?deallocate@?$_Wrap_alloc@V?$allocator@U?$_Tree_node@PAVCNpc@@PAX@std@@@std@@@std@@QAEXPAU?$_Tree_node@PAVCNpc@@PAX@2@I@Z 006001a0 f i NpcThread.obj
 0002:000a9200       ?deallocate@?$allocator@U?$_Tree_node@PAVCNpc@@PAX@std@@@std@@QAEXPAU?$_Tree_node@PAVCNpc@@PAX@2@I@Z 00600200 f i NpcThread.obj
 0002:000a9260       ?end@?$_Tree@V?$_Tmap_traits@IPAVMAP@@U?$less@I@std@@V?$allocator@U?$pair@$$CBIPAVMAP@@@std@@@3@$0A@@std@@@std@@QAE?AV?$_Tree_iterator@V?$_Tree_val@U?$_Tree_simple_types@U?$pair@$$CBIPAVMAP@@@std@@@std@@@std@@@2@XZ 00600260 f i NpcThread.obj
 0002:000a92d0       ?end@?$_Tree@V?$_Tset_traits@PAVCNpc@@U?$less@PAVCNpc@@@std@@V?$allocator@PAVCNpc@@@3@$0A@@std@@@std@@QAE?AV?$_Tree_const_iterator@V?$_Tree_val@U?$_Tree_simple_types@PAVCNpc@@@std@@@std@@@2@XZ 006002d0 f i NpcThread.obj
 0002:000a9340       ?equal_range@?$_Tree@V?$_Tset_traits@PAVCNpc@@U?$less@PAVCNpc@@@std@@V?$allocator@PAVCNpc@@@3@$0A@@std@@@std@@QAE?AU?$pair@V?$_Tree_const_iterator@V?$_Tree_val@U?$_Tree_simple_types@PAVCNpc@@@std@@@std@@@std@@V12@@2@ABQAVCNpc@@@Z 00600340 f i NpcThread.obj
 0002:000a9450       ?erase@?$_Tree@V?$_Tset_traits@PAVCNpc@@U?$less@PAVCNpc@@@std@@V?$allocator@PAVCNpc@@@3@$0A@@std@@@std@@QAE?AV?$_Tree_const_iterator@V?$_Tree_val@U?$_Tree_simple_types@PAVCNpc@@@std@@@std@@@2@V32@0@Z 00600450 f i NpcThread.obj
 0002:000a9770       ?erase@?$_Tree@V?$_Tset_traits@PAVCNpc@@U?$less@PAVCNpc@@@std@@V?$allocator@PAVCNpc@@@3@$0A@@std@@@std@@QAE?AV?$_Tree_const_iterator@V?$_Tree_val@U?$_Tree_simple_types@PAVCNpc@@@std@@@std@@@2@V32@@Z 00600770 f i NpcThread.obj
 0002:000aa1e0       ?erase@?$_Tree@V?$_Tset_traits@PAVCNpc@@U?$less@PAVCNpc@@@std@@V?$allocator@PAVCNpc@@@3@$0A@@std@@@std@@QAEIABQAVCNpc@@@Z 006011e0 f i NpcThread.obj
 0002:000aa430       ?insert@?$_Tree@V?$_Tset_traits@PAVCNpc@@U?$less@PAVCNpc@@@std@@V?$allocator@PAVCNpc@@@3@$0A@@std@@@std@@QAE?AU?$pair@V?$_Tree_const_iterator@V?$_Tree_val@U?$_Tree_simple_types@PAVCNpc@@@std@@@std@@@std@@_N@2@ABQAVCNpc@@@Z 00601430 f i NpcThread.obj
 0002:000aa540       ?insert@?$set@PAVCNpc@@U?$less@PAVCNpc@@@std@@V?$allocator@PAVCNpc@@@3@@std@@QAE?AU?$pair@V?$_Tree_const_iterator@V?$_Tree_val@U?$_Tree_simple_types@PAVCNpc@@@std@@@std@@@std@@_N@2@ABQAVCNpc@@@Z 00601540 f i NpcThread.obj
 0002:000aa650       ?isInProgress@CRoomEvent@@QAE_NXZ 00601650 f i NpcThread.obj
 0002:000aa6d0       ?joinable@thread@std@@QBE_NXZ 006016d0 f i NpcThread.obj
 0002:000aa740       ?max_size@?$_Tree@V?$_Tset_traits@PAVCNpc@@U?$less@PAVCNpc@@@std@@V?$allocator@PAVCNpc@@@3@$0A@@std@@@std@@QBEIXZ 00601740 f i NpcThread.obj
 0002:000aa7a0       ?max_size@?$_Wrap_alloc@V?$allocator@U?$_Tree_node@PAVCNpc@@PAX@std@@@std@@@std@@QBEIXZ 006017a0 f i NpcThread.obj
 0002:000aa800       ?max_size@?$allocator@U?$_Tree_node@PAVCNpc@@PAX@std@@@std@@QBEIXZ 00601800 f i NpcThread.obj
 0002:000aa840       ?max_size@?$allocator_traits@V?$allocator@U?$_Tree_node@PAVCNpc@@PAX@std@@@std@@@std@@SAIABV?$allocator@U?$_Tree_node@PAVCNpc@@PAX@std@@@2@@Z 00601840 f i NpcThread.obj
 0002:000aa890       ?pointer_to@?$pointer_traits@PAU?$pair@$$CBIPAVMAP@@@std@@@std@@SAPAU?$pair@$$CBIPAVMAP@@@2@AAU32@@Z 00601890 f i NpcThread.obj
 0002:000aa8e0       ??0CParty@@QAE@XZ          006018e0 f   Party.obj
 0002:000aa930       ??1CParty@@UAE@XZ          00601930 f   Party.obj
 0002:000aa970       ??9?$_Tree_const_iterator@V?$_Tree_val@U?$_Tree_simple_types@U?$pair@$$CBIPAU_PARTY_GROUP@@@std@@@std@@@std@@@std@@QBE_NABV01@@Z 00601970 f i Party.obj
 0002:000aaa00       ??C?$_Tree_iterator@V?$_Tree_val@U?$_Tree_simple_types@U?$pair@$$CBIPAU_PARTY_GROUP@@@std@@@std@@@std@@@std@@QBEPAU?$pair@$$CBIPAU_PARTY_GROUP@@@1@XZ 00601a00 f i Party.obj
 0002:000aaa60       ??D?$_Tree_const_iterator@V?$_Tree_val@U?$_Tree_simple_types@U?$pair@$$CBIPAU_PARTY_GROUP@@@std@@@std@@@std@@@std@@QBEABU?$pair@$$CBIPAU_PARTY_GROUP@@@1@XZ 00601a60 f i Party.obj
 0002:000aab70       ??D?$_Tree_iterator@V?$_Tree_val@U?$_Tree_simple_types@U?$pair@$$CBIPAU_PARTY_GROUP@@@std@@@std@@@std@@@std@@QBEAAU?$pair@$$CBIPAU_PARTY_GROUP@@@1@XZ 00601b70 f i Party.obj
 0002:000aabc0       ??E?$_Tree_const_iterator@V?$_Tree_val@U?$_Tree_simple_types@U?$pair@$$CBIPAU_PARTY_GROUP@@@std@@@std@@@std@@@std@@QAEAAV01@XZ 00601bc0 f i Party.obj
 0002:000aacd0       ??E?$_Tree_unchecked_const_iterator@V?$_Tree_val@U?$_Tree_simple_types@U?$pair@$$CBIPAU_PARTY_GROUP@@@std@@@std@@@std@@U_Iterator_base12@2@@std@@QAEAAV01@XZ 00601cd0 f i Party.obj
 0002:000aae00       ??_GCParty@@UAEPAXI@Z      00601e00 f i Party.obj
 0002:000aae00       ??_ECParty@@UAEPAXI@Z      00601e00 f i Party.obj
 0002:000aae70       ?DeleteData@?$CSTLMap@U_PARTY_GROUP@@@@QAEXI@Z 00601e70 f i Party.obj
 0002:000ab070       ?GetData@?$CSTLMap@U_PARTY_GROUP@@@@QAEPAU_PARTY_GROUP@@I@Z 00602070 f i Party.obj
 0002:000ab230       ?Initialize@CParty@@QAEXXZ 00602230 f   Party.obj
 0002:000ab270       ?PartyCreate@CParty@@QAEXAAVPacket@@@Z 00602270 f   Party.obj
 0002:000ab470       ?PartyDelete@CParty@@QAEXAAVPacket@@@Z 00602470 f   Party.obj
 0002:000ab580       ?PartyInsert@CParty@@QAEXAAVPacket@@@Z 00602580 f   Party.obj
 0002:000ab6b0       ?PartyProcess@CParty@@QAEXAAVPacket@@@Z 006026b0 f   Party.obj
 0002:000ab7a0       ?PartyRemove@CParty@@QAEXAAVPacket@@@Z 006027a0 f   Party.obj
 0002:000ab8f0       ?_Lbound@?$_Tree@V?$_Tmap_traits@IPAU_PARTY_GROUP@@U?$less@I@std@@V?$allocator@U?$pair@$$CBIPAU_PARTY_GROUP@@@std@@@3@$0A@@std@@@std@@IAEPAU?$_Tree_node@U?$pair@$$CBIPAU_PARTY_GROUP@@@std@@PAX@2@ABI@Z 006028f0 f i Party.obj
 0002:000aba00       ?_Min@?$_Tree_val@U?$_Tree_simple_types@U?$pair@$$CBIPAU_PARTY_GROUP@@@std@@@std@@@std@@SAPAU?$_Tree_node@U?$pair@$$CBIPAU_PARTY_GROUP@@@std@@PAX@2@PAU32@@Z 00602a00 f i Party.obj
 0002:000aba80       ?_Orphan_ptr@?$_Tree@V?$_Tmap_traits@IPAU_PARTY_GROUP@@U?$less@I@std@@V?$allocator@U?$pair@$$CBIPAU_PARTY_GROUP@@@std@@@3@$0A@@std@@@std@@IBEXAAV12@PAU?$_Tree_node@U?$pair@$$CBIPAU_PARTY_GROUP@@@std@@PAX@2@@Z 00602a80 f i Party.obj
 0002:000abbe0       ?end@?$_Tree@V?$_Tmap_traits@IPAU_PARTY_GROUP@@U?$less@I@std@@V?$allocator@U?$pair@$$CBIPAU_PARTY_GROUP@@@std@@@3@$0A@@std@@@std@@QAE?AV?$_Tree_iterator@V?$_Tree_val@U?$_Tree_simple_types@U?$pair@$$CBIPAU_PARTY_GROUP@@@std@@@std@@@std@@@2@XZ 00602be0 f i Party.obj
 0002:000abc50       ?erase@?$_Tree@V?$_Tmap_traits@IPAU_PARTY_GROUP@@U?$less@I@std@@V?$allocator@U?$pair@$$CBIPAU_PARTY_GROUP@@@std@@@3@$0A@@std@@@std@@QAE?AV?$_Tree_iterator@V?$_Tree_val@U?$_Tree_simple_types@U?$pair@$$CBIPAU_PARTY_GROUP@@@std@@@std@@@std@@@2@V?$_Tree_const_iterator@V?$_Tree_val@U?$_Tree_simple_types@U?$pair@$$CBIPAU_PARTY_GROUP@@@std@@@std@@@std@@@2@@Z 00602c50 f i Party.obj
 0002:000ac6c0       ?find@?$_Tree@V?$_Tmap_traits@IPAU_PARTY_GROUP@@U?$less@I@std@@V?$allocator@U?$pair@$$CBIPAU_PARTY_GROUP@@@std@@@3@$0A@@std@@@std@@QAE?AV?$_Tree_iterator@V?$_Tree_val@U?$_Tree_simple_types@U?$pair@$$CBIPAU_PARTY_GROUP@@@std@@@std@@@std@@@2@ABI@Z 006036c0 f i Party.obj
 0002:000ac9d0       ?lower_bound@?$_Tree@V?$_Tmap_traits@IPAU_PARTY_GROUP@@U?$less@I@std@@V?$allocator@U?$pair@$$CBIPAU_PARTY_GROUP@@@std@@@3@$0A@@std@@@std@@QAE?AV?$_Tree_iterator@V?$_Tree_val@U?$_Tree_simple_types@U?$pair@$$CBIPAU_PARTY_GROUP@@@std@@@std@@@std@@@2@ABI@Z 006039d0 f i Party.obj
 0002:000aca60       ?pointer_to@?$pointer_traits@PAU?$pair@$$CBIPAU_PARTY_GROUP@@@std@@@std@@SAPAU?$pair@$$CBIPAU_PARTY_GROUP@@@2@AAU32@@Z 00603a60 f i Party.obj
 0002:000acab0       ??$_Debug_lt@HH@std@@YA_NABH0PB_WI@Z 00603ab0 f i PathFind.obj
 0002:000acb30       ??$max@H@std@@YAABHABH0@Z  00603b30 f i PathFind.obj
 0002:000acbd0       ??0CPathFind@@QAE@XZ       00603bd0 f   PathFind.obj
 0002:000acc80       ??0CSize@@QAE@XZ           00603c80 f i PathFind.obj
 0002:000accd0       ??1CPathFind@@UAE@XZ       00603cd0 f   PathFind.obj
 0002:000acd40       ??_ECPathFind@@UAEPAXI@Z   00603d40 f i PathFind.obj
 0002:000acd40       ??_GCPathFind@@UAEPAXI@Z   00603d40 f i PathFind.obj
 0002:000acdb0       ?CheckClosed@CPathFind@@QAEPAV_PathNode@@HH@Z 00603db0 f   PathFind.obj
 0002:000ace40       ?CheckOpen@CPathFind@@QAEPAV_PathNode@@HH@Z 00603e40 f   PathFind.obj
 0002:000acec0       ?ClearData@CPathFind@@QAEXXZ 00603ec0 f   PathFind.obj
 0002:000acfd0       ?FindChildPath@CPathFind@@QAEXPAV_PathNode@@HH@Z 00603fd0 f   PathFind.obj
 0002:000ad310       ?FindChildPathSub@CPathFind@@QAEXPAV_PathNode@@HHHHH@Z 00604310 f   PathFind.obj
 0002:000ad5b0       ?FindPath@CPathFind@@QAEPAV_PathNode@@HHHH@Z 006045b0 f   PathFind.obj
 0002:000ad800       ?Insert@CPathFind@@QAEXPAV_PathNode@@@Z 00604800 f   PathFind.obj
 0002:000ad8c0       ?IsBlankMap@CPathFind@@QAE_NHH@Z 006048c0 f   PathFind.obj
 0002:000ad930       ?Pop@CPathFind@@QAEPAV_PathNode@@XZ 00604930 f   PathFind.obj
 0002:000ad9c0       ?PropagateDown@CPathFind@@QAEXPAV_PathNode@@@Z 006049c0 f   PathFind.obj
 0002:000adb60       ?Push@CPathFind@@QAEXPAV_PathNode@@@Z 00604b60 f   PathFind.obj
 0002:000adbf0       ?ReturnBestNode@CPathFind@@QAEPAV_PathNode@@XZ 00604bf0 f   PathFind.obj
 0002:000adc80       ?SetMap@CPathFind@@QAEXHHPAVMAP@@FF@Z 00604c80 f   PathFind.obj
 0002:000add00       ??0CRoomEvent@@QAE@XZ      00604d00 f   RoomEvent.obj
 0002:000ade50       ??1CRoomEvent@@UAE@XZ      00604e50 f   RoomEvent.obj
 0002:000adec0       ??_ECRoomEvent@@UAEPAXI@Z  00604ec0 f i RoomEvent.obj
 0002:000adec0       ??_GCRoomEvent@@UAEPAXI@Z  00604ec0 f i RoomEvent.obj
 0002:000adf30       ?CheckEvent@CRoomEvent@@AAE_NH@Z 00604f30 f   RoomEvent.obj
 0002:000ae250       ?CheckMonsterCount@CRoomEvent@@AAE_NHHH@Z 00605250 f   RoomEvent.obj
 0002:000ae5b0       ?EndEventSay@CRoomEvent@@AAEXHH@Z 006055b0 f   RoomEvent.obj
 0002:000ae860       ?GetNpcPtr@CRoomEvent@@AAEPAVCNpc@@H@Z 00605860 f   RoomEvent.obj
 0002:000aeb00       ?GetSize@?$CSTLMap@H@@QAEHXZ 00605b00 f i RoomEvent.obj
 0002:000aebb0       ?Initialize@CRoomEvent@@AAEXXZ 00605bb0 f   RoomEvent.obj
 0002:000aecb0       ?InitializeRoom@CRoomEvent@@QAEXXZ 00605cb0 f   RoomEvent.obj
 0002:000aed40       ?MainRoom@CRoomEvent@@QAEXXZ 00605d40 f   RoomEvent.obj
 0002:000aee20       ?RunEvent@CRoomEvent@@AAE_NH@Z 00605e20 f   RoomEvent.obj
 0002:000af280       ??$?0AAGAAPAU_ZONE_INFO@@@?$pair@GPAU_ZONE_INFO@@@std@@QAE@AAGAAPAU_ZONE_INFO@@PAPAX@Z 00606280 f i ServerDlg.obj
 0002:000af300       ??$?0AAGPAVCGameSocket@@@?$pair@GPAVCGameSocket@@@std@@QAE@AAG$$QAPAVCGameSocket@@PAPAX@Z 00606300 f i ServerDlg.obj
 0002:000af380       ??$?0AAIAAPAU_K_MONSTER_ITEM@@@?$pair@IPAU_K_MONSTER_ITEM@@@std@@QAE@AAIAAPAU_K_MONSTER_ITEM@@PAPAX@Z 00606380 f i ServerDlg.obj
 0002:000af400       ??$?0AAIAAPAU_MAGIC_TABLE@@@?$pair@IPAU_MAGIC_TABLE@@@std@@QAE@AAIAAPAU_MAGIC_TABLE@@PAPAX@Z 00606400 f i ServerDlg.obj
 0002:000af480       ??$?0AAIAAPAU_MAGIC_TYPE1@@@?$pair@IPAU_MAGIC_TYPE1@@@std@@QAE@AAIAAPAU_MAGIC_TYPE1@@PAPAX@Z 00606480 f i ServerDlg.obj
 0002:000af500       ??$?0AAIAAPAU_MAGIC_TYPE2@@@?$pair@IPAU_MAGIC_TYPE2@@@std@@QAE@AAIAAPAU_MAGIC_TYPE2@@PAPAX@Z 00606500 f i ServerDlg.obj
 0002:000af580       ??$?0AAIAAPAU_MAGIC_TYPE4@@@?$pair@IPAU_MAGIC_TYPE4@@@std@@QAE@AAIAAPAU_MAGIC_TYPE4@@PAPAX@Z 00606580 f i ServerDlg.obj
 0002:000af600       ??$?0AAIAAPAU_MAKE_ITEM_GRADE_CODE@@@?$pair@IPAU_MAKE_ITEM_GRADE_CODE@@@std@@QAE@AAIAAPAU_MAKE_ITEM_GRADE_CODE@@PAPAX@Z 00606600 f i ServerDlg.obj
 0002:000af680       ??$?0AAIAAPAU_MAKE_ITEM_GROUP@@@?$pair@IPAU_MAKE_ITEM_GROUP@@@std@@QAE@AAIAAPAU_MAKE_ITEM_GROUP@@PAPAX@Z 00606680 f i ServerDlg.obj
 0002:000af700       ??$?0AAIAAPAU_MAKE_ITEM_LARE_CODE@@@?$pair@IPAU_MAKE_ITEM_LARE_CODE@@@std@@QAE@AAIAAPAU_MAKE_ITEM_LARE_CODE@@PAPAX@Z 00606700 f i ServerDlg.obj
 0002:000af780       ??$?0AAIAAPAU_MAKE_WEAPON@@@?$pair@IPAU_MAKE_WEAPON@@@std@@QAE@AAIAAPAU_MAKE_WEAPON@@PAPAX@Z 00606780 f i ServerDlg.obj
 0002:000af800       ??$?0AAIAAPAU_NPC_LIVE_TIME@@@?$pair@IPAU_NPC_LIVE_TIME@@@std@@QAE@AAIAAPAU_NPC_LIVE_TIME@@PAPAX@Z 00606800 f i ServerDlg.obj
 0002:000af880       ??$?0AAIAAPAU_OBJECT_EVENT@@@?$pair@IPAU_OBJECT_EVENT@@@std@@QAE@AAIAAPAU_OBJECT_EVENT@@PAPAX@Z 00606880 f i ServerDlg.obj
 0002:000af900       ??$?0AAIAAPAU_SERVER_RESOURCE@@@?$pair@IPAU_SERVER_RESOURCE@@@std@@QAE@AAIAAPAU_SERVER_RESOURCE@@PAPAX@Z 00606900 f i ServerDlg.obj
 0002:000af980       ??$?0AAIAAPAVCNpc@@@?$pair@IPAVCNpc@@@std@@QAE@AAIAAPAVCNpc@@PAPAX@Z 00606980 f i ServerDlg.obj
 0002:000afa00       ??$?0AAIAAPAVCNpcTable@@@?$pair@IPAVCNpcTable@@@std@@QAE@AAIAAPAVCNpcTable@@PAPAX@Z 00606a00 f i ServerDlg.obj
 0002:000afa80       ??$?0AAIAAPAVMAP@@@?$pair@IPAVMAP@@@std@@QAE@AAIAAPAVMAP@@PAPAX@Z 00606a80 f i ServerDlg.obj
 0002:000afb00       ??$?0AAV?$_Tree_iterator@V?$_Tree_val@U?$_Tree_simple_types@U?$pair@$$CBEPAVCNpcThread@@@std@@@std@@@std@@@std@@_N@?$pair@V?$_Tree_iterator@V?$_Tree_val@U?$_Tree_simple_types@U?$pair@$$CBEPAVCNpcThread@@@std@@@std@@@std@@@std@@_N@std@@QAE@AAV?$_Tree_iterator@V?$_Tree_val@U?$_Tree_simple_types@U?$pair@$$CBEPAVCNpcThread@@@std@@@std@@@std@@@1@$$QA_NPAPAX@Z 00606b00 f i ServerDlg.obj
 0002:000afbd0       ??$?0AAV?$_Tree_iterator@V?$_Tree_val@U?$_Tree_simple_types@U?$pair@$$CBGPAU_ZONE_INFO@@@std@@@std@@@std@@@std@@_N@?$pair@V?$_Tree_iterator@V?$_Tree_val@U?$_Tree_simple_types@U?$pair@$$CBGPAU_ZONE_INFO@@@std@@@std@@@std@@@std@@_N@std@@QAE@AAV?$_Tree_iterator@V?$_Tree_val@U?$_Tree_simple_types@U?$pair@$$CBGPAU_ZONE_INFO@@@std@@@std@@@std@@@1@$$QA_NPAPAX@Z 00606bd0 f i ServerDlg.obj
 0002:000afca0       ??$?0AAV?$_Tree_iterator@V?$_Tree_val@U?$_Tree_simple_types@U?$pair@$$CBGPAVKOSocket@@@std@@@std@@@std@@@std@@_N@?$pair@V?$_Tree_iterator@V?$_Tree_val@U?$_Tree_simple_types@U?$pair@$$CBGPAVKOSocket@@@std@@@std@@@std@@@std@@_N@std@@QAE@AAV?$_Tree_iterator@V?$_Tree_val@U?$_Tree_simple_types@U?$pair@$$CBGPAVKOSocket@@@std@@@std@@@std@@@1@$$QA_NPAPAX@Z 00606ca0 f i ServerDlg.obj
 0002:000afd70       ??$?0AAV?$_Tree_iterator@V?$_Tree_val@U?$_Tree_simple_types@U?$pair@$$CBIPAU_K_MONSTER_ITEM@@@std@@@std@@@std@@@std@@_N@?$pair@V?$_Tree_iterator@V?$_Tree_val@U?$_Tree_simple_types@U?$pair@$$CBIPAU_K_MONSTER_ITEM@@@std@@@std@@@std@@@std@@_N@std@@QAE@AAV?$_Tree_iterator@V?$_Tree_val@U?$_Tree_simple_types@U?$pair@$$CBIPAU_K_MONSTER_ITEM@@@std@@@std@@@std@@@1@$$QA_NPAPAX@Z 00606d70 f i ServerDlg.obj
 0002:000afe40       ??$?0AAV?$_Tree_iterator@V?$_Tree_val@U?$_Tree_simple_types@U?$pair@$$CBIPAU_MAGIC_TABLE@@@std@@@std@@@std@@@std@@_N@?$pair@V?$_Tree_iterator@V?$_Tree_val@U?$_Tree_simple_types@U?$pair@$$CBIPAU_MAGIC_TABLE@@@std@@@std@@@std@@@std@@_N@std@@QAE@AAV?$_Tree_iterator@V?$_Tree_val@U?$_Tree_simple_types@U?$pair@$$CBIPAU_MAGIC_TABLE@@@std@@@std@@@std@@@1@$$QA_NPAPAX@Z 00606e40 f i ServerDlg.obj
 0002:000aff10       ??$?0AAV?$_Tree_iterator@V?$_Tree_val@U?$_Tree_simple_types@U?$pair@$$CBIPAU_MAGIC_TYPE1@@@std@@@std@@@std@@@std@@_N@?$pair@V?$_Tree_iterator@V?$_Tree_val@U?$_Tree_simple_types@U?$pair@$$CBIPAU_MAGIC_TYPE1@@@std@@@std@@@std@@@std@@_N@std@@QAE@AAV?$_Tree_iterator@V?$_Tree_val@U?$_Tree_simple_types@U?$pair@$$CBIPAU_MAGIC_TYPE1@@@std@@@std@@@std@@@1@$$QA_NPAPAX@Z 00606f10 f i ServerDlg.obj
 0002:000affe0       ??$?0AAV?$_Tree_iterator@V?$_Tree_val@U?$_Tree_simple_types@U?$pair@$$CBIPAU_MAGIC_TYPE2@@@std@@@std@@@std@@@std@@_N@?$pair@V?$_Tree_iterator@V?$_Tree_val@U?$_Tree_simple_types@U?$pair@$$CBIPAU_MAGIC_TYPE2@@@std@@@std@@@std@@@std@@_N@std@@QAE@AAV?$_Tree_iterator@V?$_Tree_val@U?$_Tree_simple_types@U?$pair@$$CBIPAU_MAGIC_TYPE2@@@std@@@std@@@std@@@1@$$QA_NPAPAX@Z 00606fe0 f i ServerDlg.obj
 0002:000b00b0       ??$?0AAV?$_Tree_iterator@V?$_Tree_val@U?$_Tree_simple_types@U?$pair@$$CBIPAU_MAGIC_TYPE4@@@std@@@std@@@std@@@std@@_N@?$pair@V?$_Tree_iterator@V?$_Tree_val@U?$_Tree_simple_types@U?$pair@$$CBIPAU_MAGIC_TYPE4@@@std@@@std@@@std@@@std@@_N@std@@QAE@AAV?$_Tree_iterator@V?$_Tree_val@U?$_Tree_simple_types@U?$pair@$$CBIPAU_MAGIC_TYPE4@@@std@@@std@@@std@@@1@$$QA_NPAPAX@Z 006070b0 f i ServerDlg.obj
 0002:000b0180       ??$?0AAV?$_Tree_iterator@V?$_Tree_val@U?$_Tree_simple_types@U?$pair@$$CBIPAU_MAKE_ITEM_GRADE_CODE@@@std@@@std@@@std@@@std@@_N@?$pair@V?$_Tree_iterator@V?$_Tree_val@U?$_Tree_simple_types@U?$pair@$$CBIPAU_MAKE_ITEM_GRADE_CODE@@@std@@@std@@@std@@@std@@_N@std@@QAE@AAV?$_Tree_iterator@V?$_Tree_val@U?$_Tree_simple_types@U?$pair@$$CBIPAU_MAKE_ITEM_GRADE_CODE@@@std@@@std@@@std@@@1@$$QA_NPAPAX@Z 00607180 f i ServerDlg.obj
 0002:000b0250       ??$?0AAV?$_Tree_iterator@V?$_Tree_val@U?$_Tree_simple_types@U?$pair@$$CBIPAU_MAKE_ITEM_GROUP@@@std@@@std@@@std@@@std@@_N@?$pair@V?$_Tree_iterator@V?$_Tree_val@U?$_Tree_simple_types@U?$pair@$$CBIPAU_MAKE_ITEM_GROUP@@@std@@@std@@@std@@@std@@_N@std@@QAE@AAV?$_Tree_iterator@V?$_Tree_val@U?$_Tree_simple_types@U?$pair@$$CBIPAU_MAKE_ITEM_GROUP@@@std@@@std@@@std@@@1@$$QA_NPAPAX@Z 00607250 f i ServerDlg.obj
 0002:000b0320       ??$?0AAV?$_Tree_iterator@V?$_Tree_val@U?$_Tree_simple_types@U?$pair@$$CBIPAU_MAKE_ITEM_LARE_CODE@@@std@@@std@@@std@@@std@@_N@?$pair@V?$_Tree_iterator@V?$_Tree_val@U?$_Tree_simple_types@U?$pair@$$CBIPAU_MAKE_ITEM_LARE_CODE@@@std@@@std@@@std@@@std@@_N@std@@QAE@AAV?$_Tree_iterator@V?$_Tree_val@U?$_Tree_simple_types@U?$pair@$$CBIPAU_MAKE_ITEM_LARE_CODE@@@std@@@std@@@std@@@1@$$QA_NPAPAX@Z 00607320 f i ServerDlg.obj
 0002:000b03f0       ??$?0AAV?$_Tree_iterator@V?$_Tree_val@U?$_Tree_simple_types@U?$pair@$$CBIPAU_MAKE_WEAPON@@@std@@@std@@@std@@@std@@_N@?$pair@V?$_Tree_iterator@V?$_Tree_val@U?$_Tree_simple_types@U?$pair@$$CBIPAU_MAKE_WEAPON@@@std@@@std@@@std@@@std@@_N@std@@QAE@AAV?$_Tree_iterator@V?$_Tree_val@U?$_Tree_simple_types@U?$pair@$$CBIPAU_MAKE_WEAPON@@@std@@@std@@@std@@@1@$$QA_NPAPAX@Z 006073f0 f i ServerDlg.obj
 0002:000b04c0       ??$?0AAV?$_Tree_iterator@V?$_Tree_val@U?$_Tree_simple_types@U?$pair@$$CBIPAU_NPC_LIVE_TIME@@@std@@@std@@@std@@@std@@_N@?$pair@V?$_Tree_iterator@V?$_Tree_val@U?$_Tree_simple_types@U?$pair@$$CBIPAU_NPC_LIVE_TIME@@@std@@@std@@@std@@@std@@_N@std@@QAE@AAV?$_Tree_iterator@V?$_Tree_val@U?$_Tree_simple_types@U?$pair@$$CBIPAU_NPC_LIVE_TIME@@@std@@@std@@@std@@@1@$$QA_NPAPAX@Z 006074c0 f i ServerDlg.obj
 0002:000b0590       ??$?0AAV?$_Tree_iterator@V?$_Tree_val@U?$_Tree_simple_types@U?$pair@$$CBIPAU_OBJECT_EVENT@@@std@@@std@@@std@@@std@@_N@?$pair@V?$_Tree_iterator@V?$_Tree_val@U?$_Tree_simple_types@U?$pair@$$CBIPAU_OBJECT_EVENT@@@std@@@std@@@std@@@std@@_N@std@@QAE@AAV?$_Tree_iterator@V?$_Tree_val@U?$_Tree_simple_types@U?$pair@$$CBIPAU_OBJECT_EVENT@@@std@@@std@@@std@@@1@$$QA_NPAPAX@Z 00607590 f i ServerDlg.obj
 0002:000b0660       ??$?0AAV?$_Tree_iterator@V?$_Tree_val@U?$_Tree_simple_types@U?$pair@$$CBIPAU_SERVER_RESOURCE@@@std@@@std@@@std@@@std@@_N@?$pair@V?$_Tree_iterator@V?$_Tree_val@U?$_Tree_simple_types@U?$pair@$$CBIPAU_SERVER_RESOURCE@@@std@@@std@@@std@@@std@@_N@std@@QAE@AAV?$_Tree_iterator@V?$_Tree_val@U?$_Tree_simple_types@U?$pair@$$CBIPAU_SERVER_RESOURCE@@@std@@@std@@@std@@@1@$$QA_NPAPAX@Z 00607660 f i ServerDlg.obj
 0002:000b0730       ??$?0AAV?$_Tree_iterator@V?$_Tree_val@U?$_Tree_simple_types@U?$pair@$$CBIPAVCNpc@@@std@@@std@@@std@@@std@@_N@?$pair@V?$_Tree_iterator@V?$_Tree_val@U?$_Tree_simple_types@U?$pair@$$CBIPAVCNpc@@@std@@@std@@@std@@@std@@_N@std@@QAE@AAV?$_Tree_iterator@V?$_Tree_val@U?$_Tree_simple_types@U?$pair@$$CBIPAVCNpc@@@std@@@std@@@std@@@1@$$QA_NPAPAX@Z 00607730 f i ServerDlg.obj
 0002:000b0800       ??$?0AAV?$_Tree_iterator@V?$_Tree_val@U?$_Tree_simple_types@U?$pair@$$CBIPAVCNpcTable@@@std@@@std@@@std@@@std@@_N@?$pair@V?$_Tree_iterator@V?$_Tree_val@U?$_Tree_simple_types@U?$pair@$$CBIPAVCNpcTable@@@std@@@std@@@std@@@std@@_N@std@@QAE@AAV?$_Tree_iterator@V?$_Tree_val@U?$_Tree_simple_types@U?$pair@$$CBIPAVCNpcTable@@@std@@@std@@@std@@@1@$$QA_NPAPAX@Z 00607800 f i ServerDlg.obj
 0002:000b08d0       ??$?0AAV?$_Tree_iterator@V?$_Tree_val@U?$_Tree_simple_types@U?$pair@$$CBIPAVMAP@@@std@@@std@@@std@@@std@@_N@?$pair@V?$_Tree_iterator@V?$_Tree_val@U?$_Tree_simple_types@U?$pair@$$CBIPAVMAP@@@std@@@std@@@std@@@std@@_N@std@@QAE@AAV?$_Tree_iterator@V?$_Tree_val@U?$_Tree_simple_types@U?$pair@$$CBIPAVMAP@@@std@@@std@@@std@@@1@$$QA_NPAPAX@Z 006078d0 f i ServerDlg.obj
 0002:000b09a0       ??$?0ABGAAPAVKOSocket@@@?$pair@GPAVKOSocket@@@std@@QAE@ABGAAPAVKOSocket@@PAPAX@Z 006079a0 f i ServerDlg.obj
 0002:000b0a20       ??$?0ABGPAVCUser@@@?$pair@GPAVCUser@@@std@@QAE@ABG$$QAPAVCUser@@PAPAX@Z 00607a20 f i ServerDlg.obj
 0002:000b0aa0       ??$?0ABIAAPAVCNpcThread@@@?$pair@IPAVCNpcThread@@@std@@QAE@ABIAAPAVCNpcThread@@PAPAX@Z 00607aa0 f i ServerDlg.obj
 0002:000b0b20       ??$?0ABIPAVCNpcThread@@@?$pair@IPAVCNpcThread@@@std@@QAE@ABI$$QAPAVCNpcThread@@PAPAX@Z 00607b20 f i ServerDlg.obj
 0002:000b0ba0       ??$?0GPAU_ZONE_INFO@@@?$pair@$$CBGPAU_ZONE_INFO@@@std@@QAE@$$QAU?$pair@GPAU_ZONE_INFO@@@1@PAPAX@Z 00607ba0 f i ServerDlg.obj
 0002:000b0c30       ??$?0GPAU_ZONE_INFO@@@?$pair@GPAU_ZONE_INFO@@@std@@QAE@$$QAU01@PAPAX@Z 00607c30 f i ServerDlg.obj
 0002:000b0cc0       ??$?0GPAVCGameSocket@@@?$pair@$$CBGPAVKOSocket@@@std@@QAE@$$QAU?$pair@GPAVCGameSocket@@@1@PAPAX@Z 00607cc0 f i ServerDlg.obj
 0002:000b0d50       ??$?0GPAVCGameSocket@@@?$pair@GPAVCGameSocket@@@std@@QAE@$$QAU01@PAPAX@Z 00607d50 f i ServerDlg.obj
 0002:000b0de0       ??$?0GPAVKOSocket@@@?$pair@$$CBGPAVKOSocket@@@std@@QAE@$$QAU?$pair@GPAVKOSocket@@@1@PAPAX@Z 00607de0 f i ServerDlg.obj
 0002:000b0e70       ??$?0GPAVKOSocket@@@?$pair@GPAVKOSocket@@@std@@QAE@$$QAU01@PAPAX@Z 00607e70 f i ServerDlg.obj
 0002:000b0f00       ??$?0IPAU_K_MONSTER_ITEM@@@?$pair@$$CBIPAU_K_MONSTER_ITEM@@@std@@QAE@$$QAU?$pair@IPAU_K_MONSTER_ITEM@@@1@PAPAX@Z 00607f00 f i ServerDlg.obj
 0002:000b0f80       ??$?0IPAU_K_MONSTER_ITEM@@@?$pair@IPAU_K_MONSTER_ITEM@@@std@@QAE@$$QAU01@PAPAX@Z 00607f80 f i ServerDlg.obj
 0002:000b1000       ??$?0IPAU_MAGIC_TABLE@@@?$pair@$$CBIPAU_MAGIC_TABLE@@@std@@QAE@$$QAU?$pair@IPAU_MAGIC_TABLE@@@1@PAPAX@Z 00608000 f i ServerDlg.obj
 0002:000b1080       ??$?0IPAU_MAGIC_TABLE@@@?$pair@IPAU_MAGIC_TABLE@@@std@@QAE@$$QAU01@PAPAX@Z 00608080 f i ServerDlg.obj
 0002:000b1100       ??$?0IPAU_MAGIC_TYPE1@@@?$pair@$$CBIPAU_MAGIC_TYPE1@@@std@@QAE@$$QAU?$pair@IPAU_MAGIC_TYPE1@@@1@PAPAX@Z 00608100 f i ServerDlg.obj
 0002:000b1180       ??$?0IPAU_MAGIC_TYPE1@@@?$pair@IPAU_MAGIC_TYPE1@@@std@@QAE@$$QAU01@PAPAX@Z 00608180 f i ServerDlg.obj
 0002:000b1200       ??$?0IPAU_MAGIC_TYPE2@@@?$pair@$$CBIPAU_MAGIC_TYPE2@@@std@@QAE@$$QAU?$pair@IPAU_MAGIC_TYPE2@@@1@PAPAX@Z 00608200 f i ServerDlg.obj
 0002:000b1280       ??$?0IPAU_MAGIC_TYPE2@@@?$pair@IPAU_MAGIC_TYPE2@@@std@@QAE@$$QAU01@PAPAX@Z 00608280 f i ServerDlg.obj
 0002:000b1300       ??$?0IPAU_MAGIC_TYPE4@@@?$pair@$$CBIPAU_MAGIC_TYPE4@@@std@@QAE@$$QAU?$pair@IPAU_MAGIC_TYPE4@@@1@PAPAX@Z 00608300 f i ServerDlg.obj
 0002:000b1380       ??$?0IPAU_MAGIC_TYPE4@@@?$pair@IPAU_MAGIC_TYPE4@@@std@@QAE@$$QAU01@PAPAX@Z 00608380 f i ServerDlg.obj
 0002:000b1400       ??$?0IPAU_MAKE_ITEM_GRADE_CODE@@@?$pair@$$CBIPAU_MAKE_ITEM_GRADE_CODE@@@std@@QAE@$$QAU?$pair@IPAU_MAKE_ITEM_GRADE_CODE@@@1@PAPAX@Z 00608400 f i ServerDlg.obj
 0002:000b1480       ??$?0IPAU_MAKE_ITEM_GRADE_CODE@@@?$pair@IPAU_MAKE_ITEM_GRADE_CODE@@@std@@QAE@$$QAU01@PAPAX@Z 00608480 f i ServerDlg.obj
 0002:000b1500       ??$?0IPAU_MAKE_ITEM_GROUP@@@?$pair@$$CBIPAU_MAKE_ITEM_GROUP@@@std@@QAE@$$QAU?$pair@IPAU_MAKE_ITEM_GROUP@@@1@PAPAX@Z 00608500 f i ServerDlg.obj
 0002:000b1580       ??$?0IPAU_MAKE_ITEM_GROUP@@@?$pair@IPAU_MAKE_ITEM_GROUP@@@std@@QAE@$$QAU01@PAPAX@Z 00608580 f i ServerDlg.obj
 0002:000b1600       ??$?0IPAU_MAKE_ITEM_LARE_CODE@@@?$pair@$$CBIPAU_MAKE_ITEM_LARE_CODE@@@std@@QAE@$$QAU?$pair@IPAU_MAKE_ITEM_LARE_CODE@@@1@PAPAX@Z 00608600 f i ServerDlg.obj
 0002:000b1680       ??$?0IPAU_MAKE_ITEM_LARE_CODE@@@?$pair@IPAU_MAKE_ITEM_LARE_CODE@@@std@@QAE@$$QAU01@PAPAX@Z 00608680 f i ServerDlg.obj
 0002:000b1700       ??$?0IPAU_MAKE_WEAPON@@@?$pair@$$CBIPAU_MAKE_WEAPON@@@std@@QAE@$$QAU?$pair@IPAU_MAKE_WEAPON@@@1@PAPAX@Z 00608700 f i ServerDlg.obj
 0002:000b1780       ??$?0IPAU_MAKE_WEAPON@@@?$pair@IPAU_MAKE_WEAPON@@@std@@QAE@$$QAU01@PAPAX@Z 00608780 f i ServerDlg.obj
 0002:000b1800       ??$?0IPAU_NPC_LIVE_TIME@@@?$pair@$$CBIPAU_NPC_LIVE_TIME@@@std@@QAE@$$QAU?$pair@IPAU_NPC_LIVE_TIME@@@1@PAPAX@Z 00608800 f i ServerDlg.obj
 0002:000b1880       ??$?0IPAU_NPC_LIVE_TIME@@@?$pair@IPAU_NPC_LIVE_TIME@@@std@@QAE@$$QAU01@PAPAX@Z 00608880 f i ServerDlg.obj
 0002:000b1900       ??$?0IPAU_OBJECT_EVENT@@@?$pair@$$CBIPAU_OBJECT_EVENT@@@std@@QAE@$$QAU?$pair@IPAU_OBJECT_EVENT@@@1@PAPAX@Z 00608900 f i ServerDlg.obj
 0002:000b1980       ??$?0IPAU_OBJECT_EVENT@@@?$pair@IPAU_OBJECT_EVENT@@@std@@QAE@$$QAU01@PAPAX@Z 00608980 f i ServerDlg.obj
 0002:000b1a00       ??$?0IPAU_SERVER_RESOURCE@@@?$pair@$$CBIPAU_SERVER_RESOURCE@@@std@@QAE@$$QAU?$pair@IPAU_SERVER_RESOURCE@@@1@PAPAX@Z 00608a00 f i ServerDlg.obj
 0002:000b1a80       ??$?0IPAU_SERVER_RESOURCE@@@?$pair@IPAU_SERVER_RESOURCE@@@std@@QAE@$$QAU01@PAPAX@Z 00608a80 f i ServerDlg.obj
 0002:000b1b00       ??$?0IPAVCNpc@@@?$pair@$$CBIPAVCNpc@@@std@@QAE@$$QAU?$pair@IPAVCNpc@@@1@PAPAX@Z 00608b00 f i ServerDlg.obj
 0002:000b1b80       ??$?0IPAVCNpc@@@?$pair@IPAVCNpc@@@std@@QAE@$$QAU01@PAPAX@Z 00608b80 f i ServerDlg.obj
 0002:000b1c00       ??$?0IPAVCNpcTable@@@?$pair@$$CBIPAVCNpcTable@@@std@@QAE@$$QAU?$pair@IPAVCNpcTable@@@1@PAPAX@Z 00608c00 f i ServerDlg.obj
 0002:000b1c80       ??$?0IPAVCNpcTable@@@?$pair@IPAVCNpcTable@@@std@@QAE@$$QAU01@PAPAX@Z 00608c80 f i ServerDlg.obj
 0002:000b1d00       ??$?0IPAVCNpcThread@@@?$pair@$$CBEPAVCNpcThread@@@std@@QAE@$$QAU?$pair@IPAVCNpcThread@@@1@PAPAX@Z 00608d00 f i ServerDlg.obj
 0002:000b1d80       ??$?0IPAVCNpcThread@@@?$pair@IPAVCNpcThread@@@std@@QAE@$$QAU01@PAPAX@Z 00608d80 f i ServerDlg.obj
 0002:000b1e00       ??$?0IPAVMAP@@@?$pair@$$CBIPAVMAP@@@std@@QAE@$$QAU?$pair@IPAVMAP@@@1@PAPAX@Z 00608e00 f i ServerDlg.obj
 0002:000b1e80       ??$?0IPAVMAP@@@?$pair@IPAVMAP@@@std@@QAE@$$QAU01@PAPAX@Z 00608e80 f i ServerDlg.obj
 0002:000b1f00       ??$?0U?$_Tree_node@U?$pair@$$CBEPAVCNpcThread@@@std@@PAX@std@@@?$allocator@U_Container_proxy@std@@@std@@QAE@ABV?$allocator@U?$_Tree_node@U?$pair@$$CBEPAVCNpcThread@@@std@@PAX@std@@@1@@Z 00608f00 f i ServerDlg.obj
 0002:000b1f40       ??$?0U?$_Tree_node@U?$pair@$$CBGPAU_ZONE_INFO@@@std@@PAX@std@@@?$allocator@U_Container_proxy@std@@@std@@QAE@ABV?$allocator@U?$_Tree_node@U?$pair@$$CBGPAU_ZONE_INFO@@@std@@PAX@std@@@1@@Z 00608f40 f i ServerDlg.obj
 0002:000b1f80       ??$?0U?$_Tree_node@U?$pair@$$CBGPAVKOSocket@@@std@@PAX@std@@@?$allocator@U?$pair@$$CBGPAVKOSocket@@@std@@@std@@QAE@ABV?$allocator@U?$_Tree_node@U?$pair@$$CBGPAVKOSocket@@@std@@PAX@std@@@1@@Z 00608f80 f i ServerDlg.obj
 0002:000b1fc0       ??$?0U?$_Tree_node@U?$pair@$$CBGPAVKOSocket@@@std@@PAX@std@@@?$allocator@U_Container_proxy@std@@@std@@QAE@ABV?$allocator@U?$_Tree_node@U?$pair@$$CBGPAVKOSocket@@@std@@PAX@std@@@1@@Z 00608fc0 f i ServerDlg.obj
 0002:000b2000       ??$?0U?$_Tree_node@U?$pair@$$CBIPAU_K_MONSTER_ITEM@@@std@@PAX@std@@@?$allocator@U_Container_proxy@std@@@std@@QAE@ABV?$allocator@U?$_Tree_node@U?$pair@$$CBIPAU_K_MONSTER_ITEM@@@std@@PAX@std@@@1@@Z 00609000 f i ServerDlg.obj
 0002:000b2040       ??$?0U?$_Tree_node@U?$pair@$$CBIPAU_MAGIC_TABLE@@@std@@PAX@std@@@?$allocator@U_Container_proxy@std@@@std@@QAE@ABV?$allocator@U?$_Tree_node@U?$pair@$$CBIPAU_MAGIC_TABLE@@@std@@PAX@std@@@1@@Z 00609040 f i ServerDlg.obj
 0002:000b2080       ??$?0U?$_Tree_node@U?$pair@$$CBIPAU_MAGIC_TYPE1@@@std@@PAX@std@@@?$allocator@U_Container_proxy@std@@@std@@QAE@ABV?$allocator@U?$_Tree_node@U?$pair@$$CBIPAU_MAGIC_TYPE1@@@std@@PAX@std@@@1@@Z 00609080 f i ServerDlg.obj
 0002:000b20c0       ??$?0U?$_Tree_node@U?$pair@$$CBIPAU_MAGIC_TYPE2@@@std@@PAX@std@@@?$allocator@U_Container_proxy@std@@@std@@QAE@ABV?$allocator@U?$_Tree_node@U?$pair@$$CBIPAU_MAGIC_TYPE2@@@std@@PAX@std@@@1@@Z 006090c0 f i ServerDlg.obj
 0002:000b2100       ??$?0U?$_Tree_node@U?$pair@$$CBIPAU_MAGIC_TYPE4@@@std@@PAX@std@@@?$allocator@U_Container_proxy@std@@@std@@QAE@ABV?$allocator@U?$_Tree_node@U?$pair@$$CBIPAU_MAGIC_TYPE4@@@std@@PAX@std@@@1@@Z 00609100 f i ServerDlg.obj
 0002:000b2140       ??$?0U?$_Tree_node@U?$pair@$$CBIPAU_MAKE_ITEM_GRADE_CODE@@@std@@PAX@std@@@?$allocator@U_Container_proxy@std@@@std@@QAE@ABV?$allocator@U?$_Tree_node@U?$pair@$$CBIPAU_MAKE_ITEM_GRADE_CODE@@@std@@PAX@std@@@1@@Z 00609140 f i ServerDlg.obj
 0002:000b2180       ??$?0U?$_Tree_node@U?$pair@$$CBIPAU_MAKE_ITEM_GROUP@@@std@@PAX@std@@@?$allocator@U_Container_proxy@std@@@std@@QAE@ABV?$allocator@U?$_Tree_node@U?$pair@$$CBIPAU_MAKE_ITEM_GROUP@@@std@@PAX@std@@@1@@Z 00609180 f i ServerDlg.obj
 0002:000b21c0       ??$?0U?$_Tree_node@U?$pair@$$CBIPAU_MAKE_ITEM_LARE_CODE@@@std@@PAX@std@@@?$allocator@U_Container_proxy@std@@@std@@QAE@ABV?$allocator@U?$_Tree_node@U?$pair@$$CBIPAU_MAKE_ITEM_LARE_CODE@@@std@@PAX@std@@@1@@Z 006091c0 f i ServerDlg.obj
 0002:000b2200       ??$?0U?$_Tree_node@U?$pair@$$CBIPAU_MAKE_WEAPON@@@std@@PAX@std@@@?$allocator@U_Container_proxy@std@@@std@@QAE@ABV?$allocator@U?$_Tree_node@U?$pair@$$CBIPAU_MAKE_WEAPON@@@std@@PAX@std@@@1@@Z 00609200 f i ServerDlg.obj
 0002:000b2240       ??$?0U?$_Tree_node@U?$pair@$$CBIPAU_NPC_LIVE_TIME@@@std@@PAX@std@@@?$allocator@U_Container_proxy@std@@@std@@QAE@ABV?$allocator@U?$_Tree_node@U?$pair@$$CBIPAU_NPC_LIVE_TIME@@@std@@PAX@std@@@1@@Z 00609240 f i ServerDlg.obj
 0002:000b2280       ??$?0U?$_Tree_node@U?$pair@$$CBIPAU_OBJECT_EVENT@@@std@@PAX@std@@@?$allocator@U_Container_proxy@std@@@std@@QAE@ABV?$allocator@U?$_Tree_node@U?$pair@$$CBIPAU_OBJECT_EVENT@@@std@@PAX@std@@@1@@Z 00609280 f i ServerDlg.obj
 0002:000b22c0       ??$?0U?$_Tree_node@U?$pair@$$CBIPAU_PARTY_GROUP@@@std@@PAX@std@@@?$allocator@U_Container_proxy@std@@@std@@QAE@ABV?$allocator@U?$_Tree_node@U?$pair@$$CBIPAU_PARTY_GROUP@@@std@@PAX@std@@@1@@Z 006092c0 f i ServerDlg.obj
 0002:000b2300       ??$?0U?$_Tree_node@U?$pair@$$CBIPAU_SERVER_RESOURCE@@@std@@PAX@std@@@?$allocator@U_Container_proxy@std@@@std@@QAE@ABV?$allocator@U?$_Tree_node@U?$pair@$$CBIPAU_SERVER_RESOURCE@@@std@@PAX@std@@@1@@Z 00609300 f i ServerDlg.obj
 0002:000b2340       ??$?0U?$_Tree_node@U?$pair@$$CBIPAVCNpc@@@std@@PAX@std@@@?$allocator@U_Container_proxy@std@@@std@@QAE@ABV?$allocator@U?$_Tree_node@U?$pair@$$CBIPAVCNpc@@@std@@PAX@std@@@1@@Z 00609340 f i ServerDlg.obj
 0002:000b2380       ??$?0U?$_Tree_node@U?$pair@$$CBIPAVCNpcTable@@@std@@PAX@std@@@?$allocator@U_Container_proxy@std@@@std@@QAE@ABV?$allocator@U?$_Tree_node@U?$pair@$$CBIPAVCNpcTable@@@std@@PAX@std@@@1@@Z 00609380 f i ServerDlg.obj
 0002:000b23c0       ??$?0U?$_Tree_node@U?$pair@$$CBIPAVMAP@@@std@@PAX@std@@@?$allocator@U_Container_proxy@std@@@std@@QAE@ABV?$allocator@U?$_Tree_node@U?$pair@$$CBIPAVMAP@@@std@@PAX@std@@@1@@Z 006093c0 f i ServerDlg.obj
 0002:000b2400       ??$?0U?$_Tree_node@U?$pair@$$CBV?$basic_string@DU?$char_traits@D@std@@V?$allocator@D@2@@std@@V12@@std@@PAX@std@@@?$allocator@U_Container_proxy@std@@@std@@QAE@ABV?$allocator@U?$_Tree_node@U?$pair@$$CBV?$basic_string@DU?$char_traits@D@std@@V?$allocator@D@2@@std@@V12@@std@@PAX@std@@@1@@Z 00609400 f i ServerDlg.obj
 0002:000b2440       ??$?0U?$_Tree_node@U?$pair@$$CBV?$basic_string@DU?$char_traits@D@std@@V?$allocator@D@2@@std@@V?$map@V?$basic_string@DU?$char_traits@D@std@@V?$allocator@D@2@@std@@V12@U?$less@V?$basic_string@DU?$char_traits@D@std@@V?$allocator@D@2@@std@@@2@V?$allocator@U?$pair@$$CBV?$basic_string@DU?$char_traits@D@std@@V?$allocator@D@2@@std@@V12@@std@@@2@@2@@std@@PAX@std@@@?$allocator@U_Container_proxy@std@@@std@@QAE@ABV?$allocator@U?$_Tree_node@U?$pair@$$CBV?$basic_string@DU?$char_traits@D@std@@V?$allocator@D@2@@std@@V?$map@V?$basic_string@DU?$char_traits@D@std@@V?$allocator@D@2@@std@@V12@U?$less@V?$basic_string@DU?$char_traits@D@std@@V?$allocator@D@2@@std@@@2@V?$allocator@U?$pair@$$CBV?$basic_string@DU?$char_traits@D@std@@V?$allocator@D@2@@std@@V12@@std@@@2@@2@@std@@PAX@std@@@1@@Z 00609440 f i ServerDlg.obj
 0002:000b2480       ??$?0U?$_Wrap_alloc@V?$allocator@U?$_Tree_node@U?$pair@$$CBEPAVCNpcThread@@@std@@PAX@std@@@std@@@std@@@?$_Wrap_alloc@V?$allocator@U_Container_proxy@std@@@std@@@std@@QAE@ABU?$_Wrap_alloc@V?$allocator@U?$_Tree_node@U?$pair@$$CBEPAVCNpcThread@@@std@@PAX@std@@@std@@@1@@Z 00609480 f i ServerDlg.obj
 0002:000b24e0       ??$?0U?$_Wrap_alloc@V?$allocator@U?$_Tree_node@U?$pair@$$CBGPAU_ZONE_INFO@@@std@@PAX@std@@@std@@@std@@@?$_Wrap_alloc@V?$allocator@U_Container_proxy@std@@@std@@@std@@QAE@ABU?$_Wrap_alloc@V?$allocator@U?$_Tree_node@U?$pair@$$CBGPAU_ZONE_INFO@@@std@@PAX@std@@@std@@@1@@Z 006094e0 f i ServerDlg.obj
 0002:000b2540       ??$?0U?$_Wrap_alloc@V?$allocator@U?$_Tree_node@U?$pair@$$CBGPAVKOSocket@@@std@@PAX@std@@@std@@@std@@@?$_Wrap_alloc@V?$allocator@U_Container_proxy@std@@@std@@@std@@QAE@ABU?$_Wrap_alloc@V?$allocator@U?$_Tree_node@U?$pair@$$CBGPAVKOSocket@@@std@@PAX@std@@@std@@@1@@Z 00609540 f i ServerDlg.obj
 0002:000b25a0       ??$?0U?$_Wrap_alloc@V?$allocator@U?$_Tree_node@U?$pair@$$CBIPAU_K_MONSTER_ITEM@@@std@@PAX@std@@@std@@@std@@@?$_Wrap_alloc@V?$allocator@U_Container_proxy@std@@@std@@@std@@QAE@ABU?$_Wrap_alloc@V?$allocator@U?$_Tree_node@U?$pair@$$CBIPAU_K_MONSTER_ITEM@@@std@@PAX@std@@@std@@@1@@Z 006095a0 f i ServerDlg.obj
 0002:000b2600       ??$?0U?$_Wrap_alloc@V?$allocator@U?$_Tree_node@U?$pair@$$CBIPAU_MAGIC_TABLE@@@std@@PAX@std@@@std@@@std@@@?$_Wrap_alloc@V?$allocator@U_Container_proxy@std@@@std@@@std@@QAE@ABU?$_Wrap_alloc@V?$allocator@U?$_Tree_node@U?$pair@$$CBIPAU_MAGIC_TABLE@@@std@@PAX@std@@@std@@@1@@Z 00609600 f i ServerDlg.obj
